
soft.elf:     file format elf32-lm32


Disassembly of section .boot:

00100000 <_start>:
  100000:	78 1c 00 17 	mvhi sp,0x17
  100004:	3b 9c ff fc 	ori sp,sp,0xfffc
  100008:	78 1a 00 11 	mvhi gp,0x11
  10000c:	3b 5a 57 80 	ori gp,gp,0x5780
  100010:	78 01 00 10 	mvhi r1,0x10
  100014:	38 21 d7 90 	ori r1,r1,0xd790
  100018:	34 02 00 00 	mvi r2,0
  10001c:	78 03 00 10 	mvhi r3,0x10
  100020:	38 63 d7 e0 	ori r3,r3,0xd7e0
  100024:	c8 61 18 00 	sub r3,r3,r1
  100028:	f8 00 08 1f 	calli 1020a4 <memset>
  10002c:	f8 00 31 8c 	calli 10c65c <_init>
  100030:	78 01 00 10 	mvhi r1,0x10
  100034:	38 21 c6 78 	ori r1,r1,0xc678
  100038:	f8 00 08 02 	calli 102040 <atexit>
  10003c:	34 01 00 00 	mvi r1,0
  100040:	34 02 00 00 	mvi r2,0
  100044:	34 03 00 00 	mvi r3,0
  100048:	f8 00 00 c2 	calli 100350 <main>
  10004c:	f8 00 08 07 	calli 102068 <exit>

Disassembly of section .text:

00100050 <get_cc>:
 *
 ******************************************************************************/

// nombres de cycles depuis le démarage du lm32
static inline unsigned int get_cc(void)
{
  100050:	37 9c ff f0 	addi sp,sp,-16
  100054:	5b 8b 00 0c 	sw (sp+12),r11
  100058:	5b 9b 00 08 	sw (sp+8),fp
  10005c:	5b 9d 00 04 	sw (sp+4),ra
  100060:	34 1b 00 10 	mvi fp,16
  100064:	b7 7c d8 00 	add fp,fp,sp
  int tmp;
  asm volatile (
  100068:	90 a0 58 00 	rcsr r11,CC
  10006c:	5b 6b 00 00 	sw (fp+0),r11
		"rcsr %0, CC" :"=r"(tmp)
		);
  return tmp;
  100070:	2b 61 00 00 	lw r1,(fp+0)
}
  100074:	2b 8b 00 0c 	lw r11,(sp+12)
  100078:	2b 9b 00 08 	lw fp,(sp+8)
  10007c:	2b 9d 00 04 	lw ra,(sp+4)
  100080:	37 9c 00 10 	addi sp,sp,16
  100084:	c3 a0 00 00 	ret

00100088 <fmult>:

// CODE A MODIFIER
static inline float fmult(float x, float y)
{
  100088:	37 9c ff e8 	addi sp,sp,-24
  10008c:	5b 8b 00 0c 	sw (sp+12),r11
  100090:	5b 9b 00 08 	sw (sp+8),fp
  100094:	5b 9d 00 04 	sw (sp+4),ra
  100098:	34 1b 00 18 	mvi fp,24
  10009c:	b7 7c d8 00 	add fp,fp,sp
  1000a0:	5b 61 ff fc 	sw (fp+-4),r1
  1000a4:	5b 62 ff f8 	sw (fp+-8),r2
  float resultat;
  asm volatile("user %[dest],%[src1],%[src2],0x02":[dest] "=r" (resultat)
  1000a8:	2b 61 ff fc 	lw r1,(fp+-4)
  1000ac:	2b 62 ff f8 	lw r2,(fp+-8)
  1000b0:	cc 22 58 02 	user r11,r1,r2,0x2
  1000b4:	b9 60 08 00 	mv r1,r11
  1000b8:	5b 61 00 00 	sw (fp+0),r1
		:[src1] "r" (x),
		[src2] "r" (y)) ;

  return  resultat ;
  1000bc:	2b 62 00 00 	lw r2,(fp+0)
  1000c0:	b8 40 08 00 	mv r1,r2
}
  1000c4:	2b 8b 00 0c 	lw r11,(sp+12)
  1000c8:	2b 9b 00 08 	lw fp,(sp+8)
  1000cc:	2b 9d 00 04 	lw ra,(sp+4)
  1000d0:	37 9c 00 18 	addi sp,sp,24
  1000d4:	c3 a0 00 00 	ret

001000d8 <fadd>:

static inline float fadd(float x, float y)
{
  1000d8:	37 9c ff e8 	addi sp,sp,-24
  1000dc:	5b 8b 00 0c 	sw (sp+12),r11
  1000e0:	5b 9b 00 08 	sw (sp+8),fp
  1000e4:	5b 9d 00 04 	sw (sp+4),ra
  1000e8:	34 1b 00 18 	mvi fp,24
  1000ec:	b7 7c d8 00 	add fp,fp,sp
  1000f0:	5b 61 ff fc 	sw (fp+-4),r1
  1000f4:	5b 62 ff f8 	sw (fp+-8),r2
  float resultat;
  asm volatile("user %[dest],%[src1],%[src2],0x0":[dest] "=r" (resultat)
  1000f8:	2b 61 ff fc 	lw r1,(fp+-4)
  1000fc:	2b 62 ff f8 	lw r2,(fp+-8)
  100100:	cc 22 58 00 	user r11,r1,r2,0x0
  100104:	b9 60 08 00 	mv r1,r11
  100108:	5b 61 00 00 	sw (fp+0),r1
		:[src1] "r" (x),
		[src2] "r" (y)) ;

  return  resultat ;
  10010c:	2b 62 00 00 	lw r2,(fp+0)
  100110:	b8 40 08 00 	mv r1,r2
}
  100114:	2b 8b 00 0c 	lw r11,(sp+12)
  100118:	2b 9b 00 08 	lw fp,(sp+8)
  10011c:	2b 9d 00 04 	lw ra,(sp+4)
  100120:	37 9c 00 18 	addi sp,sp,24
  100124:	c3 a0 00 00 	ret

00100128 <fdiv>:

static inline float fdiv(float x, float y)
{
  100128:	37 9c ff e8 	addi sp,sp,-24
  10012c:	5b 8b 00 0c 	sw (sp+12),r11
  100130:	5b 9b 00 08 	sw (sp+8),fp
  100134:	5b 9d 00 04 	sw (sp+4),ra
  100138:	34 1b 00 18 	mvi fp,24
  10013c:	b7 7c d8 00 	add fp,fp,sp
  100140:	5b 61 ff fc 	sw (fp+-4),r1
  100144:	5b 62 ff f8 	sw (fp+-8),r2
  float resultat;
  asm volatile("user %[dest],%[src1],%[src2],0x03":[dest] "=r" (resultat)
  100148:	2b 61 ff fc 	lw r1,(fp+-4)
  10014c:	2b 62 ff f8 	lw r2,(fp+-8)
  100150:	cc 22 58 03 	user r11,r1,r2,0x3
  100154:	b9 60 08 00 	mv r1,r11
  100158:	5b 61 00 00 	sw (fp+0),r1
		:[src1] "r" (x),
		[src2] "r" (y)) ;

  return  resultat ;
  10015c:	2b 62 00 00 	lw r2,(fp+0)
  100160:	b8 40 08 00 	mv r1,r2
}
  100164:	2b 8b 00 0c 	lw r11,(sp+12)
  100168:	2b 9b 00 08 	lw fp,(sp+8)
  10016c:	2b 9d 00 04 	lw ra,(sp+4)
  100170:	37 9c 00 18 	addi sp,sp,24
  100174:	c3 a0 00 00 	ret

00100178 <dev_lim_atn_copro>:
// FIN DU CODE A MODIFIER

// fonction calculant pi en utilisant le copro
float dev_lim_atn_copro ( float x , int n ) {
  100178:	37 9c ff d8 	addi sp,sp,-40
  10017c:	5b 8b 00 0c 	sw (sp+12),r11
  100180:	5b 9b 00 08 	sw (sp+8),fp
  100184:	5b 9d 00 04 	sw (sp+4),ra
  100188:	34 1b 00 28 	mvi fp,40
  10018c:	b7 7c d8 00 	add fp,fp,sp
  100190:	5b 61 ff ec 	sw (fp+-20),r1
  100194:	5b 62 ff e8 	sw (fp+-24),r2
  float res ,x2, mem_puiss ;
  int i ;
  float  signe;
  signe  =1.0;
  100198:	78 01 3f 80 	mvhi r1,0x3f80
  10019c:	5b 61 ff f4 	sw (fp+-12),r1
  res =0.0 ;
  1001a0:	34 01 00 00 	mvi r1,0
  1001a4:	5b 61 00 00 	sw (fp+0),r1
  mem_puiss = x ;
  1001a8:	2b 61 ff ec 	lw r1,(fp+-20)
  1001ac:	5b 61 ff fc 	sw (fp+-4),r1
  x2 = fmult(x,x)  ;
  1001b0:	2b 61 ff ec 	lw r1,(fp+-20)
  1001b4:	2b 62 ff ec 	lw r2,(fp+-20)
  1001b8:	fb ff ff b4 	calli 100088 <fmult>
  1001bc:	5b 61 ff f0 	sw (fp+-16),r1
  for ( i =1; i <= n ; i +=2) {
  1001c0:	34 01 00 01 	mvi r1,1
  1001c4:	5b 61 ff f8 	sw (fp+-8),r1
  1001c8:	e0 00 00 19 	bi 10022c <dev_lim_atn_copro+0xb4>
	 res = fadd(res,fdiv(fmult(signe , mem_puiss),(float) i))  ;
  1001cc:	2b 61 ff f4 	lw r1,(fp+-12)
  1001d0:	2b 62 ff fc 	lw r2,(fp+-4)
  1001d4:	fb ff ff ad 	calli 100088 <fmult>
  1001d8:	b8 20 58 00 	mv r11,r1
  1001dc:	2b 61 ff f8 	lw r1,(fp+-8)
  1001e0:	f8 00 04 21 	calli 101264 <__floatsisf>
  1001e4:	b8 20 10 00 	mv r2,r1
  1001e8:	b9 60 08 00 	mv r1,r11
  1001ec:	fb ff ff cf 	calli 100128 <fdiv>
  1001f0:	b8 20 10 00 	mv r2,r1
  1001f4:	2b 61 00 00 	lw r1,(fp+0)
  1001f8:	fb ff ff b8 	calli 1000d8 <fadd>
  1001fc:	5b 61 00 00 	sw (fp+0),r1
	 signe = fmult(-1.0,signe) ;
  100200:	78 01 bf 80 	mvhi r1,0xbf80
  100204:	2b 62 ff f4 	lw r2,(fp+-12)
  100208:	fb ff ff a0 	calli 100088 <fmult>
  10020c:	5b 61 ff f4 	sw (fp+-12),r1
	 mem_puiss = fmult(mem_puiss , x2) ;
  100210:	2b 61 ff fc 	lw r1,(fp+-4)
  100214:	2b 62 ff f0 	lw r2,(fp+-16)
  100218:	fb ff ff 9c 	calli 100088 <fmult>
  10021c:	5b 61 ff fc 	sw (fp+-4),r1
  float  signe;
  signe  =1.0;
  res =0.0 ;
  mem_puiss = x ;
  x2 = fmult(x,x)  ;
  for ( i =1; i <= n ; i +=2) {
  100220:	2b 61 ff f8 	lw r1,(fp+-8)
  100224:	34 21 00 02 	addi r1,r1,2
  100228:	5b 61 ff f8 	sw (fp+-8),r1
  10022c:	2b 61 ff f8 	lw r1,(fp+-8)
  100230:	2b 62 ff e8 	lw r2,(fp+-24)
  100234:	4c 41 ff e6 	bge r2,r1,1001cc <dev_lim_atn_copro+0x54>
	 res = fadd(res,fdiv(fmult(signe , mem_puiss),(float) i))  ;
	 signe = fmult(-1.0,signe) ;
	 mem_puiss = fmult(mem_puiss , x2) ;
  }
  return res ;
  100238:	2b 62 00 00 	lw r2,(fp+0)
  10023c:	b8 40 08 00 	mv r1,r2
}
  100240:	2b 8b 00 0c 	lw r11,(sp+12)
  100244:	2b 9b 00 08 	lw fp,(sp+8)
  100248:	2b 9d 00 04 	lw ra,(sp+4)
  10024c:	37 9c 00 28 	addi sp,sp,40
  100250:	c3 a0 00 00 	ret

00100254 <dev_lim_atn_ref>:


// fonction de reference
float dev_lim_atn_ref ( float x , int n ) {
  100254:	37 9c ff d8 	addi sp,sp,-40
  100258:	5b 8b 00 0c 	sw (sp+12),r11
  10025c:	5b 9b 00 08 	sw (sp+8),fp
  100260:	5b 9d 00 04 	sw (sp+4),ra
  100264:	34 1b 00 28 	mvi fp,40
  100268:	b7 7c d8 00 	add fp,fp,sp
  10026c:	5b 61 ff ec 	sw (fp+-20),r1
  100270:	5b 62 ff e8 	sw (fp+-24),r2
  float res ,x2, mem_puiss ;
  int i ;
  float  signe;

  signe  =1.0;
  100274:	78 01 3f 80 	mvhi r1,0x3f80
  100278:	5b 61 ff f4 	sw (fp+-12),r1
  res =0.0 ;
  10027c:	34 01 00 00 	mvi r1,0
  100280:	5b 61 00 00 	sw (fp+0),r1
  x2 = x*x;
  100284:	2b 61 ff ec 	lw r1,(fp+-20)
  100288:	2b 62 ff ec 	lw r2,(fp+-20)
  10028c:	f8 00 03 07 	calli 100ea8 <__mulsf3>
  100290:	b8 20 10 00 	mv r2,r1
  100294:	b8 40 08 00 	mv r1,r2
  100298:	5b 61 ff f0 	sw (fp+-16),r1
  mem_puiss = x ;
  10029c:	2b 61 ff ec 	lw r1,(fp+-20)
  1002a0:	5b 61 ff fc 	sw (fp+-4),r1

  for ( i =1; i <= n ; i +=2) {
  1002a4:	34 01 00 01 	mvi r1,1
  1002a8:	5b 61 ff f8 	sw (fp+-8),r1
  1002ac:	e0 00 00 1f 	bi 100328 <dev_lim_atn_ref+0xd4>
	 res += signe * mem_puiss / (float)i  ;
  1002b0:	2b 61 ff f4 	lw r1,(fp+-12)
  1002b4:	2b 62 ff fc 	lw r2,(fp+-4)
  1002b8:	f8 00 02 fc 	calli 100ea8 <__mulsf3>
  1002bc:	b8 20 10 00 	mv r2,r1
  1002c0:	b8 40 58 00 	mv r11,r2
  1002c4:	2b 61 ff f8 	lw r1,(fp+-8)
  1002c8:	f8 00 03 e7 	calli 101264 <__floatsisf>
  1002cc:	b8 20 10 00 	mv r2,r1
  1002d0:	b9 60 08 00 	mv r1,r11
  1002d4:	f8 00 02 25 	calli 100b68 <__divsf3>
  1002d8:	b8 20 18 00 	mv r3,r1
  1002dc:	b8 60 10 00 	mv r2,r3
  1002e0:	2b 61 00 00 	lw r1,(fp+0)
  1002e4:	f8 00 00 a6 	calli 10057c <__addsf3>
  1002e8:	b8 20 10 00 	mv r2,r1
  1002ec:	b8 40 08 00 	mv r1,r2
  1002f0:	5b 61 00 00 	sw (fp+0),r1
	 signe = -1.0 * signe  ;
  1002f4:	2b 62 ff f4 	lw r2,(fp+-12)
  1002f8:	78 01 80 00 	mvhi r1,0x8000
  1002fc:	98 41 08 00 	xor r1,r2,r1
  100300:	5b 61 ff f4 	sw (fp+-12),r1
	 mem_puiss = mem_puiss * x2 ;
  100304:	2b 61 ff fc 	lw r1,(fp+-4)
  100308:	2b 62 ff f0 	lw r2,(fp+-16)
  10030c:	f8 00 02 e7 	calli 100ea8 <__mulsf3>
  100310:	b8 20 10 00 	mv r2,r1
  100314:	b8 40 08 00 	mv r1,r2
  100318:	5b 61 ff fc 	sw (fp+-4),r1
  signe  =1.0;
  res =0.0 ;
  x2 = x*x;
  mem_puiss = x ;

  for ( i =1; i <= n ; i +=2) {
  10031c:	2b 61 ff f8 	lw r1,(fp+-8)
  100320:	34 21 00 02 	addi r1,r1,2
  100324:	5b 61 ff f8 	sw (fp+-8),r1
  100328:	2b 61 ff f8 	lw r1,(fp+-8)
  10032c:	2b 62 ff e8 	lw r2,(fp+-24)
  100330:	4c 41 ff e0 	bge r2,r1,1002b0 <dev_lim_atn_ref+0x5c>
	 res += signe * mem_puiss / (float)i  ;
	 signe = -1.0 * signe  ;
	 mem_puiss = mem_puiss * x2 ;
  }
  return res ;
  100334:	2b 62 00 00 	lw r2,(fp+0)
  100338:	b8 40 08 00 	mv r1,r2
}
  10033c:	2b 8b 00 0c 	lw r11,(sp+12)
  100340:	2b 9b 00 08 	lw fp,(sp+8)
  100344:	2b 9d 00 04 	lw ra,(sp+4)
  100348:	37 9c 00 28 	addi sp,sp,40
  10034c:	c3 a0 00 00 	ret

00100350 <main>:


#define FREQ 100.0f // in MHz

int main()
{
  100350:	37 9c ff e8 	addi sp,sp,-24
  100354:	5b 9b 00 08 	sw (sp+8),fp
  100358:	5b 9d 00 04 	sw (sp+4),ra
  10035c:	34 1b 00 18 	mvi fp,24
  100360:	b7 7c d8 00 	add fp,fp,sp
  unsigned int t0, t1;
  float pi ;
  int i ;
  // sans le copro
  for (i=1;i<100000;i*=10) {
  100364:	34 01 00 01 	mvi r1,1
  100368:	5b 61 00 00 	sw (fp+0),r1
  10036c:	e0 00 00 3c 	bi 10045c <main+0x10c>
	 //printf("degug............................");
	 t0 = get_cc();
  100370:	fb ff ff 38 	calli 100050 <get_cc>
  100374:	5b 61 ff fc 	sw (fp+-4),r1
	 pi = 4.0*dev_lim_atn_ref(1.0,i) ;
  100378:	78 01 3f 80 	mvhi r1,0x3f80
  10037c:	2b 62 00 00 	lw r2,(fp+0)
  100380:	fb ff ff b5 	calli 100254 <dev_lim_atn_ref>
  100384:	b8 20 10 00 	mv r2,r1
  100388:	b8 40 08 00 	mv r1,r2
  10038c:	78 02 40 80 	mvhi r2,0x4080
  100390:	f8 00 02 c6 	calli 100ea8 <__mulsf3>
  100394:	b8 20 10 00 	mv r2,r1
  100398:	b8 40 08 00 	mv r1,r2
  10039c:	5b 61 ff f8 	sw (fp+-8),r1
	 t1 = get_cc();
  1003a0:	fb ff ff 2c 	calli 100050 <get_cc>
  1003a4:	5b 61 ff f4 	sw (fp+-12),r1
	 printf("Duration 1    %f ms\n\r", (t1-t0)/1000./FREQ);
  1003a8:	2b 62 ff f4 	lw r2,(fp+-12)
  1003ac:	2b 61 ff fc 	lw r1,(fp+-4)
  1003b0:	c8 41 08 00 	sub r1,r2,r1
  1003b4:	f8 00 06 08 	calli 101bd4 <__floatunsidf>
  1003b8:	b8 20 18 00 	mv r3,r1
  1003bc:	b8 40 20 00 	mv r4,r2
  1003c0:	b8 60 08 00 	mv r1,r3
  1003c4:	b8 80 10 00 	mv r2,r4
  1003c8:	78 03 40 8f 	mvhi r3,0x408f
  1003cc:	38 63 40 00 	ori r3,r3,0x4000
  1003d0:	34 04 00 00 	mvi r4,0
  1003d4:	f8 00 04 07 	calli 1013f0 <__divdf3>
  1003d8:	b8 20 20 00 	mv r4,r1
  1003dc:	b8 40 28 00 	mv r5,r2
  1003e0:	b8 80 10 00 	mv r2,r4
  1003e4:	b8 a0 18 00 	mv r3,r5
  1003e8:	b8 40 08 00 	mv r1,r2
  1003ec:	b8 60 10 00 	mv r2,r3
  1003f0:	78 03 40 59 	mvhi r3,0x4059
  1003f4:	34 04 00 00 	mvi r4,0
  1003f8:	f8 00 03 fe 	calli 1013f0 <__divdf3>
  1003fc:	b8 20 28 00 	mv r5,r1
  100400:	b8 40 30 00 	mv r6,r2
  100404:	b8 a0 18 00 	mv r3,r5
  100408:	b8 c0 20 00 	mv r4,r6
  10040c:	78 01 00 10 	mvhi r1,0x10
  100410:	38 21 c6 a8 	ori r1,r1,0xc6a8
  100414:	b8 60 10 00 	mv r2,r3
  100418:	b8 80 18 00 	mv r3,r4
  10041c:	f8 00 07 73 	calli 1021e8 <printf>
	 printf("Iterations :%10d Pi : %10.9f\n",i,pi) ;
  100420:	2b 61 ff f8 	lw r1,(fp+-8)
  100424:	f8 00 06 19 	calli 101c88 <__extendsfdf2>
  100428:	b8 20 20 00 	mv r4,r1
  10042c:	b8 40 28 00 	mv r5,r2
  100430:	78 01 00 10 	mvhi r1,0x10
  100434:	38 21 c6 c0 	ori r1,r1,0xc6c0
  100438:	2b 62 00 00 	lw r2,(fp+0)
  10043c:	b8 80 18 00 	mv r3,r4
  100440:	b8 a0 20 00 	mv r4,r5
  100444:	f8 00 07 69 	calli 1021e8 <printf>
{
  unsigned int t0, t1;
  float pi ;
  int i ;
  // sans le copro
  for (i=1;i<100000;i*=10) {
  100448:	2b 61 00 00 	lw r1,(fp+0)
  10044c:	3c 21 00 01 	sli r1,r1,1
  100450:	3c 22 00 02 	sli r2,r1,2
  100454:	b4 22 08 00 	add r1,r1,r2
  100458:	5b 61 00 00 	sw (fp+0),r1
  10045c:	2b 62 00 00 	lw r2,(fp+0)
  100460:	78 01 00 01 	mvhi r1,0x1
  100464:	38 21 86 9f 	ori r1,r1,0x869f
  100468:	4c 22 ff c2 	bge r1,r2,100370 <main+0x20>
	 t1 = get_cc();
	 printf("Duration 1    %f ms\n\r", (t1-t0)/1000./FREQ);
	 printf("Iterations :%10d Pi : %10.9f\n",i,pi) ;
  }
  // utilisant le copro
  for (i=1;i<100000;i*=10) {
  10046c:	34 01 00 01 	mvi r1,1
  100470:	5b 61 00 00 	sw (fp+0),r1
  100474:	e0 00 00 39 	bi 100558 <main+0x208>
	 t0 = get_cc();
  100478:	fb ff fe f6 	calli 100050 <get_cc>
  10047c:	5b 61 ff fc 	sw (fp+-4),r1
	 pi = fmult(4.0,dev_lim_atn_copro(1.0,i)) ;
  100480:	78 01 3f 80 	mvhi r1,0x3f80
  100484:	2b 62 00 00 	lw r2,(fp+0)
  100488:	fb ff ff 3c 	calli 100178 <dev_lim_atn_copro>
  10048c:	b8 20 10 00 	mv r2,r1
  100490:	78 01 40 80 	mvhi r1,0x4080
  100494:	fb ff fe fd 	calli 100088 <fmult>
  100498:	5b 61 ff f8 	sw (fp+-8),r1
	 t1 = get_cc();
  10049c:	fb ff fe ed 	calli 100050 <get_cc>
  1004a0:	5b 61 ff f4 	sw (fp+-12),r1
	 printf("Duration 1    %f ms\n\r", (t1-t0)/1000./FREQ);
  1004a4:	2b 62 ff f4 	lw r2,(fp+-12)
  1004a8:	2b 61 ff fc 	lw r1,(fp+-4)
  1004ac:	c8 41 08 00 	sub r1,r2,r1
  1004b0:	f8 00 05 c9 	calli 101bd4 <__floatunsidf>
  1004b4:	b8 20 18 00 	mv r3,r1
  1004b8:	b8 40 20 00 	mv r4,r2
  1004bc:	b8 60 08 00 	mv r1,r3
  1004c0:	b8 80 10 00 	mv r2,r4
  1004c4:	78 03 40 8f 	mvhi r3,0x408f
  1004c8:	38 63 40 00 	ori r3,r3,0x4000
  1004cc:	34 04 00 00 	mvi r4,0
  1004d0:	f8 00 03 c8 	calli 1013f0 <__divdf3>
  1004d4:	b8 20 20 00 	mv r4,r1
  1004d8:	b8 40 28 00 	mv r5,r2
  1004dc:	b8 80 10 00 	mv r2,r4
  1004e0:	b8 a0 18 00 	mv r3,r5
  1004e4:	b8 40 08 00 	mv r1,r2
  1004e8:	b8 60 10 00 	mv r2,r3
  1004ec:	78 03 40 59 	mvhi r3,0x4059
  1004f0:	34 04 00 00 	mvi r4,0
  1004f4:	f8 00 03 bf 	calli 1013f0 <__divdf3>
  1004f8:	b8 20 28 00 	mv r5,r1
  1004fc:	b8 40 30 00 	mv r6,r2
  100500:	b8 a0 18 00 	mv r3,r5
  100504:	b8 c0 20 00 	mv r4,r6
  100508:	78 01 00 10 	mvhi r1,0x10
  10050c:	38 21 c6 a8 	ori r1,r1,0xc6a8
  100510:	b8 60 10 00 	mv r2,r3
  100514:	b8 80 18 00 	mv r3,r4
  100518:	f8 00 07 34 	calli 1021e8 <printf>
	 printf("Iterations :%10d Pi : %10.9f\n",i,pi) ;
  10051c:	2b 61 ff f8 	lw r1,(fp+-8)
  100520:	f8 00 05 da 	calli 101c88 <__extendsfdf2>
  100524:	b8 20 20 00 	mv r4,r1
  100528:	b8 40 28 00 	mv r5,r2
  10052c:	78 01 00 10 	mvhi r1,0x10
  100530:	38 21 c6 c0 	ori r1,r1,0xc6c0
  100534:	2b 62 00 00 	lw r2,(fp+0)
  100538:	b8 80 18 00 	mv r3,r4
  10053c:	b8 a0 20 00 	mv r4,r5
  100540:	f8 00 07 2a 	calli 1021e8 <printf>
	 t1 = get_cc();
	 printf("Duration 1    %f ms\n\r", (t1-t0)/1000./FREQ);
	 printf("Iterations :%10d Pi : %10.9f\n",i,pi) ;
  }
  // utilisant le copro
  for (i=1;i<100000;i*=10) {
  100544:	2b 61 00 00 	lw r1,(fp+0)
  100548:	3c 21 00 01 	sli r1,r1,1
  10054c:	3c 22 00 02 	sli r2,r1,2
  100550:	b4 22 08 00 	add r1,r1,r2
  100554:	5b 61 00 00 	sw (fp+0),r1
  100558:	2b 62 00 00 	lw r2,(fp+0)
  10055c:	78 01 00 01 	mvhi r1,0x1
  100560:	38 21 86 9f 	ori r1,r1,0x869f
  100564:	4c 22 ff c5 	bge r1,r2,100478 <main+0x128>
	 pi = fmult(4.0,dev_lim_atn_copro(1.0,i)) ;
	 t1 = get_cc();
	 printf("Duration 1    %f ms\n\r", (t1-t0)/1000./FREQ);
	 printf("Iterations :%10d Pi : %10.9f\n",i,pi) ;
  }
  return 0;
  100568:	34 01 00 00 	mvi r1,0
}
  10056c:	2b 9b 00 08 	lw fp,(sp+8)
  100570:	2b 9d 00 04 	lw ra,(sp+4)
  100574:	37 9c 00 18 	addi sp,sp,24
  100578:	c3 a0 00 00 	ret

0010057c <__addsf3>:
  10057c:	37 9c ff f0 	addi sp,sp,-16
  100580:	5b 8b 00 10 	sw (sp+16),r11
  100584:	5b 8c 00 0c 	sw (sp+12),r12
  100588:	5b 8d 00 08 	sw (sp+8),r13
  10058c:	5b 9d 00 04 	sw (sp+4),ra
  100590:	78 03 00 10 	mvhi r3,0x10
  100594:	38 63 c6 e0 	ori r3,r3,0xc6e0
  100598:	28 65 00 00 	lw r5,(r3+0)
  10059c:	00 24 00 17 	srui r4,r1,23
  1005a0:	00 4b 00 17 	srui r11,r2,23
  1005a4:	00 26 00 1f 	srui r6,r1,31
  1005a8:	00 48 00 1f 	srui r8,r2,31
  1005ac:	a0 25 08 00 	and r1,r1,r5
  1005b0:	a0 45 28 00 	and r5,r2,r5
  1005b4:	20 84 00 ff 	andi r4,r4,0xff
  1005b8:	3c 27 00 03 	sli r7,r1,3
  1005bc:	21 6b 00 ff 	andi r11,r11,0xff
  1005c0:	3c a5 00 03 	sli r5,r5,3
  1005c4:	44 c8 00 65 	be r6,r8,100758 <__addsf3+0x1dc>
  1005c8:	c8 8b 08 00 	sub r1,r4,r11
  1005cc:	4c 01 00 9e 	bge r0,r1,100844 <__addsf3+0x2c8>
  1005d0:	5d 60 00 0e 	bne r11,r0,100608 <__addsf3+0x8c>
  1005d4:	44 ab 00 84 	be r5,r11,1007e4 <__addsf3+0x268>
  1005d8:	34 21 ff ff 	addi r1,r1,-1
  1005dc:	c8 e5 18 00 	sub r3,r7,r5
  1005e0:	b8 80 58 00 	mv r11,r4
  1005e4:	b8 c0 60 00 	mv r12,r6
  1005e8:	44 20 00 17 	be r1,r0,100644 <__addsf3+0xc8>
  1005ec:	34 02 00 ff 	mvi r2,255
  1005f0:	5c 82 00 0a 	bne r4,r2,100618 <__addsf3+0x9c>
  1005f4:	b8 e0 18 00 	mv r3,r7
  1005f8:	b8 c0 60 00 	mv r12,r6
  1005fc:	34 02 01 00 	mvi r2,256
  100600:	34 0b 00 ff 	mvi r11,255
  100604:	e0 00 00 26 	bi 10069c <__addsf3+0x120>
  100608:	34 02 00 ff 	mvi r2,255
  10060c:	44 82 ff fa 	be r4,r2,1005f4 <__addsf3+0x78>
  100610:	78 02 04 00 	mvhi r2,0x400
  100614:	b8 a2 28 00 	or r5,r5,r2
  100618:	34 02 00 1b 	mvi r2,27
  10061c:	34 03 00 01 	mvi r3,1
  100620:	48 22 00 06 	bg r1,r2,100638 <__addsf3+0xbc>
  100624:	c8 01 18 00 	sub r3,r0,r1
  100628:	bc a3 18 00 	sl r3,r5,r3
  10062c:	80 a1 28 00 	sru r5,r5,r1
  100630:	7c 63 00 00 	cmpnei r3,r3,0
  100634:	b8 65 18 00 	or r3,r3,r5
  100638:	c8 e3 18 00 	sub r3,r7,r3
  10063c:	b8 80 58 00 	mv r11,r4
  100640:	b8 c0 60 00 	mv r12,r6
  100644:	78 02 00 10 	mvhi r2,0x10
  100648:	38 42 c6 e8 	ori r2,r2,0xc6e8
  10064c:	28 4d 00 00 	lw r13,(r2+0)
  100650:	78 01 04 00 	mvhi r1,0x400
  100654:	a0 61 08 00 	and r1,r3,r1
  100658:	a0 6d 68 00 	and r13,r3,r13
  10065c:	35 62 00 01 	addi r2,r11,1
  100660:	44 20 00 0f 	be r1,r0,10069c <__addsf3+0x120>
  100664:	b9 a0 08 00 	mv r1,r13
  100668:	f8 00 05 e3 	calli 101df4 <__clzsi2>
  10066c:	34 21 ff fb 	addi r1,r1,-5
  100670:	bd a1 68 00 	sl r13,r13,r1
  100674:	49 61 00 89 	bg r11,r1,100898 <__addsf3+0x31c>
  100678:	c8 2b 08 00 	sub r1,r1,r11
  10067c:	34 21 00 01 	addi r1,r1,1
  100680:	c8 01 18 00 	sub r3,r0,r1
  100684:	bd a3 18 00 	sl r3,r13,r3
  100688:	81 a1 68 00 	sru r13,r13,r1
  10068c:	7c 63 00 00 	cmpnei r3,r3,0
  100690:	34 02 00 01 	mvi r2,1
  100694:	b8 6d 18 00 	or r3,r3,r13
  100698:	34 0b 00 00 	mvi r11,0
  10069c:	20 64 00 0f 	andi r4,r3,0xf
  1006a0:	34 01 00 04 	mvi r1,4
  1006a4:	44 81 00 03 	be r4,r1,1006b0 <__addsf3+0x134>
  1006a8:	34 63 00 04 	addi r3,r3,4
  1006ac:	35 62 00 01 	addi r2,r11,1
  1006b0:	78 01 04 00 	mvhi r1,0x400
  1006b4:	a0 61 08 00 	and r1,r3,r1
  1006b8:	44 20 00 0b 	be r1,r0,1006e4 <__addsf3+0x168>
  1006bc:	34 01 00 ff 	mvi r1,255
  1006c0:	34 0b 00 ff 	mvi r11,255
  1006c4:	34 04 00 00 	mvi r4,0
  1006c8:	44 41 00 16 	be r2,r1,100720 <__addsf3+0x1a4>
  1006cc:	78 05 00 10 	mvhi r5,0x10
  1006d0:	38 a5 c6 e4 	ori r5,r5,0xc6e4
  1006d4:	28 a1 00 00 	lw r1,(r5+0)
  1006d8:	b8 40 58 00 	mv r11,r2
  1006dc:	34 42 00 01 	addi r2,r2,1
  1006e0:	a0 61 18 00 	and r3,r3,r1
  1006e4:	00 63 00 03 	srui r3,r3,3
  1006e8:	20 42 00 ff 	andi r2,r2,0xff
  1006ec:	34 04 00 01 	mvi r4,1
  1006f0:	7c 61 00 00 	cmpnei r1,r3,0
  1006f4:	ec 82 10 00 	cmpge r2,r4,r2
  1006f8:	a0 22 10 00 	and r2,r1,r2
  1006fc:	44 40 00 47 	be r2,r0,100818 <__addsf3+0x29c>
  100700:	45 60 00 4c 	be r11,r0,100830 <__addsf3+0x2b4>
  100704:	78 04 00 40 	mvhi r4,0x40
  100708:	b8 64 20 00 	or r4,r3,r4
  10070c:	78 03 00 10 	mvhi r3,0x10
  100710:	38 63 c6 e0 	ori r3,r3,0xc6e0
  100714:	28 61 00 00 	lw r1,(r3+0)
  100718:	21 6b 00 ff 	andi r11,r11,0xff
  10071c:	a0 81 20 00 	and r4,r4,r1
  100720:	78 05 00 10 	mvhi r5,0x10
  100724:	38 a5 c6 e0 	ori r5,r5,0xc6e0
  100728:	28 a1 00 00 	lw r1,(r5+0)
  10072c:	3d 6b 00 17 	sli r11,r11,23
  100730:	3d 8c 00 1f 	sli r12,r12,31
  100734:	a0 81 20 00 	and r4,r4,r1
  100738:	b8 8b 08 00 	or r1,r4,r11
  10073c:	b8 2c 08 00 	or r1,r1,r12
  100740:	2b 9d 00 04 	lw ra,(sp+4)
  100744:	2b 8b 00 10 	lw r11,(sp+16)
  100748:	2b 8c 00 0c 	lw r12,(sp+12)
  10074c:	2b 8d 00 08 	lw r13,(sp+8)
  100750:	37 9c 00 10 	addi sp,sp,16
  100754:	c3 a0 00 00 	ret
  100758:	c8 8b 08 00 	sub r1,r4,r11
  10075c:	4c 01 00 56 	bge r0,r1,1008b4 <__addsf3+0x338>
  100760:	45 60 00 26 	be r11,r0,1007f8 <__addsf3+0x27c>
  100764:	34 02 00 ff 	mvi r2,255
  100768:	44 82 ff a3 	be r4,r2,1005f4 <__addsf3+0x78>
  10076c:	78 02 04 00 	mvhi r2,0x400
  100770:	b8 a2 28 00 	or r5,r5,r2
  100774:	34 02 00 1b 	mvi r2,27
  100778:	34 03 00 01 	mvi r3,1
  10077c:	48 22 00 06 	bg r1,r2,100794 <__addsf3+0x218>
  100780:	c8 01 18 00 	sub r3,r0,r1
  100784:	bc a3 18 00 	sl r3,r5,r3
  100788:	80 a1 08 00 	sru r1,r5,r1
  10078c:	7c 63 00 00 	cmpnei r3,r3,0
  100790:	b8 61 18 00 	or r3,r3,r1
  100794:	b4 67 18 00 	add r3,r3,r7
  100798:	b8 80 58 00 	mv r11,r4
  10079c:	78 01 04 00 	mvhi r1,0x400
  1007a0:	a0 61 08 00 	and r1,r3,r1
  1007a4:	35 62 00 01 	addi r2,r11,1
  1007a8:	b8 c0 60 00 	mv r12,r6
  1007ac:	44 20 ff bc 	be r1,r0,10069c <__addsf3+0x120>
  1007b0:	35 6b 00 01 	addi r11,r11,1
  1007b4:	34 01 00 ff 	mvi r1,255
  1007b8:	45 61 00 88 	be r11,r1,1009d8 <__addsf3+0x45c>
  1007bc:	78 05 00 10 	mvhi r5,0x10
  1007c0:	38 a5 c6 e4 	ori r5,r5,0xc6e4
  1007c4:	28 a4 00 00 	lw r4,(r5+0)
  1007c8:	20 61 00 01 	andi r1,r3,0x1
  1007cc:	35 62 00 01 	addi r2,r11,1
  1007d0:	a0 64 18 00 	and r3,r3,r4
  1007d4:	00 63 00 01 	srui r3,r3,1
  1007d8:	b8 c0 60 00 	mv r12,r6
  1007dc:	b8 23 18 00 	or r3,r1,r3
  1007e0:	e3 ff ff af 	bi 10069c <__addsf3+0x120>
  1007e4:	34 82 00 01 	addi r2,r4,1
  1007e8:	b8 e0 18 00 	mv r3,r7
  1007ec:	b8 80 58 00 	mv r11,r4
  1007f0:	b8 c0 60 00 	mv r12,r6
  1007f4:	e3 ff ff aa 	bi 10069c <__addsf3+0x120>
  1007f8:	44 ab ff fb 	be r5,r11,1007e4 <__addsf3+0x268>
  1007fc:	34 21 ff ff 	addi r1,r1,-1
  100800:	b4 a7 18 00 	add r3,r5,r7
  100804:	b8 80 58 00 	mv r11,r4
  100808:	44 20 ff e5 	be r1,r0,10079c <__addsf3+0x220>
  10080c:	34 02 00 ff 	mvi r2,255
  100810:	5c 82 ff d9 	bne r4,r2,100774 <__addsf3+0x1f8>
  100814:	e3 ff ff 78 	bi 1005f4 <__addsf3+0x78>
  100818:	78 01 00 10 	mvhi r1,0x10
  10081c:	38 21 c6 e0 	ori r1,r1,0xc6e0
  100820:	28 24 00 00 	lw r4,(r1+0)
  100824:	21 6b 00 ff 	andi r11,r11,0xff
  100828:	a0 64 20 00 	and r4,r3,r4
  10082c:	e3 ff ff bd 	bi 100720 <__addsf3+0x1a4>
  100830:	78 02 00 10 	mvhi r2,0x10
  100834:	38 42 c6 e0 	ori r2,r2,0xc6e0
  100838:	28 44 00 00 	lw r4,(r2+0)
  10083c:	a0 64 20 00 	and r4,r3,r4
  100840:	e3 ff ff b8 	bi 100720 <__addsf3+0x1a4>
  100844:	5c 20 00 32 	bne r1,r0,10090c <__addsf3+0x390>
  100848:	34 82 00 01 	addi r2,r4,1
  10084c:	20 42 00 ff 	andi r2,r2,0xff
  100850:	34 01 00 01 	mvi r1,1
  100854:	48 41 00 09 	bg r2,r1,100878 <__addsf3+0x2fc>
  100858:	5c 80 00 79 	bne r4,r0,100a3c <__addsf3+0x4c0>
  10085c:	5c e4 00 97 	bne r7,r4,100ab8 <__addsf3+0x53c>
  100860:	44 a7 00 3f 	be r5,r7,10095c <__addsf3+0x3e0>
  100864:	b8 a0 18 00 	mv r3,r5
  100868:	b9 00 60 00 	mv r12,r8
  10086c:	34 02 00 01 	mvi r2,1
  100870:	34 0b 00 00 	mvi r11,0
  100874:	e3 ff ff 8a 	bi 10069c <__addsf3+0x120>
  100878:	c8 e5 68 00 	sub r13,r7,r5
  10087c:	78 01 04 00 	mvhi r1,0x400
  100880:	a1 a1 08 00 	and r1,r13,r1
  100884:	44 20 00 33 	be r1,r0,100950 <__addsf3+0x3d4>
  100888:	c8 a7 68 00 	sub r13,r5,r7
  10088c:	b8 80 58 00 	mv r11,r4
  100890:	b9 00 60 00 	mv r12,r8
  100894:	e3 ff ff 74 	bi 100664 <__addsf3+0xe8>
  100898:	78 04 00 10 	mvhi r4,0x10
  10089c:	38 84 c6 e4 	ori r4,r4,0xc6e4
  1008a0:	28 83 00 00 	lw r3,(r4+0)
  1008a4:	c9 61 58 00 	sub r11,r11,r1
  1008a8:	35 62 00 01 	addi r2,r11,1
  1008ac:	a1 a3 18 00 	and r3,r13,r3
  1008b0:	e3 ff ff 7b 	bi 10069c <__addsf3+0x120>
  1008b4:	5c 20 00 4d 	bne r1,r0,1009e8 <__addsf3+0x46c>
  1008b8:	34 8b 00 01 	addi r11,r4,1
  1008bc:	21 62 00 ff 	andi r2,r11,0xff
  1008c0:	34 01 00 01 	mvi r1,1
  1008c4:	48 41 00 2b 	bg r2,r1,100970 <__addsf3+0x3f4>
  1008c8:	5c 80 00 87 	bne r4,r0,100ae4 <__addsf3+0x568>
  1008cc:	44 e4 00 9d 	be r7,r4,100b40 <__addsf3+0x5c4>
  1008d0:	44 a0 00 a1 	be r5,r0,100b54 <__addsf3+0x5d8>
  1008d4:	b4 a7 18 00 	add r3,r5,r7
  1008d8:	78 01 04 00 	mvhi r1,0x400
  1008dc:	a0 61 08 00 	and r1,r3,r1
  1008e0:	b8 c0 60 00 	mv r12,r6
  1008e4:	34 02 00 01 	mvi r2,1
  1008e8:	34 0b 00 00 	mvi r11,0
  1008ec:	44 20 ff 6c 	be r1,r0,10069c <__addsf3+0x120>
  1008f0:	78 04 00 10 	mvhi r4,0x10
  1008f4:	38 84 c6 e4 	ori r4,r4,0xc6e4
  1008f8:	28 81 00 00 	lw r1,(r4+0)
  1008fc:	34 02 00 02 	mvi r2,2
  100900:	34 0b 00 01 	mvi r11,1
  100904:	a0 61 18 00 	and r3,r3,r1
  100908:	e3 ff ff 65 	bi 10069c <__addsf3+0x120>
  10090c:	c8 01 08 00 	sub r1,r0,r1
  100910:	44 80 00 23 	be r4,r0,10099c <__addsf3+0x420>
  100914:	34 02 00 ff 	mvi r2,255
  100918:	45 62 00 2b 	be r11,r2,1009c4 <__addsf3+0x448>
  10091c:	78 02 04 00 	mvhi r2,0x400
  100920:	b8 e2 38 00 	or r7,r7,r2
  100924:	34 02 00 1b 	mvi r2,27
  100928:	34 03 00 01 	mvi r3,1
  10092c:	48 22 00 06 	bg r1,r2,100944 <__addsf3+0x3c8>
  100930:	c8 01 18 00 	sub r3,r0,r1
  100934:	bc e3 18 00 	sl r3,r7,r3
  100938:	80 e1 08 00 	sru r1,r7,r1
  10093c:	7c 63 00 00 	cmpnei r3,r3,0
  100940:	b8 61 18 00 	or r3,r3,r1
  100944:	c8 a3 18 00 	sub r3,r5,r3
  100948:	b9 00 60 00 	mv r12,r8
  10094c:	e3 ff ff 3e 	bi 100644 <__addsf3+0xc8>
  100950:	b8 80 58 00 	mv r11,r4
  100954:	b8 c0 60 00 	mv r12,r6
  100958:	5d a1 ff 43 	bne r13,r1,100664 <__addsf3+0xe8>
  10095c:	34 0c 00 00 	mvi r12,0
  100960:	34 02 00 01 	mvi r2,1
  100964:	34 03 00 04 	mvi r3,4
  100968:	34 0b 00 00 	mvi r11,0
  10096c:	e3 ff ff 51 	bi 1006b0 <__addsf3+0x134>
  100970:	34 01 00 ff 	mvi r1,255
  100974:	b8 c0 60 00 	mv r12,r6
  100978:	34 02 01 00 	mvi r2,256
  10097c:	34 03 00 04 	mvi r3,4
  100980:	45 61 ff 4c 	be r11,r1,1006b0 <__addsf3+0x134>
  100984:	b4 a7 28 00 	add r5,r5,r7
  100988:	00 a1 00 01 	srui r1,r5,1
  10098c:	20 a5 00 01 	andi r5,r5,0x1
  100990:	b8 a1 18 00 	or r3,r5,r1
  100994:	34 82 00 02 	addi r2,r4,2
  100998:	e3 ff ff 41 	bi 10069c <__addsf3+0x120>
  10099c:	35 62 00 01 	addi r2,r11,1
  1009a0:	b8 a0 18 00 	mv r3,r5
  1009a4:	b9 00 60 00 	mv r12,r8
  1009a8:	44 e4 ff 3d 	be r7,r4,10069c <__addsf3+0x120>
  1009ac:	34 21 ff ff 	addi r1,r1,-1
  1009b0:	c8 a7 18 00 	sub r3,r5,r7
  1009b4:	b9 00 60 00 	mv r12,r8
  1009b8:	44 20 ff 23 	be r1,r0,100644 <__addsf3+0xc8>
  1009bc:	34 02 00 ff 	mvi r2,255
  1009c0:	5d 62 ff d9 	bne r11,r2,100924 <__addsf3+0x3a8>
  1009c4:	b8 a0 18 00 	mv r3,r5
  1009c8:	b9 00 60 00 	mv r12,r8
  1009cc:	34 02 01 00 	mvi r2,256
  1009d0:	34 0b 00 ff 	mvi r11,255
  1009d4:	e3 ff ff 32 	bi 10069c <__addsf3+0x120>
  1009d8:	b8 c0 60 00 	mv r12,r6
  1009dc:	34 02 01 00 	mvi r2,256
  1009e0:	34 03 00 04 	mvi r3,4
  1009e4:	e3 ff ff 33 	bi 1006b0 <__addsf3+0x134>
  1009e8:	c8 01 08 00 	sub r1,r0,r1
  1009ec:	5c 80 00 1d 	bne r4,r0,100a60 <__addsf3+0x4e4>
  1009f0:	35 62 00 01 	addi r2,r11,1
  1009f4:	b8 a0 18 00 	mv r3,r5
  1009f8:	b8 c0 60 00 	mv r12,r6
  1009fc:	44 e4 ff 28 	be r7,r4,10069c <__addsf3+0x120>
  100a00:	34 21 ff ff 	addi r1,r1,-1
  100a04:	b4 a7 18 00 	add r3,r5,r7
  100a08:	44 20 ff 65 	be r1,r0,10079c <__addsf3+0x220>
  100a0c:	34 02 00 ff 	mvi r2,255
  100a10:	45 62 00 42 	be r11,r2,100b18 <__addsf3+0x59c>
  100a14:	34 02 00 1b 	mvi r2,27
  100a18:	34 03 00 01 	mvi r3,1
  100a1c:	48 22 00 06 	bg r1,r2,100a34 <__addsf3+0x4b8>
  100a20:	c8 01 18 00 	sub r3,r0,r1
  100a24:	bc e3 18 00 	sl r3,r7,r3
  100a28:	80 e1 08 00 	sru r1,r7,r1
  100a2c:	7c 63 00 00 	cmpnei r3,r3,0
  100a30:	b8 61 18 00 	or r3,r3,r1
  100a34:	b4 65 18 00 	add r3,r3,r5
  100a38:	e3 ff ff 59 	bi 10079c <__addsf3+0x220>
  100a3c:	5c e0 00 0e 	bne r7,r0,100a74 <__addsf3+0x4f8>
  100a40:	5c a7 ff e1 	bne r5,r7,1009c4 <__addsf3+0x448>
  100a44:	78 01 00 10 	mvhi r1,0x10
  100a48:	38 21 c6 ec 	ori r1,r1,0xc6ec
  100a4c:	34 0c 00 00 	mvi r12,0
  100a50:	34 02 01 00 	mvi r2,256
  100a54:	28 23 00 00 	lw r3,(r1+0)
  100a58:	34 0b 00 ff 	mvi r11,255
  100a5c:	e3 ff ff 15 	bi 1006b0 <__addsf3+0x134>
  100a60:	34 02 00 ff 	mvi r2,255
  100a64:	45 62 00 2d 	be r11,r2,100b18 <__addsf3+0x59c>
  100a68:	78 02 04 00 	mvhi r2,0x400
  100a6c:	b8 e2 38 00 	or r7,r7,r2
  100a70:	e3 ff ff e9 	bi 100a14 <__addsf3+0x498>
  100a74:	44 a0 fe e0 	be r5,r0,1005f4 <__addsf3+0x78>
  100a78:	00 e7 00 03 	srui r7,r7,3
  100a7c:	78 01 00 40 	mvhi r1,0x40
  100a80:	a0 e1 10 00 	and r2,r7,r1
  100a84:	b8 e0 18 00 	mv r3,r7
  100a88:	b8 c0 60 00 	mv r12,r6
  100a8c:	44 40 00 07 	be r2,r0,100aa8 <__addsf3+0x52c>
  100a90:	00 a3 00 03 	srui r3,r5,3
  100a94:	b9 00 60 00 	mv r12,r8
  100a98:	a0 61 08 00 	and r1,r3,r1
  100a9c:	44 20 00 03 	be r1,r0,100aa8 <__addsf3+0x52c>
  100aa0:	b8 e0 18 00 	mv r3,r7
  100aa4:	b8 c0 60 00 	mv r12,r6
  100aa8:	3c 63 00 03 	sli r3,r3,3
  100aac:	34 02 01 00 	mvi r2,256
  100ab0:	34 0b 00 ff 	mvi r11,255
  100ab4:	e3 ff fe fa 	bi 10069c <__addsf3+0x120>
  100ab8:	b8 e0 18 00 	mv r3,r7
  100abc:	44 a0 00 1d 	be r5,r0,100b30 <__addsf3+0x5b4>
  100ac0:	c8 e5 18 00 	sub r3,r7,r5
  100ac4:	78 01 04 00 	mvhi r1,0x400
  100ac8:	a0 61 08 00 	and r1,r3,r1
  100acc:	44 20 00 18 	be r1,r0,100b2c <__addsf3+0x5b0>
  100ad0:	c8 a7 18 00 	sub r3,r5,r7
  100ad4:	b9 00 60 00 	mv r12,r8
  100ad8:	34 02 00 01 	mvi r2,1
  100adc:	34 0b 00 00 	mvi r11,0
  100ae0:	e3 ff fe ef 	bi 10069c <__addsf3+0x120>
  100ae4:	44 e0 00 0d 	be r7,r0,100b18 <__addsf3+0x59c>
  100ae8:	44 a0 fe c3 	be r5,r0,1005f4 <__addsf3+0x78>
  100aec:	00 e7 00 03 	srui r7,r7,3
  100af0:	78 01 00 40 	mvhi r1,0x40
  100af4:	a0 e1 10 00 	and r2,r7,r1
  100af8:	b8 e0 18 00 	mv r3,r7
  100afc:	b8 c0 60 00 	mv r12,r6
  100b00:	44 40 ff ea 	be r2,r0,100aa8 <__addsf3+0x52c>
  100b04:	00 a3 00 03 	srui r3,r5,3
  100b08:	a0 61 08 00 	and r1,r3,r1
  100b0c:	44 20 ff e7 	be r1,r0,100aa8 <__addsf3+0x52c>
  100b10:	b8 e0 18 00 	mv r3,r7
  100b14:	e3 ff ff e5 	bi 100aa8 <__addsf3+0x52c>
  100b18:	b8 a0 18 00 	mv r3,r5
  100b1c:	b8 c0 60 00 	mv r12,r6
  100b20:	34 02 01 00 	mvi r2,256
  100b24:	34 0b 00 ff 	mvi r11,255
  100b28:	e3 ff fe dd 	bi 10069c <__addsf3+0x120>
  100b2c:	44 61 ff 8c 	be r3,r1,10095c <__addsf3+0x3e0>
  100b30:	b8 c0 60 00 	mv r12,r6
  100b34:	34 02 00 01 	mvi r2,1
  100b38:	34 0b 00 00 	mvi r11,0
  100b3c:	e3 ff fe d8 	bi 10069c <__addsf3+0x120>
  100b40:	b8 a0 18 00 	mv r3,r5
  100b44:	b8 c0 60 00 	mv r12,r6
  100b48:	34 02 00 01 	mvi r2,1
  100b4c:	34 0b 00 00 	mvi r11,0
  100b50:	e3 ff fe d3 	bi 10069c <__addsf3+0x120>
  100b54:	b8 e0 18 00 	mv r3,r7
  100b58:	b8 c0 60 00 	mv r12,r6
  100b5c:	34 02 00 01 	mvi r2,1
  100b60:	34 0b 00 00 	mvi r11,0
  100b64:	e3 ff fe ce 	bi 10069c <__addsf3+0x120>

00100b68 <__divsf3>:
  100b68:	37 9c ff dc 	addi sp,sp,-36
  100b6c:	5b 8b 00 24 	sw (sp+36),r11
  100b70:	5b 8c 00 20 	sw (sp+32),r12
  100b74:	5b 8d 00 1c 	sw (sp+28),r13
  100b78:	5b 8e 00 18 	sw (sp+24),r14
  100b7c:	5b 8f 00 14 	sw (sp+20),r15
  100b80:	5b 90 00 10 	sw (sp+16),r16
  100b84:	5b 91 00 0c 	sw (sp+12),r17
  100b88:	5b 92 00 08 	sw (sp+8),r18
  100b8c:	5b 9d 00 04 	sw (sp+4),ra
  100b90:	b8 40 60 00 	mv r12,r2
  100b94:	78 02 00 10 	mvhi r2,0x10
  100b98:	38 42 c6 e0 	ori r2,r2,0xc6e0
  100b9c:	00 2b 00 17 	srui r11,r1,23
  100ba0:	28 4d 00 00 	lw r13,(r2+0)
  100ba4:	21 6b 00 ff 	andi r11,r11,0xff
  100ba8:	00 2f 00 1f 	srui r15,r1,31
  100bac:	a0 2d 68 00 	and r13,r1,r13
  100bb0:	45 60 00 60 	be r11,r0,100d30 <__divsf3+0x1c8>
  100bb4:	34 02 00 ff 	mvi r2,255
  100bb8:	45 62 00 58 	be r11,r2,100d18 <__divsf3+0x1b0>
  100bbc:	78 03 00 80 	mvhi r3,0x80
  100bc0:	b9 a3 68 00 	or r13,r13,r3
  100bc4:	3d ad 00 03 	sli r13,r13,3
  100bc8:	35 6b ff 81 	addi r11,r11,-127
  100bcc:	34 0e 00 00 	mvi r14,0
  100bd0:	34 11 00 00 	mvi r17,0
  100bd4:	78 01 00 10 	mvhi r1,0x10
  100bd8:	38 21 c6 e0 	ori r1,r1,0xc6e0
  100bdc:	01 84 00 17 	srui r4,r12,23
  100be0:	28 23 00 00 	lw r3,(r1+0)
  100be4:	20 84 00 ff 	andi r4,r4,0xff
  100be8:	01 90 00 1f 	srui r16,r12,31
  100bec:	a1 83 60 00 	and r12,r12,r3
  100bf0:	44 80 00 40 	be r4,r0,100cf0 <__divsf3+0x188>
  100bf4:	7d 82 00 00 	cmpnei r2,r12,0
  100bf8:	34 03 00 ff 	mvi r3,255
  100bfc:	34 42 00 02 	addi r2,r2,2
  100c00:	44 83 00 06 	be r4,r3,100c18 <__divsf3+0xb0>
  100c04:	78 02 00 80 	mvhi r2,0x80
  100c08:	b9 82 60 00 	or r12,r12,r2
  100c0c:	3d 8c 00 03 	sli r12,r12,3
  100c10:	34 84 ff 81 	addi r4,r4,-127
  100c14:	34 02 00 00 	mvi r2,0
  100c18:	b8 4e 70 00 	or r14,r2,r14
  100c1c:	78 03 00 10 	mvhi r3,0x10
  100c20:	3d ce 00 02 	sli r14,r14,2
  100c24:	38 63 c6 f4 	ori r3,r3,0xc6f4
  100c28:	b4 6e 18 00 	add r3,r3,r14
  100c2c:	28 63 00 00 	lw r3,(r3+0)
  100c30:	9a 0f 28 00 	xor r5,r16,r15
  100c34:	c0 60 00 00 	b r3
  100c38:	b9 a0 60 00 	mv r12,r13
  100c3c:	b9 e0 28 00 	mv r5,r15
  100c40:	ba 20 10 00 	mv r2,r17
  100c44:	34 01 00 02 	mvi r1,2
  100c48:	44 41 00 15 	be r2,r1,100c9c <__divsf3+0x134>
  100c4c:	34 01 00 03 	mvi r1,3
  100c50:	44 41 00 93 	be r2,r1,100e9c <__divsf3+0x334>
  100c54:	34 01 00 01 	mvi r1,1
  100c58:	44 41 00 46 	be r2,r1,100d70 <__divsf3+0x208>
  100c5c:	36 41 00 7f 	addi r1,r18,127
  100c60:	4c 01 00 40 	bge r0,r1,100d60 <__divsf3+0x1f8>
  100c64:	21 83 00 0f 	andi r3,r12,0xf
  100c68:	34 02 00 04 	mvi r2,4
  100c6c:	44 62 00 02 	be r3,r2,100c74 <__divsf3+0x10c>
  100c70:	35 8c 00 04 	addi r12,r12,4
  100c74:	78 02 08 00 	mvhi r2,0x800
  100c78:	a1 82 10 00 	and r2,r12,r2
  100c7c:	44 40 00 06 	be r2,r0,100c94 <__divsf3+0x12c>
  100c80:	78 03 00 10 	mvhi r3,0x10
  100c84:	38 63 c6 f0 	ori r3,r3,0xc6f0
  100c88:	28 62 00 00 	lw r2,(r3+0)
  100c8c:	34 21 00 01 	addi r1,r1,1
  100c90:	a1 82 60 00 	and r12,r12,r2
  100c94:	34 02 00 fe 	mvi r2,254
  100c98:	4c 41 00 60 	bge r2,r1,100e18 <__divsf3+0x2b0>
  100c9c:	34 01 00 ff 	mvi r1,255
  100ca0:	34 0d 00 00 	mvi r13,0
  100ca4:	78 03 00 10 	mvhi r3,0x10
  100ca8:	38 63 c6 e0 	ori r3,r3,0xc6e0
  100cac:	28 62 00 00 	lw r2,(r3+0)
  100cb0:	3c 21 00 17 	sli r1,r1,23
  100cb4:	3c a5 00 1f 	sli r5,r5,31
  100cb8:	a1 a2 68 00 	and r13,r13,r2
  100cbc:	b9 a1 08 00 	or r1,r13,r1
  100cc0:	b8 25 08 00 	or r1,r1,r5
  100cc4:	2b 9d 00 04 	lw ra,(sp+4)
  100cc8:	2b 8b 00 24 	lw r11,(sp+36)
  100ccc:	2b 8c 00 20 	lw r12,(sp+32)
  100cd0:	2b 8d 00 1c 	lw r13,(sp+28)
  100cd4:	2b 8e 00 18 	lw r14,(sp+24)
  100cd8:	2b 8f 00 14 	lw r15,(sp+20)
  100cdc:	2b 90 00 10 	lw r16,(sp+16)
  100ce0:	2b 91 00 0c 	lw r17,(sp+12)
  100ce4:	2b 92 00 08 	lw r18,(sp+8)
  100ce8:	37 9c 00 24 	addi sp,sp,36
  100cec:	c3 a0 00 00 	ret
  100cf0:	34 02 00 01 	mvi r2,1
  100cf4:	45 84 ff c9 	be r12,r4,100c18 <__divsf3+0xb0>
  100cf8:	b9 80 08 00 	mv r1,r12
  100cfc:	f8 00 04 3e 	calli 101df4 <__clzsi2>
  100d00:	34 22 ff fb 	addi r2,r1,-5
  100d04:	34 04 ff 8a 	mvi r4,-118
  100d08:	bd 82 60 00 	sl r12,r12,r2
  100d0c:	c8 81 20 00 	sub r4,r4,r1
  100d10:	34 02 00 00 	mvi r2,0
  100d14:	e3 ff ff c1 	bi 100c18 <__divsf3+0xb0>
  100d18:	34 0e 00 0c 	mvi r14,12
  100d1c:	34 11 00 03 	mvi r17,3
  100d20:	5d a0 ff ad 	bne r13,r0,100bd4 <__divsf3+0x6c>
  100d24:	34 0e 00 08 	mvi r14,8
  100d28:	34 11 00 02 	mvi r17,2
  100d2c:	e3 ff ff aa 	bi 100bd4 <__divsf3+0x6c>
  100d30:	34 0e 00 04 	mvi r14,4
  100d34:	34 11 00 01 	mvi r17,1
  100d38:	45 ab ff a7 	be r13,r11,100bd4 <__divsf3+0x6c>
  100d3c:	b9 a0 08 00 	mv r1,r13
  100d40:	f8 00 04 2d 	calli 101df4 <__clzsi2>
  100d44:	34 22 ff fb 	addi r2,r1,-5
  100d48:	34 0b ff 8a 	mvi r11,-118
  100d4c:	bd a2 68 00 	sl r13,r13,r2
  100d50:	c9 61 58 00 	sub r11,r11,r1
  100d54:	34 0e 00 00 	mvi r14,0
  100d58:	34 11 00 00 	mvi r17,0
  100d5c:	e3 ff ff 9e 	bi 100bd4 <__divsf3+0x6c>
  100d60:	34 02 00 01 	mvi r2,1
  100d64:	c8 41 08 00 	sub r1,r2,r1
  100d68:	34 02 00 1b 	mvi r2,27
  100d6c:	4c 41 00 3a 	bge r2,r1,100e54 <__divsf3+0x2ec>
  100d70:	34 01 00 00 	mvi r1,0
  100d74:	34 0d 00 00 	mvi r13,0
  100d78:	e3 ff ff cb 	bi 100ca4 <__divsf3+0x13c>
  100d7c:	3d a3 00 05 	sli r3,r13,5
  100d80:	3d 8c 00 05 	sli r12,r12,5
  100d84:	c9 64 90 00 	sub r18,r11,r4
  100d88:	55 83 00 2f 	bgu r12,r3,100e44 <__divsf3+0x2dc>
  100d8c:	c8 6c 18 00 	sub r3,r3,r12
  100d90:	34 04 00 1a 	mvi r4,26
  100d94:	34 02 00 01 	mvi r2,1
  100d98:	b8 60 30 00 	mv r6,r3
  100d9c:	3c 63 00 01 	sli r3,r3,1
  100da0:	00 c6 00 1f 	srui r6,r6,31
  100da4:	f0 6c 38 00 	cmpgeu r7,r3,r12
  100da8:	3c 42 00 01 	sli r2,r2,1
  100dac:	b8 e6 30 00 	or r6,r7,r6
  100db0:	44 c0 00 03 	be r6,r0,100dbc <__divsf3+0x254>
  100db4:	c8 6c 18 00 	sub r3,r3,r12
  100db8:	38 42 00 01 	ori r2,r2,0x1
  100dbc:	34 84 ff ff 	addi r4,r4,-1
  100dc0:	48 80 ff f6 	bg r4,r0,100d98 <__divsf3+0x230>
  100dc4:	7c 6c 00 00 	cmpnei r12,r3,0
  100dc8:	b9 82 60 00 	or r12,r12,r2
  100dcc:	e3 ff ff a4 	bi 100c5c <__divsf3+0xf4>
  100dd0:	ba 00 28 00 	mv r5,r16
  100dd4:	e3 ff ff 9c 	bi 100c44 <__divsf3+0xdc>
  100dd8:	78 01 00 10 	mvhi r1,0x10
  100ddc:	38 21 c6 e0 	ori r1,r1,0xc6e0
  100de0:	28 2d 00 00 	lw r13,(r1+0)
  100de4:	34 05 00 00 	mvi r5,0
  100de8:	78 03 00 10 	mvhi r3,0x10
  100dec:	38 63 c6 e0 	ori r3,r3,0xc6e0
  100df0:	28 62 00 00 	lw r2,(r3+0)
  100df4:	34 01 00 ff 	mvi r1,255
  100df8:	a1 a2 68 00 	and r13,r13,r2
  100dfc:	e3 ff ff aa 	bi 100ca4 <__divsf3+0x13c>
  100e00:	78 01 00 40 	mvhi r1,0x40
  100e04:	a1 a1 10 00 	and r2,r13,r1
  100e08:	5c 40 00 08 	bne r2,r0,100e28 <__divsf3+0x2c0>
  100e0c:	b9 a1 68 00 	or r13,r13,r1
  100e10:	b9 e0 28 00 	mv r5,r15
  100e14:	e3 ff ff f5 	bi 100de8 <__divsf3+0x280>
  100e18:	3d 8c 00 06 	sli r12,r12,6
  100e1c:	20 21 00 ff 	andi r1,r1,0xff
  100e20:	01 8d 00 09 	srui r13,r12,9
  100e24:	e3 ff ff a0 	bi 100ca4 <__divsf3+0x13c>
  100e28:	a1 81 10 00 	and r2,r12,r1
  100e2c:	b9 a1 68 00 	or r13,r13,r1
  100e30:	b9 e0 28 00 	mv r5,r15
  100e34:	5c 40 ff ed 	bne r2,r0,100de8 <__divsf3+0x280>
  100e38:	b9 81 68 00 	or r13,r12,r1
  100e3c:	ba 00 28 00 	mv r5,r16
  100e40:	e3 ff ff ea 	bi 100de8 <__divsf3+0x280>
  100e44:	36 52 ff ff 	addi r18,r18,-1
  100e48:	34 04 00 1b 	mvi r4,27
  100e4c:	34 02 00 00 	mvi r2,0
  100e50:	e3 ff ff d2 	bi 100d98 <__divsf3+0x230>
  100e54:	c8 01 10 00 	sub r2,r0,r1
  100e58:	bd 82 10 00 	sl r2,r12,r2
  100e5c:	81 81 60 00 	sru r12,r12,r1
  100e60:	7c 41 00 00 	cmpnei r1,r2,0
  100e64:	34 02 00 04 	mvi r2,4
  100e68:	b8 2c 08 00 	or r1,r1,r12
  100e6c:	20 23 00 0f 	andi r3,r1,0xf
  100e70:	44 62 00 02 	be r3,r2,100e78 <__divsf3+0x310>
  100e74:	34 21 00 04 	addi r1,r1,4
  100e78:	78 02 04 00 	mvhi r2,0x400
  100e7c:	a0 22 10 00 	and r2,r1,r2
  100e80:	3c 21 00 06 	sli r1,r1,6
  100e84:	00 2d 00 09 	srui r13,r1,9
  100e88:	34 01 00 00 	mvi r1,0
  100e8c:	44 40 ff 86 	be r2,r0,100ca4 <__divsf3+0x13c>
  100e90:	34 01 00 01 	mvi r1,1
  100e94:	34 0d 00 00 	mvi r13,0
  100e98:	e3 ff ff 83 	bi 100ca4 <__divsf3+0x13c>
  100e9c:	78 0d 00 40 	mvhi r13,0x40
  100ea0:	b9 8d 68 00 	or r13,r12,r13
  100ea4:	e3 ff ff d1 	bi 100de8 <__divsf3+0x280>

00100ea8 <__mulsf3>:
  100ea8:	37 9c ff d8 	addi sp,sp,-40
  100eac:	5b 8b 00 24 	sw (sp+36),r11
  100eb0:	5b 8c 00 20 	sw (sp+32),r12
  100eb4:	5b 8d 00 1c 	sw (sp+28),r13
  100eb8:	5b 8e 00 18 	sw (sp+24),r14
  100ebc:	5b 8f 00 14 	sw (sp+20),r15
  100ec0:	5b 90 00 10 	sw (sp+16),r16
  100ec4:	5b 91 00 0c 	sw (sp+12),r17
  100ec8:	5b 92 00 08 	sw (sp+8),r18
  100ecc:	5b 9d 00 04 	sw (sp+4),ra
  100ed0:	78 03 00 10 	mvhi r3,0x10
  100ed4:	38 63 c6 e0 	ori r3,r3,0xc6e0
  100ed8:	00 2b 00 17 	srui r11,r1,23
  100edc:	28 6d 00 00 	lw r13,(r3+0)
  100ee0:	21 6b 00 ff 	andi r11,r11,0xff
  100ee4:	00 2f 00 1f 	srui r15,r1,31
  100ee8:	a0 2d 68 00 	and r13,r1,r13
  100eec:	45 60 00 32 	be r11,r0,100fb4 <__mulsf3+0x10c>
  100ef0:	34 01 00 ff 	mvi r1,255
  100ef4:	45 61 00 2a 	be r11,r1,100f9c <__mulsf3+0xf4>
  100ef8:	78 01 00 80 	mvhi r1,0x80
  100efc:	b9 a1 68 00 	or r13,r13,r1
  100f00:	3d ad 00 03 	sli r13,r13,3
  100f04:	35 6b ff 81 	addi r11,r11,-127
  100f08:	34 0e 00 00 	mvi r14,0
  100f0c:	34 11 00 00 	mvi r17,0
  100f10:	78 01 00 10 	mvhi r1,0x10
  100f14:	38 21 c6 e0 	ori r1,r1,0xc6e0
  100f18:	00 44 00 17 	srui r4,r2,23
  100f1c:	28 2c 00 00 	lw r12,(r1+0)
  100f20:	20 84 00 ff 	andi r4,r4,0xff
  100f24:	00 50 00 1f 	srui r16,r2,31
  100f28:	a0 4c 60 00 	and r12,r2,r12
  100f2c:	44 80 00 12 	be r4,r0,100f74 <__mulsf3+0xcc>
  100f30:	7d 83 00 00 	cmpnei r3,r12,0
  100f34:	34 01 00 ff 	mvi r1,255
  100f38:	34 63 00 02 	addi r3,r3,2
  100f3c:	44 81 00 06 	be r4,r1,100f54 <__mulsf3+0xac>
  100f40:	78 01 00 80 	mvhi r1,0x80
  100f44:	b9 81 60 00 	or r12,r12,r1
  100f48:	3d 8c 00 03 	sli r12,r12,3
  100f4c:	34 84 ff 81 	addi r4,r4,-127
  100f50:	34 03 00 00 	mvi r3,0
  100f54:	b8 6e 70 00 	or r14,r3,r14
  100f58:	78 02 00 10 	mvhi r2,0x10
  100f5c:	3d ce 00 02 	sli r14,r14,2
  100f60:	38 42 c7 34 	ori r2,r2,0xc734
  100f64:	b4 4e 10 00 	add r2,r2,r14
  100f68:	28 41 00 00 	lw r1,(r2+0)
  100f6c:	9a 0f 28 00 	xor r5,r16,r15
  100f70:	c0 20 00 00 	b r1
  100f74:	34 03 00 01 	mvi r3,1
  100f78:	45 84 ff f7 	be r12,r4,100f54 <__mulsf3+0xac>
  100f7c:	b9 80 08 00 	mv r1,r12
  100f80:	f8 00 03 9d 	calli 101df4 <__clzsi2>
  100f84:	34 22 ff fb 	addi r2,r1,-5
  100f88:	34 04 ff 8a 	mvi r4,-118
  100f8c:	bd 82 60 00 	sl r12,r12,r2
  100f90:	c8 81 20 00 	sub r4,r4,r1
  100f94:	34 03 00 00 	mvi r3,0
  100f98:	e3 ff ff ef 	bi 100f54 <__mulsf3+0xac>
  100f9c:	34 0e 00 0c 	mvi r14,12
  100fa0:	34 11 00 03 	mvi r17,3
  100fa4:	5d a0 ff db 	bne r13,r0,100f10 <__mulsf3+0x68>
  100fa8:	34 0e 00 08 	mvi r14,8
  100fac:	34 11 00 02 	mvi r17,2
  100fb0:	e3 ff ff d8 	bi 100f10 <__mulsf3+0x68>
  100fb4:	34 0e 00 04 	mvi r14,4
  100fb8:	34 11 00 01 	mvi r17,1
  100fbc:	45 ab ff d5 	be r13,r11,100f10 <__mulsf3+0x68>
  100fc0:	b9 a0 08 00 	mv r1,r13
  100fc4:	5b 82 00 28 	sw (sp+40),r2
  100fc8:	f8 00 03 8b 	calli 101df4 <__clzsi2>
  100fcc:	34 23 ff fb 	addi r3,r1,-5
  100fd0:	34 0b ff 8a 	mvi r11,-118
  100fd4:	bd a3 68 00 	sl r13,r13,r3
  100fd8:	c9 61 58 00 	sub r11,r11,r1
  100fdc:	34 0e 00 00 	mvi r14,0
  100fe0:	34 11 00 00 	mvi r17,0
  100fe4:	2b 82 00 28 	lw r2,(sp+40)
  100fe8:	e3 ff ff ca 	bi 100f10 <__mulsf3+0x68>
  100fec:	b9 e0 08 00 	mv r1,r15
  100ff0:	b9 a0 10 00 	mv r2,r13
  100ff4:	b9 e0 28 00 	mv r5,r15
  100ff8:	ba 20 18 00 	mv r3,r17
  100ffc:	34 07 00 02 	mvi r7,2
  101000:	34 06 00 ff 	mvi r6,255
  101004:	34 04 00 00 	mvi r4,0
  101008:	44 67 00 19 	be r3,r7,10106c <__mulsf3+0x1c4>
  10100c:	34 07 00 03 	mvi r7,3
  101010:	44 67 00 3e 	be r3,r7,101108 <__mulsf3+0x260>
  101014:	34 07 00 01 	mvi r7,1
  101018:	34 06 00 00 	mvi r6,0
  10101c:	44 67 00 14 	be r3,r7,10106c <__mulsf3+0x1c4>
  101020:	36 46 00 7f 	addi r6,r18,127
  101024:	4c 06 00 73 	bge r0,r6,1011f0 <__mulsf3+0x348>
  101028:	20 43 00 0f 	andi r3,r2,0xf
  10102c:	34 01 00 04 	mvi r1,4
  101030:	44 61 00 02 	be r3,r1,101038 <__mulsf3+0x190>
  101034:	34 42 00 04 	addi r2,r2,4
  101038:	78 01 08 00 	mvhi r1,0x800
  10103c:	a0 41 08 00 	and r1,r2,r1
  101040:	44 20 00 06 	be r1,r0,101058 <__mulsf3+0x1b0>
  101044:	78 03 00 10 	mvhi r3,0x10
  101048:	38 63 c6 f0 	ori r3,r3,0xc6f0
  10104c:	28 61 00 00 	lw r1,(r3+0)
  101050:	34 c6 00 01 	addi r6,r6,1
  101054:	a0 41 10 00 	and r2,r2,r1
  101058:	34 01 00 fe 	mvi r1,254
  10105c:	4c 26 00 5d 	bge r1,r6,1011d0 <__mulsf3+0x328>
  101060:	b8 a0 08 00 	mv r1,r5
  101064:	34 06 00 ff 	mvi r6,255
  101068:	34 04 00 00 	mvi r4,0
  10106c:	78 03 00 10 	mvhi r3,0x10
  101070:	38 63 c6 e0 	ori r3,r3,0xc6e0
  101074:	28 62 00 00 	lw r2,(r3+0)
  101078:	3c c6 00 17 	sli r6,r6,23
  10107c:	3c 21 00 1f 	sli r1,r1,31
  101080:	a0 82 20 00 	and r4,r4,r2
  101084:	b8 86 20 00 	or r4,r4,r6
  101088:	b8 81 08 00 	or r1,r4,r1
  10108c:	2b 9d 00 04 	lw ra,(sp+4)
  101090:	2b 8b 00 24 	lw r11,(sp+36)
  101094:	2b 8c 00 20 	lw r12,(sp+32)
  101098:	2b 8d 00 1c 	lw r13,(sp+28)
  10109c:	2b 8e 00 18 	lw r14,(sp+24)
  1010a0:	2b 8f 00 14 	lw r15,(sp+20)
  1010a4:	2b 90 00 10 	lw r16,(sp+16)
  1010a8:	2b 91 00 0c 	lw r17,(sp+12)
  1010ac:	2b 92 00 08 	lw r18,(sp+8)
  1010b0:	37 9c 00 28 	addi sp,sp,40
  1010b4:	c3 a0 00 00 	ret
  1010b8:	b8 a0 08 00 	mv r1,r5
  1010bc:	b9 a0 10 00 	mv r2,r13
  1010c0:	ba 20 18 00 	mv r3,r17
  1010c4:	e3 ff ff ce 	bi 100ffc <__mulsf3+0x154>
  1010c8:	78 03 00 10 	mvhi r3,0x10
  1010cc:	38 63 c6 e0 	ori r3,r3,0xc6e0
  1010d0:	28 62 00 00 	lw r2,(r3+0)
  1010d4:	34 01 00 00 	mvi r1,0
  1010d8:	34 05 00 00 	mvi r5,0
  1010dc:	34 03 00 03 	mvi r3,3
  1010e0:	e3 ff ff c7 	bi 100ffc <__mulsf3+0x154>
  1010e4:	78 01 00 40 	mvhi r1,0x40
  1010e8:	a1 a1 18 00 	and r3,r13,r1
  1010ec:	b9 a0 10 00 	mv r2,r13
  1010f0:	b9 e0 28 00 	mv r5,r15
  1010f4:	44 60 00 05 	be r3,r0,101108 <__mulsf3+0x260>
  1010f8:	a1 81 08 00 	and r1,r12,r1
  1010fc:	b9 80 10 00 	mv r2,r12
  101100:	ba 00 28 00 	mv r5,r16
  101104:	5c 20 00 38 	bne r1,r0,1011e4 <__mulsf3+0x33c>
  101108:	78 04 00 40 	mvhi r4,0x40
  10110c:	b8 44 20 00 	or r4,r2,r4
  101110:	78 02 00 10 	mvhi r2,0x10
  101114:	38 42 c6 e0 	ori r2,r2,0xc6e0
  101118:	28 41 00 00 	lw r1,(r2+0)
  10111c:	34 06 00 ff 	mvi r6,255
  101120:	a0 81 20 00 	and r4,r4,r1
  101124:	b8 a0 08 00 	mv r1,r5
  101128:	e3 ff ff d1 	bi 10106c <__mulsf3+0x1c4>
  10112c:	21 a1 ff ff 	andi r1,r13,0xffff
  101130:	21 83 ff ff 	andi r3,r12,0xffff
  101134:	88 61 10 00 	mul r2,r3,r1
  101138:	01 8c 00 10 	srui r12,r12,16
  10113c:	01 ad 00 10 	srui r13,r13,16
  101140:	89 81 08 00 	mul r1,r12,r1
  101144:	88 6d 18 00 	mul r3,r3,r13
  101148:	00 46 00 10 	srui r6,r2,16
  10114c:	b4 8b 90 00 	add r18,r4,r11
  101150:	b4 26 08 00 	add r1,r1,r6
  101154:	b4 23 08 00 	add r1,r1,r3
  101158:	89 8d 60 00 	mul r12,r12,r13
  10115c:	50 23 00 03 	bgeu r1,r3,101168 <__mulsf3+0x2c0>
  101160:	78 03 00 01 	mvhi r3,0x1
  101164:	b5 83 60 00 	add r12,r12,r3
  101168:	3c 23 00 10 	sli r3,r1,16
  10116c:	20 42 ff ff 	andi r2,r2,0xffff
  101170:	b4 62 18 00 	add r3,r3,r2
  101174:	3c 62 00 06 	sli r2,r3,6
  101178:	00 21 00 10 	srui r1,r1,16
  10117c:	7c 42 00 00 	cmpnei r2,r2,0
  101180:	b5 81 60 00 	add r12,r12,r1
  101184:	00 63 00 1a 	srui r3,r3,26
  101188:	3d 8c 00 06 	sli r12,r12,6
  10118c:	b8 43 10 00 	or r2,r2,r3
  101190:	b8 4c 10 00 	or r2,r2,r12
  101194:	78 01 08 00 	mvhi r1,0x800
  101198:	a0 41 08 00 	and r1,r2,r1
  10119c:	44 20 ff a1 	be r1,r0,101020 <__mulsf3+0x178>
  1011a0:	00 41 00 01 	srui r1,r2,1
  1011a4:	20 42 00 01 	andi r2,r2,0x1
  1011a8:	36 52 00 01 	addi r18,r18,1
  1011ac:	b8 41 10 00 	or r2,r2,r1
  1011b0:	e3 ff ff 9c 	bi 101020 <__mulsf3+0x178>
  1011b4:	b8 a0 08 00 	mv r1,r5
  1011b8:	b9 80 10 00 	mv r2,r12
  1011bc:	e3 ff ff 90 	bi 100ffc <__mulsf3+0x154>
  1011c0:	ba 00 08 00 	mv r1,r16
  1011c4:	b9 80 10 00 	mv r2,r12
  1011c8:	ba 00 28 00 	mv r5,r16
  1011cc:	e3 ff ff 8c 	bi 100ffc <__mulsf3+0x154>
  1011d0:	3c 42 00 06 	sli r2,r2,6
  1011d4:	20 c6 00 ff 	andi r6,r6,0xff
  1011d8:	00 44 00 09 	srui r4,r2,9
  1011dc:	b8 a0 08 00 	mv r1,r5
  1011e0:	e3 ff ff a3 	bi 10106c <__mulsf3+0x1c4>
  1011e4:	b9 a0 10 00 	mv r2,r13
  1011e8:	b9 e0 28 00 	mv r5,r15
  1011ec:	e3 ff ff c7 	bi 101108 <__mulsf3+0x260>
  1011f0:	34 01 00 01 	mvi r1,1
  1011f4:	c8 26 30 00 	sub r6,r1,r6
  1011f8:	34 01 00 1b 	mvi r1,27
  1011fc:	4c 26 00 05 	bge r1,r6,101210 <__mulsf3+0x368>
  101200:	b8 a0 08 00 	mv r1,r5
  101204:	34 06 00 00 	mvi r6,0
  101208:	34 04 00 00 	mvi r4,0
  10120c:	e3 ff ff 98 	bi 10106c <__mulsf3+0x1c4>
  101210:	c8 06 08 00 	sub r1,r0,r6
  101214:	bc 41 08 00 	sl r1,r2,r1
  101218:	80 46 30 00 	sru r6,r2,r6
  10121c:	7c 22 00 00 	cmpnei r2,r1,0
  101220:	34 01 00 04 	mvi r1,4
  101224:	b8 46 10 00 	or r2,r2,r6
  101228:	20 43 00 0f 	andi r3,r2,0xf
  10122c:	44 61 00 02 	be r3,r1,101234 <__mulsf3+0x38c>
  101230:	34 42 00 04 	addi r2,r2,4
  101234:	78 01 04 00 	mvhi r1,0x400
  101238:	a0 41 08 00 	and r1,r2,r1
  10123c:	44 20 00 05 	be r1,r0,101250 <__mulsf3+0x3a8>
  101240:	b8 a0 08 00 	mv r1,r5
  101244:	34 06 00 01 	mvi r6,1
  101248:	34 04 00 00 	mvi r4,0
  10124c:	e3 ff ff 88 	bi 10106c <__mulsf3+0x1c4>
  101250:	3c 42 00 06 	sli r2,r2,6
  101254:	b8 a0 08 00 	mv r1,r5
  101258:	00 44 00 09 	srui r4,r2,9
  10125c:	34 06 00 00 	mvi r6,0
  101260:	e3 ff ff 83 	bi 10106c <__mulsf3+0x1c4>

00101264 <__floatsisf>:
  101264:	37 9c ff f4 	addi sp,sp,-12
  101268:	5b 8b 00 0c 	sw (sp+12),r11
  10126c:	5b 8c 00 08 	sw (sp+8),r12
  101270:	5b 9d 00 04 	sw (sp+4),ra
  101274:	b8 20 58 00 	mv r11,r1
  101278:	34 03 00 00 	mvi r3,0
  10127c:	34 01 00 00 	mvi r1,0
  101280:	34 02 00 00 	mvi r2,0
  101284:	45 60 00 13 	be r11,r0,1012d0 <__floatsisf+0x6c>
  101288:	01 6c 00 1f 	srui r12,r11,31
  10128c:	45 80 00 02 	be r12,r0,101294 <__floatsisf+0x30>
  101290:	c8 0b 58 00 	sub r11,r0,r11
  101294:	b9 60 08 00 	mv r1,r11
  101298:	f8 00 02 d7 	calli 101df4 <__clzsi2>
  10129c:	34 02 00 9e 	mvi r2,158
  1012a0:	c8 41 08 00 	sub r1,r2,r1
  1012a4:	34 03 00 96 	mvi r3,150
  1012a8:	b9 60 10 00 	mv r2,r11
  1012ac:	48 23 00 16 	bg r1,r3,101304 <__floatsisf+0xa0>
  1012b0:	78 04 00 10 	mvhi r4,0x10
  1012b4:	38 84 c6 e0 	ori r4,r4,0xc6e0
  1012b8:	c8 61 10 00 	sub r2,r3,r1
  1012bc:	28 83 00 00 	lw r3,(r4+0)
  1012c0:	bd 62 10 00 	sl r2,r11,r2
  1012c4:	20 21 00 ff 	andi r1,r1,0xff
  1012c8:	a0 43 10 00 	and r2,r2,r3
  1012cc:	b9 80 18 00 	mv r3,r12
  1012d0:	78 05 00 10 	mvhi r5,0x10
  1012d4:	38 a5 c6 e0 	ori r5,r5,0xc6e0
  1012d8:	28 a4 00 00 	lw r4,(r5+0)
  1012dc:	3c 21 00 17 	sli r1,r1,23
  1012e0:	3c 63 00 1f 	sli r3,r3,31
  1012e4:	a0 44 10 00 	and r2,r2,r4
  1012e8:	b8 41 08 00 	or r1,r2,r1
  1012ec:	b8 23 08 00 	or r1,r1,r3
  1012f0:	2b 9d 00 04 	lw ra,(sp+4)
  1012f4:	2b 8b 00 0c 	lw r11,(sp+12)
  1012f8:	2b 8c 00 08 	lw r12,(sp+8)
  1012fc:	37 9c 00 0c 	addi sp,sp,12
  101300:	c3 a0 00 00 	ret
  101304:	34 03 00 99 	mvi r3,153
  101308:	4c 61 00 08 	bge r3,r1,101328 <__floatsisf+0xc4>
  10130c:	34 03 00 b9 	mvi r3,185
  101310:	c8 61 18 00 	sub r3,r3,r1
  101314:	bd 63 18 00 	sl r3,r11,r3
  101318:	34 24 ff 67 	addi r4,r1,-153
  10131c:	81 64 10 00 	sru r2,r11,r4
  101320:	7c 63 00 00 	cmpnei r3,r3,0
  101324:	b8 62 10 00 	or r2,r3,r2
  101328:	34 03 00 99 	mvi r3,153
  10132c:	c8 61 18 00 	sub r3,r3,r1
  101330:	4c 03 00 02 	bge r0,r3,101338 <__floatsisf+0xd4>
  101334:	bc 43 10 00 	sl r2,r2,r3
  101338:	78 05 00 10 	mvhi r5,0x10
  10133c:	38 a5 c6 e4 	ori r5,r5,0xc6e4
  101340:	28 a3 00 00 	lw r3,(r5+0)
  101344:	20 44 00 0f 	andi r4,r2,0xf
  101348:	a0 43 10 00 	and r2,r2,r3
  10134c:	34 03 00 04 	mvi r3,4
  101350:	44 83 00 02 	be r4,r3,101358 <__floatsisf+0xf4>
  101354:	34 42 00 04 	addi r2,r2,4
  101358:	78 03 04 00 	mvhi r3,0x400
  10135c:	a0 43 18 00 	and r3,r2,r3
  101360:	44 60 00 08 	be r3,r0,101380 <__floatsisf+0x11c>
  101364:	78 04 00 10 	mvhi r4,0x10
  101368:	38 84 c6 e4 	ori r4,r4,0xc6e4
  10136c:	28 83 00 00 	lw r3,(r4+0)
  101370:	34 21 00 01 	addi r1,r1,1
  101374:	a0 43 10 00 	and r2,r2,r3
  101378:	34 03 00 ff 	mvi r3,255
  10137c:	44 23 00 19 	be r1,r3,1013e0 <__floatsisf+0x17c>
  101380:	00 42 00 03 	srui r2,r2,3
  101384:	34 23 00 01 	addi r3,r1,1
  101388:	34 04 00 01 	mvi r4,1
  10138c:	20 63 00 ff 	andi r3,r3,0xff
  101390:	ec 83 18 00 	cmpge r3,r4,r3
  101394:	7c 44 00 00 	cmpnei r4,r2,0
  101398:	a0 64 18 00 	and r3,r3,r4
  10139c:	44 60 00 0a 	be r3,r0,1013c4 <__floatsisf+0x160>
  1013a0:	78 04 00 10 	mvhi r4,0x10
  1013a4:	78 03 00 40 	mvhi r3,0x40
  1013a8:	38 84 c6 e0 	ori r4,r4,0xc6e0
  1013ac:	b8 43 10 00 	or r2,r2,r3
  1013b0:	28 83 00 00 	lw r3,(r4+0)
  1013b4:	20 21 00 ff 	andi r1,r1,0xff
  1013b8:	a0 43 10 00 	and r2,r2,r3
  1013bc:	b9 80 18 00 	mv r3,r12
  1013c0:	e3 ff ff c4 	bi 1012d0 <__floatsisf+0x6c>
  1013c4:	78 05 00 10 	mvhi r5,0x10
  1013c8:	38 a5 c6 e0 	ori r5,r5,0xc6e0
  1013cc:	28 a4 00 00 	lw r4,(r5+0)
  1013d0:	20 21 00 ff 	andi r1,r1,0xff
  1013d4:	b9 80 18 00 	mv r3,r12
  1013d8:	a0 44 10 00 	and r2,r2,r4
  1013dc:	e3 ff ff bd 	bi 1012d0 <__floatsisf+0x6c>
  1013e0:	b9 80 18 00 	mv r3,r12
  1013e4:	34 01 00 ff 	mvi r1,255
  1013e8:	34 02 00 00 	mvi r2,0
  1013ec:	e3 ff ff b9 	bi 1012d0 <__floatsisf+0x6c>

001013f0 <__divdf3>:
  1013f0:	37 9c ff bc 	addi sp,sp,-68
  1013f4:	5b 8b 00 38 	sw (sp+56),r11
  1013f8:	5b 8c 00 34 	sw (sp+52),r12
  1013fc:	5b 8d 00 30 	sw (sp+48),r13
  101400:	5b 8e 00 2c 	sw (sp+44),r14
  101404:	5b 8f 00 28 	sw (sp+40),r15
  101408:	5b 90 00 24 	sw (sp+36),r16
  10140c:	5b 91 00 20 	sw (sp+32),r17
  101410:	5b 92 00 1c 	sw (sp+28),r18
  101414:	5b 93 00 18 	sw (sp+24),r19
  101418:	5b 94 00 14 	sw (sp+20),r20
  10141c:	5b 95 00 10 	sw (sp+16),r21
  101420:	5b 96 00 0c 	sw (sp+12),r22
  101424:	5b 97 00 08 	sw (sp+8),r23
  101428:	5b 9d 00 04 	sw (sp+4),ra
  10142c:	78 05 00 10 	mvhi r5,0x10
  101430:	38 a5 c7 74 	ori r5,r5,0xc774
  101434:	00 2d 00 14 	srui r13,r1,20
  101438:	28 ab 00 00 	lw r11,(r5+0)
  10143c:	21 ad 07 ff 	andi r13,r13,0x7ff
  101440:	00 30 00 1f 	srui r16,r1,31
  101444:	a0 2b 58 00 	and r11,r1,r11
  101448:	45 a0 00 83 	be r13,r0,101654 <__divdf3+0x264>
  10144c:	34 05 07 ff 	mvi r5,2047
  101450:	45 a5 00 77 	be r13,r5,10162c <__divdf3+0x23c>
  101454:	78 05 00 10 	mvhi r5,0x10
  101458:	b9 65 58 00 	or r11,r11,r5
  10145c:	3d 6b 00 03 	sli r11,r11,3
  101460:	00 45 00 1d 	srui r5,r2,29
  101464:	3c 4f 00 03 	sli r15,r2,3
  101468:	b9 65 58 00 	or r11,r11,r5
  10146c:	35 ad fc 01 	addi r13,r13,-1023
  101470:	34 0e 00 00 	mvi r14,0
  101474:	34 12 00 00 	mvi r18,0
  101478:	78 01 00 10 	mvhi r1,0x10
  10147c:	38 21 c7 74 	ori r1,r1,0xc774
  101480:	00 65 00 14 	srui r5,r3,20
  101484:	28 2c 00 00 	lw r12,(r1+0)
  101488:	20 a5 07 ff 	andi r5,r5,0x7ff
  10148c:	00 71 00 1f 	srui r17,r3,31
  101490:	a0 6c 60 00 	and r12,r3,r12
  101494:	44 a0 00 51 	be r5,r0,1015d8 <__divdf3+0x1e8>
  101498:	34 02 07 ff 	mvi r2,2047
  10149c:	44 a2 00 48 	be r5,r2,1015bc <__divdf3+0x1cc>
  1014a0:	78 02 00 10 	mvhi r2,0x10
  1014a4:	b9 82 60 00 	or r12,r12,r2
  1014a8:	3d 8c 00 03 	sli r12,r12,3
  1014ac:	00 82 00 1d 	srui r2,r4,29
  1014b0:	3c 84 00 03 	sli r4,r4,3
  1014b4:	b9 82 60 00 	or r12,r12,r2
  1014b8:	34 a5 fc 01 	addi r5,r5,-1023
  1014bc:	34 06 00 00 	mvi r6,0
  1014c0:	b8 ce 70 00 	or r14,r6,r14
  1014c4:	3d ce 00 02 	sli r14,r14,2
  1014c8:	78 03 00 10 	mvhi r3,0x10
  1014cc:	38 63 c7 7c 	ori r3,r3,0xc77c
  1014d0:	b4 6e 18 00 	add r3,r3,r14
  1014d4:	28 62 00 00 	lw r2,(r3+0)
  1014d8:	9a 30 70 00 	xor r14,r17,r16
  1014dc:	c0 40 00 00 	b r2
  1014e0:	b9 e0 10 00 	mv r2,r15
  1014e4:	ba 00 70 00 	mv r14,r16
  1014e8:	ba 40 30 00 	mv r6,r18
  1014ec:	34 01 00 02 	mvi r1,2
  1014f0:	44 c1 00 18 	be r6,r1,101550 <__divdf3+0x160>
  1014f4:	34 01 00 03 	mvi r1,3
  1014f8:	44 c1 01 b4 	be r6,r1,101bc8 <__divdf3+0x7d8>
  1014fc:	34 01 00 01 	mvi r1,1
  101500:	44 c1 00 7c 	be r6,r1,1016f0 <__divdf3+0x300>
  101504:	36 c1 03 ff 	addi r1,r22,1023
  101508:	4c 01 00 76 	bge r0,r1,1016e0 <__divdf3+0x2f0>
  10150c:	20 44 00 0f 	andi r4,r2,0xf
  101510:	34 03 00 04 	mvi r3,4
  101514:	44 83 00 05 	be r4,r3,101528 <__divdf3+0x138>
  101518:	34 43 00 04 	addi r3,r2,4
  10151c:	f4 43 20 00 	cmpgu r4,r2,r3
  101520:	b8 60 10 00 	mv r2,r3
  101524:	b5 64 58 00 	add r11,r11,r4
  101528:	78 03 01 00 	mvhi r3,0x100
  10152c:	a1 63 18 00 	and r3,r11,r3
  101530:	44 60 00 06 	be r3,r0,101548 <__divdf3+0x158>
  101534:	78 04 00 10 	mvhi r4,0x10
  101538:	38 84 c7 78 	ori r4,r4,0xc778
  10153c:	28 83 00 00 	lw r3,(r4+0)
  101540:	34 21 00 01 	addi r1,r1,1
  101544:	a1 63 58 00 	and r11,r11,r3
  101548:	34 03 07 fe 	mvi r3,2046
  10154c:	4c 61 01 20 	bge r3,r1,1019cc <__divdf3+0x5dc>
  101550:	34 01 07 ff 	mvi r1,2047
  101554:	34 0b 00 00 	mvi r11,0
  101558:	34 02 00 00 	mvi r2,0
  10155c:	78 04 00 10 	mvhi r4,0x10
  101560:	38 84 c7 74 	ori r4,r4,0xc774
  101564:	28 83 00 00 	lw r3,(r4+0)
  101568:	3c 21 00 14 	sli r1,r1,20
  10156c:	3d ce 00 1f 	sli r14,r14,31
  101570:	a1 63 58 00 	and r11,r11,r3
  101574:	b9 61 08 00 	or r1,r11,r1
  101578:	b8 2e 08 00 	or r1,r1,r14
  10157c:	2b 9d 00 04 	lw ra,(sp+4)
  101580:	2b 8b 00 38 	lw r11,(sp+56)
  101584:	2b 8c 00 34 	lw r12,(sp+52)
  101588:	2b 8d 00 30 	lw r13,(sp+48)
  10158c:	2b 8e 00 2c 	lw r14,(sp+44)
  101590:	2b 8f 00 28 	lw r15,(sp+40)
  101594:	2b 90 00 24 	lw r16,(sp+36)
  101598:	2b 91 00 20 	lw r17,(sp+32)
  10159c:	2b 92 00 1c 	lw r18,(sp+28)
  1015a0:	2b 93 00 18 	lw r19,(sp+24)
  1015a4:	2b 94 00 14 	lw r20,(sp+20)
  1015a8:	2b 95 00 10 	lw r21,(sp+16)
  1015ac:	2b 96 00 0c 	lw r22,(sp+12)
  1015b0:	2b 97 00 08 	lw r23,(sp+8)
  1015b4:	37 9c 00 44 	addi sp,sp,68
  1015b8:	c3 a0 00 00 	ret
  1015bc:	b9 84 10 00 	or r2,r12,r4
  1015c0:	34 06 00 03 	mvi r6,3
  1015c4:	5c 40 ff bf 	bne r2,r0,1014c0 <__divdf3+0xd0>
  1015c8:	34 0c 00 00 	mvi r12,0
  1015cc:	34 04 00 00 	mvi r4,0
  1015d0:	34 06 00 02 	mvi r6,2
  1015d4:	e3 ff ff bb 	bi 1014c0 <__divdf3+0xd0>
  1015d8:	b9 84 10 00 	or r2,r12,r4
  1015dc:	44 45 00 3d 	be r2,r5,1016d0 <__divdf3+0x2e0>
  1015e0:	45 80 01 2e 	be r12,r0,101a98 <__divdf3+0x6a8>
  1015e4:	b9 80 08 00 	mv r1,r12
  1015e8:	5b 84 00 3c 	sw (sp+60),r4
  1015ec:	f8 00 02 02 	calli 101df4 <__clzsi2>
  1015f0:	2b 84 00 3c 	lw r4,(sp+60)
  1015f4:	34 22 ff f5 	addi r2,r1,-11
  1015f8:	34 03 00 1c 	mvi r3,28
  1015fc:	48 43 01 23 	bg r2,r3,101a88 <__divdf3+0x698>
  101600:	34 03 00 1d 	mvi r3,29
  101604:	34 21 ff f8 	addi r1,r1,-8
  101608:	c8 62 18 00 	sub r3,r3,r2
  10160c:	80 83 18 00 	sru r3,r4,r3
  101610:	bd 81 60 00 	sl r12,r12,r1
  101614:	bc 81 20 00 	sl r4,r4,r1
  101618:	b8 6c 60 00 	or r12,r3,r12
  10161c:	34 05 fc 02 	mvi r5,-1022
  101620:	c8 a2 28 00 	sub r5,r5,r2
  101624:	34 06 00 00 	mvi r6,0
  101628:	e3 ff ff a6 	bi 1014c0 <__divdf3+0xd0>
  10162c:	b9 62 28 00 	or r5,r11,r2
  101630:	b8 40 78 00 	mv r15,r2
  101634:	34 0e 00 0c 	mvi r14,12
  101638:	34 12 00 03 	mvi r18,3
  10163c:	5c a0 ff 8f 	bne r5,r0,101478 <__divdf3+0x88>
  101640:	34 0e 00 08 	mvi r14,8
  101644:	34 0b 00 00 	mvi r11,0
  101648:	34 0f 00 00 	mvi r15,0
  10164c:	34 12 00 02 	mvi r18,2
  101650:	e3 ff ff 8a 	bi 101478 <__divdf3+0x88>
  101654:	b9 62 28 00 	or r5,r11,r2
  101658:	44 ad 00 19 	be r5,r13,1016bc <__divdf3+0x2cc>
  10165c:	45 60 01 19 	be r11,r0,101ac0 <__divdf3+0x6d0>
  101660:	b9 60 08 00 	mv r1,r11
  101664:	5b 82 00 44 	sw (sp+68),r2
  101668:	5b 83 00 40 	sw (sp+64),r3
  10166c:	5b 84 00 3c 	sw (sp+60),r4
  101670:	f8 00 01 e1 	calli 101df4 <__clzsi2>
  101674:	2b 82 00 44 	lw r2,(sp+68)
  101678:	2b 83 00 40 	lw r3,(sp+64)
  10167c:	2b 84 00 3c 	lw r4,(sp+60)
  101680:	34 25 ff f5 	addi r5,r1,-11
  101684:	34 06 00 1c 	mvi r6,28
  101688:	48 a6 01 0a 	bg r5,r6,101ab0 <__divdf3+0x6c0>
  10168c:	34 2f ff f8 	addi r15,r1,-8
  101690:	34 01 00 1d 	mvi r1,29
  101694:	c8 25 08 00 	sub r1,r1,r5
  101698:	bd 6f 58 00 	sl r11,r11,r15
  10169c:	80 41 08 00 	sru r1,r2,r1
  1016a0:	bc 4f 78 00 	sl r15,r2,r15
  1016a4:	b8 2b 58 00 	or r11,r1,r11
  1016a8:	34 0d fc 02 	mvi r13,-1022
  1016ac:	c9 a5 68 00 	sub r13,r13,r5
  1016b0:	34 0e 00 00 	mvi r14,0
  1016b4:	34 12 00 00 	mvi r18,0
  1016b8:	e3 ff ff 70 	bi 101478 <__divdf3+0x88>
  1016bc:	34 0e 00 04 	mvi r14,4
  1016c0:	34 0b 00 00 	mvi r11,0
  1016c4:	34 0f 00 00 	mvi r15,0
  1016c8:	34 12 00 01 	mvi r18,1
  1016cc:	e3 ff ff 6b 	bi 101478 <__divdf3+0x88>
  1016d0:	34 0c 00 00 	mvi r12,0
  1016d4:	34 04 00 00 	mvi r4,0
  1016d8:	34 06 00 01 	mvi r6,1
  1016dc:	e3 ff ff 79 	bi 1014c0 <__divdf3+0xd0>
  1016e0:	34 03 00 01 	mvi r3,1
  1016e4:	c8 61 08 00 	sub r1,r3,r1
  1016e8:	34 03 00 38 	mvi r3,56
  1016ec:	4c 61 01 0c 	bge r3,r1,101b1c <__divdf3+0x72c>
  1016f0:	34 01 00 00 	mvi r1,0
  1016f4:	34 0b 00 00 	mvi r11,0
  1016f8:	34 02 00 00 	mvi r2,0
  1016fc:	e3 ff ff 98 	bi 10155c <__divdf3+0x16c>
  101700:	78 05 00 10 	mvhi r5,0x10
  101704:	38 a5 c7 74 	ori r5,r5,0xc774
  101708:	28 ab 00 00 	lw r11,(r5+0)
  10170c:	34 0e 00 00 	mvi r14,0
  101710:	34 02 ff ff 	mvi r2,-1
  101714:	78 05 00 10 	mvhi r5,0x10
  101718:	38 a5 c7 74 	ori r5,r5,0xc774
  10171c:	28 a3 00 00 	lw r3,(r5+0)
  101720:	34 01 07 ff 	mvi r1,2047
  101724:	a1 63 58 00 	and r11,r11,r3
  101728:	e3 ff ff 8d 	bi 10155c <__divdf3+0x16c>
  10172c:	c9 a5 b0 00 	sub r22,r13,r5
  101730:	55 6c 00 05 	bgu r11,r12,101744 <__divdf3+0x354>
  101734:	f5 e4 10 00 	cmpgu r2,r15,r4
  101738:	e5 6c 08 00 	cmpe r1,r11,r12
  10173c:	a0 41 08 00 	and r1,r2,r1
  101740:	44 20 00 f3 	be r1,r0,101b0c <__divdf3+0x71c>
  101744:	3d 61 00 1f 	sli r1,r11,31
  101748:	01 f4 00 01 	srui r20,r15,1
  10174c:	01 6b 00 01 	srui r11,r11,1
  101750:	3d f5 00 1f 	sli r21,r15,31
  101754:	ba 81 a0 00 	or r20,r20,r1
  101758:	00 8d 00 18 	srui r13,r4,24
  10175c:	3d 8c 00 08 	sli r12,r12,8
  101760:	b9 60 08 00 	mv r1,r11
  101764:	b9 ac 68 00 	or r13,r13,r12
  101768:	01 b0 00 10 	srui r16,r13,16
  10176c:	3c 91 00 08 	sli r17,r4,8
  101770:	ba 00 10 00 	mv r2,r16
  101774:	f8 00 01 80 	calli 101d74 <__udivsi3>
  101778:	b8 20 90 00 	mv r18,r1
  10177c:	ba 00 10 00 	mv r2,r16
  101780:	b9 60 08 00 	mv r1,r11
  101784:	f8 00 01 8c 	calli 101db4 <__umodsi3>
  101788:	21 b3 ff ff 	andi r19,r13,0xffff
  10178c:	3c 21 00 10 	sli r1,r1,16
  101790:	02 84 00 10 	srui r4,r20,16
  101794:	8a 53 28 00 	mul r5,r18,r19
  101798:	b8 24 20 00 	or r4,r1,r4
  10179c:	50 85 00 07 	bgeu r4,r5,1017b8 <__divdf3+0x3c8>
  1017a0:	b4 8d 20 00 	add r4,r4,r13
  1017a4:	36 52 ff ff 	addi r18,r18,-1
  1017a8:	55 a4 00 04 	bgu r13,r4,1017b8 <__divdf3+0x3c8>
  1017ac:	50 85 00 03 	bgeu r4,r5,1017b8 <__divdf3+0x3c8>
  1017b0:	36 52 ff ff 	addi r18,r18,-1
  1017b4:	b4 8d 20 00 	add r4,r4,r13
  1017b8:	c8 85 58 00 	sub r11,r4,r5
  1017bc:	ba 00 10 00 	mv r2,r16
  1017c0:	b9 60 08 00 	mv r1,r11
  1017c4:	f8 00 01 6c 	calli 101d74 <__udivsi3>
  1017c8:	b8 20 60 00 	mv r12,r1
  1017cc:	ba 00 10 00 	mv r2,r16
  1017d0:	b9 60 08 00 	mv r1,r11
  1017d4:	f8 00 01 78 	calli 101db4 <__umodsi3>
  1017d8:	3c 21 00 10 	sli r1,r1,16
  1017dc:	89 93 30 00 	mul r6,r12,r19
  1017e0:	22 83 ff ff 	andi r3,r20,0xffff
  1017e4:	b8 23 18 00 	or r3,r1,r3
  1017e8:	50 66 00 07 	bgeu r3,r6,101804 <__divdf3+0x414>
  1017ec:	b4 6d 18 00 	add r3,r3,r13
  1017f0:	35 8c ff ff 	addi r12,r12,-1
  1017f4:	55 a3 00 04 	bgu r13,r3,101804 <__divdf3+0x414>
  1017f8:	50 66 00 03 	bgeu r3,r6,101804 <__divdf3+0x414>
  1017fc:	35 8c ff ff 	addi r12,r12,-1
  101800:	b4 6d 18 00 	add r3,r3,r13
  101804:	3e 4b 00 10 	sli r11,r18,16
  101808:	22 32 ff ff 	andi r18,r17,0xffff
  10180c:	b9 8b 58 00 	or r11,r12,r11
  101810:	21 65 ff ff 	andi r5,r11,0xffff
  101814:	01 64 00 10 	srui r4,r11,16
  101818:	88 b2 08 00 	mul r1,r5,r18
  10181c:	02 2c 00 10 	srui r12,r17,16
  101820:	88 92 10 00 	mul r2,r4,r18
  101824:	88 ac 28 00 	mul r5,r5,r12
  101828:	00 27 00 10 	srui r7,r1,16
  10182c:	c8 66 30 00 	sub r6,r3,r6
  101830:	b4 47 18 00 	add r3,r2,r7
  101834:	b4 65 28 00 	add r5,r3,r5
  101838:	88 8c 20 00 	mul r4,r4,r12
  10183c:	50 a2 00 03 	bgeu r5,r2,101848 <__divdf3+0x458>
  101840:	78 02 00 01 	mvhi r2,0x1
  101844:	b4 82 20 00 	add r4,r4,r2
  101848:	00 a3 00 10 	srui r3,r5,16
  10184c:	3c af 00 10 	sli r15,r5,16
  101850:	20 21 ff ff 	andi r1,r1,0xffff
  101854:	b4 83 20 00 	add r4,r4,r3
  101858:	b5 e1 78 00 	add r15,r15,r1
  10185c:	54 86 00 74 	bgu r4,r6,101a2c <__divdf3+0x63c>
  101860:	e4 c4 10 00 	cmpe r2,r6,r4
  101864:	f5 f5 08 00 	cmpgu r1,r15,r21
  101868:	ba a0 38 00 	mv r7,r21
  10186c:	a0 41 08 00 	and r1,r2,r1
  101870:	b8 c0 18 00 	mv r3,r6
  101874:	5c 20 00 6e 	bne r1,r0,101a2c <__divdf3+0x63c>
  101878:	c8 ef 78 00 	sub r15,r7,r15
  10187c:	f5 e7 38 00 	cmpgu r7,r15,r7
  101880:	c8 64 18 00 	sub r3,r3,r4
  101884:	c8 67 a0 00 	sub r20,r3,r7
  101888:	34 02 ff ff 	mvi r2,-1
  10188c:	46 8d ff 1e 	be r20,r13,101504 <__divdf3+0x114>
  101890:	ba 00 10 00 	mv r2,r16
  101894:	ba 80 08 00 	mv r1,r20
  101898:	f8 00 01 37 	calli 101d74 <__udivsi3>
  10189c:	b8 20 a8 00 	mv r21,r1
  1018a0:	ba 00 10 00 	mv r2,r16
  1018a4:	ba 80 08 00 	mv r1,r20
  1018a8:	f8 00 01 43 	calli 101db4 <__umodsi3>
  1018ac:	3c 21 00 10 	sli r1,r1,16
  1018b0:	01 e4 00 10 	srui r4,r15,16
  1018b4:	8a b3 10 00 	mul r2,r21,r19
  1018b8:	b8 24 20 00 	or r4,r1,r4
  1018bc:	50 82 00 07 	bgeu r4,r2,1018d8 <__divdf3+0x4e8>
  1018c0:	b4 8d 20 00 	add r4,r4,r13
  1018c4:	36 b5 ff ff 	addi r21,r21,-1
  1018c8:	55 a4 00 04 	bgu r13,r4,1018d8 <__divdf3+0x4e8>
  1018cc:	50 82 00 03 	bgeu r4,r2,1018d8 <__divdf3+0x4e8>
  1018d0:	36 b5 ff ff 	addi r21,r21,-1
  1018d4:	b4 8d 20 00 	add r4,r4,r13
  1018d8:	c8 82 b8 00 	sub r23,r4,r2
  1018dc:	ba e0 08 00 	mv r1,r23
  1018e0:	ba 00 10 00 	mv r2,r16
  1018e4:	f8 00 01 24 	calli 101d74 <__udivsi3>
  1018e8:	b8 20 a0 00 	mv r20,r1
  1018ec:	ba 00 10 00 	mv r2,r16
  1018f0:	ba e0 08 00 	mv r1,r23
  1018f4:	f8 00 01 30 	calli 101db4 <__umodsi3>
  1018f8:	3c 21 00 10 	sli r1,r1,16
  1018fc:	8a 93 98 00 	mul r19,r20,r19
  101900:	21 e3 ff ff 	andi r3,r15,0xffff
  101904:	b8 23 18 00 	or r3,r1,r3
  101908:	50 73 00 07 	bgeu r3,r19,101924 <__divdf3+0x534>
  10190c:	b4 6d 18 00 	add r3,r3,r13
  101910:	36 94 ff ff 	addi r20,r20,-1
  101914:	55 a3 00 04 	bgu r13,r3,101924 <__divdf3+0x534>
  101918:	50 73 00 03 	bgeu r3,r19,101924 <__divdf3+0x534>
  10191c:	36 94 ff ff 	addi r20,r20,-1
  101920:	b4 6d 18 00 	add r3,r3,r13
  101924:	3e a2 00 10 	sli r2,r21,16
  101928:	c8 73 18 00 	sub r3,r3,r19
  10192c:	ba 82 10 00 	or r2,r20,r2
  101930:	20 41 ff ff 	andi r1,r2,0xffff
  101934:	00 45 00 10 	srui r5,r2,16
  101938:	88 32 20 00 	mul r4,r1,r18
  10193c:	88 b2 90 00 	mul r18,r5,r18
  101940:	88 2c 08 00 	mul r1,r1,r12
  101944:	00 86 00 10 	srui r6,r4,16
  101948:	88 ac 60 00 	mul r12,r5,r12
  10194c:	b6 46 28 00 	add r5,r18,r6
  101950:	b4 a1 08 00 	add r1,r5,r1
  101954:	50 32 00 03 	bgeu r1,r18,101960 <__divdf3+0x570>
  101958:	78 05 00 01 	mvhi r5,0x1
  10195c:	b5 85 60 00 	add r12,r12,r5
  101960:	00 25 00 10 	srui r5,r1,16
  101964:	3c 21 00 10 	sli r1,r1,16
  101968:	20 84 ff ff 	andi r4,r4,0xffff
  10196c:	b5 85 60 00 	add r12,r12,r5
  101970:	b4 24 08 00 	add r1,r1,r4
  101974:	55 83 00 1d 	bgu r12,r3,1019e8 <__divdf3+0x5f8>
  101978:	7c 26 00 00 	cmpnei r6,r1,0
  10197c:	e4 6c 20 00 	cmpe r4,r3,r12
  101980:	b8 60 28 00 	mv r5,r3
  101984:	a0 c4 20 00 	and r4,r6,r4
  101988:	5c 80 00 18 	bne r4,r0,1019e8 <__divdf3+0x5f8>
  10198c:	fc ac 28 00 	cmpne r5,r5,r12
  101990:	b8 c5 30 00 	or r6,r6,r5
  101994:	44 c0 fe dc 	be r6,r0,101504 <__divdf3+0x114>
  101998:	38 42 00 01 	ori r2,r2,0x1
  10199c:	e3 ff fe da 	bi 101504 <__divdf3+0x114>
  1019a0:	b9 80 58 00 	mv r11,r12
  1019a4:	b8 80 10 00 	mv r2,r4
  1019a8:	ba 20 70 00 	mv r14,r17
  1019ac:	e3 ff fe d0 	bi 1014ec <__divdf3+0xfc>
  1019b0:	78 01 00 08 	mvhi r1,0x8
  1019b4:	a1 61 10 00 	and r2,r11,r1
  1019b8:	5c 40 00 4c 	bne r2,r0,101ae8 <__divdf3+0x6f8>
  1019bc:	b9 61 58 00 	or r11,r11,r1
  1019c0:	ba 00 70 00 	mv r14,r16
  1019c4:	b9 e0 10 00 	mv r2,r15
  1019c8:	e3 ff ff 53 	bi 101714 <__divdf3+0x324>
  1019cc:	3d 63 00 1d 	sli r3,r11,29
  1019d0:	00 42 00 03 	srui r2,r2,3
  1019d4:	3d 6b 00 09 	sli r11,r11,9
  1019d8:	b8 62 10 00 	or r2,r3,r2
  1019dc:	01 6b 00 0c 	srui r11,r11,12
  1019e0:	20 21 07 ff 	andi r1,r1,0x7ff
  1019e4:	e3 ff fe de 	bi 10155c <__divdf3+0x16c>
  1019e8:	b4 6d 28 00 	add r5,r3,r13
  1019ec:	34 42 ff ff 	addi r2,r2,-1
  1019f0:	50 ad 00 03 	bgeu r5,r13,1019fc <__divdf3+0x60c>
  1019f4:	fe 21 30 00 	cmpne r6,r17,r1
  1019f8:	e3 ff ff e5 	bi 10198c <__divdf3+0x59c>
  1019fc:	55 85 00 05 	bgu r12,r5,101a10 <__divdf3+0x620>
  101a00:	e5 85 20 00 	cmpe r4,r12,r5
  101a04:	f4 31 18 00 	cmpgu r3,r1,r17
  101a08:	a0 83 18 00 	and r3,r4,r3
  101a0c:	44 60 ff fa 	be r3,r0,1019f4 <__divdf3+0x604>
  101a10:	3e 26 00 01 	sli r6,r17,1
  101a14:	34 42 ff ff 	addi r2,r2,-1
  101a18:	f6 26 88 00 	cmpgu r17,r17,r6
  101a1c:	fc 26 30 00 	cmpne r6,r1,r6
  101a20:	b6 2d 68 00 	add r13,r17,r13
  101a24:	b4 ad 28 00 	add r5,r5,r13
  101a28:	e3 ff ff d9 	bi 10198c <__divdf3+0x59c>
  101a2c:	b6 b1 10 00 	add r2,r21,r17
  101a30:	f6 22 18 00 	cmpgu r3,r17,r2
  101a34:	35 6b ff ff 	addi r11,r11,-1
  101a38:	b4 6d 18 00 	add r3,r3,r13
  101a3c:	b4 66 18 00 	add r3,r3,r6
  101a40:	54 6d 00 06 	bgu r3,r13,101a58 <__divdf3+0x668>
  101a44:	e4 6d 28 00 	cmpe r5,r3,r13
  101a48:	f0 51 08 00 	cmpgeu r1,r2,r17
  101a4c:	b8 40 38 00 	mv r7,r2
  101a50:	a0 a1 08 00 	and r1,r5,r1
  101a54:	44 20 ff 89 	be r1,r0,101878 <__divdf3+0x488>
  101a58:	54 83 00 06 	bgu r4,r3,101a70 <__divdf3+0x680>
  101a5c:	e4 83 28 00 	cmpe r5,r4,r3
  101a60:	f5 e2 08 00 	cmpgu r1,r15,r2
  101a64:	b8 40 38 00 	mv r7,r2
  101a68:	a0 a1 08 00 	and r1,r5,r1
  101a6c:	44 20 ff 83 	be r1,r0,101878 <__divdf3+0x488>
  101a70:	b4 51 38 00 	add r7,r2,r17
  101a74:	f6 27 08 00 	cmpgu r1,r17,r7
  101a78:	35 6b ff ff 	addi r11,r11,-1
  101a7c:	b4 2d 08 00 	add r1,r1,r13
  101a80:	b4 61 18 00 	add r3,r3,r1
  101a84:	e3 ff ff 7d 	bi 101878 <__divdf3+0x488>
  101a88:	34 2c ff d8 	addi r12,r1,-40
  101a8c:	bc 8c 60 00 	sl r12,r4,r12
  101a90:	34 04 00 00 	mvi r4,0
  101a94:	e3 ff fe e2 	bi 10161c <__divdf3+0x22c>
  101a98:	b8 80 08 00 	mv r1,r4
  101a9c:	5b 84 00 3c 	sw (sp+60),r4
  101aa0:	f8 00 00 d5 	calli 101df4 <__clzsi2>
  101aa4:	34 21 00 20 	addi r1,r1,32
  101aa8:	2b 84 00 3c 	lw r4,(sp+60)
  101aac:	e3 ff fe d2 	bi 1015f4 <__divdf3+0x204>
  101ab0:	34 2b ff d8 	addi r11,r1,-40
  101ab4:	bc 4b 58 00 	sl r11,r2,r11
  101ab8:	34 0f 00 00 	mvi r15,0
  101abc:	e3 ff fe fb 	bi 1016a8 <__divdf3+0x2b8>
  101ac0:	b8 40 08 00 	mv r1,r2
  101ac4:	5b 82 00 44 	sw (sp+68),r2
  101ac8:	5b 83 00 40 	sw (sp+64),r3
  101acc:	5b 84 00 3c 	sw (sp+60),r4
  101ad0:	f8 00 00 c9 	calli 101df4 <__clzsi2>
  101ad4:	34 21 00 20 	addi r1,r1,32
  101ad8:	2b 84 00 3c 	lw r4,(sp+60)
  101adc:	2b 83 00 40 	lw r3,(sp+64)
  101ae0:	2b 82 00 44 	lw r2,(sp+68)
  101ae4:	e3 ff fe e7 	bi 101680 <__divdf3+0x290>
  101ae8:	a1 81 18 00 	and r3,r12,r1
  101aec:	b9 61 58 00 	or r11,r11,r1
  101af0:	ba 00 70 00 	mv r14,r16
  101af4:	b9 e0 10 00 	mv r2,r15
  101af8:	5c 60 ff 07 	bne r3,r0,101714 <__divdf3+0x324>
  101afc:	b9 81 58 00 	or r11,r12,r1
  101b00:	ba 20 70 00 	mv r14,r17
  101b04:	b8 80 10 00 	mv r2,r4
  101b08:	e3 ff ff 03 	bi 101714 <__divdf3+0x324>
  101b0c:	36 d6 ff ff 	addi r22,r22,-1
  101b10:	b9 e0 a0 00 	mv r20,r15
  101b14:	34 15 00 00 	mvi r21,0
  101b18:	e3 ff ff 10 	bi 101758 <__divdf3+0x368>
  101b1c:	34 03 00 1f 	mvi r3,31
  101b20:	48 23 00 18 	bg r1,r3,101b80 <__divdf3+0x790>
  101b24:	34 03 00 20 	mvi r3,32
  101b28:	c8 61 18 00 	sub r3,r3,r1
  101b2c:	bc 43 20 00 	sl r4,r2,r3
  101b30:	80 41 10 00 	sru r2,r2,r1
  101b34:	bd 63 18 00 	sl r3,r11,r3
  101b38:	7c 84 00 00 	cmpnei r4,r4,0
  101b3c:	b8 62 10 00 	or r2,r3,r2
  101b40:	81 61 08 00 	sru r1,r11,r1
  101b44:	b8 44 10 00 	or r2,r2,r4
  101b48:	20 44 00 0f 	andi r4,r2,0xf
  101b4c:	34 03 00 04 	mvi r3,4
  101b50:	44 83 00 05 	be r4,r3,101b64 <__divdf3+0x774>
  101b54:	34 43 00 04 	addi r3,r2,4
  101b58:	f4 43 20 00 	cmpgu r4,r2,r3
  101b5c:	b8 60 10 00 	mv r2,r3
  101b60:	b4 24 08 00 	add r1,r1,r4
  101b64:	78 03 00 80 	mvhi r3,0x80
  101b68:	a0 23 18 00 	and r3,r1,r3
  101b6c:	44 60 00 10 	be r3,r0,101bac <__divdf3+0x7bc>
  101b70:	34 01 00 01 	mvi r1,1
  101b74:	34 0b 00 00 	mvi r11,0
  101b78:	34 02 00 00 	mvi r2,0
  101b7c:	e3 ff fe 78 	bi 10155c <__divdf3+0x16c>
  101b80:	34 05 00 20 	mvi r5,32
  101b84:	81 61 20 00 	sru r4,r11,r1
  101b88:	34 03 00 00 	mvi r3,0
  101b8c:	44 25 00 03 	be r1,r5,101b98 <__divdf3+0x7a8>
  101b90:	c8 01 08 00 	sub r1,r0,r1
  101b94:	bd 61 18 00 	sl r3,r11,r1
  101b98:	b8 62 10 00 	or r2,r3,r2
  101b9c:	7c 42 00 00 	cmpnei r2,r2,0
  101ba0:	34 01 00 00 	mvi r1,0
  101ba4:	b8 44 10 00 	or r2,r2,r4
  101ba8:	e3 ff ff e8 	bi 101b48 <__divdf3+0x758>
  101bac:	3c 23 00 1d 	sli r3,r1,29
  101bb0:	00 42 00 03 	srui r2,r2,3
  101bb4:	3c 21 00 09 	sli r1,r1,9
  101bb8:	b8 62 10 00 	or r2,r3,r2
  101bbc:	00 2b 00 0c 	srui r11,r1,12
  101bc0:	34 01 00 00 	mvi r1,0
  101bc4:	e3 ff fe 66 	bi 10155c <__divdf3+0x16c>
  101bc8:	78 01 00 08 	mvhi r1,0x8
  101bcc:	b9 61 58 00 	or r11,r11,r1
  101bd0:	e3 ff fe d1 	bi 101714 <__divdf3+0x324>

00101bd4 <__floatunsidf>:
  101bd4:	37 9c ff f4 	addi sp,sp,-12
  101bd8:	5b 8b 00 0c 	sw (sp+12),r11
  101bdc:	5b 8c 00 08 	sw (sp+8),r12
  101be0:	5b 9d 00 04 	sw (sp+4),ra
  101be4:	34 04 00 00 	mvi r4,0
  101be8:	b8 20 58 00 	mv r11,r1
  101bec:	34 03 00 00 	mvi r3,0
  101bf0:	34 0c 00 00 	mvi r12,0
  101bf4:	44 20 00 10 	be r1,r0,101c34 <__floatunsidf+0x60>
  101bf8:	f8 00 00 7f 	calli 101df4 <__clzsi2>
  101bfc:	34 04 04 1e 	mvi r4,1054
  101c00:	c8 81 20 00 	sub r4,r4,r1
  101c04:	34 01 04 33 	mvi r1,1075
  101c08:	c8 24 08 00 	sub r1,r1,r4
  101c0c:	34 02 00 1f 	mvi r2,31
  101c10:	48 22 00 15 	bg r1,r2,101c64 <__floatunsidf+0x90>
  101c14:	78 02 00 10 	mvhi r2,0x10
  101c18:	38 42 c7 74 	ori r2,r2,0xc774
  101c1c:	34 83 fb ed 	addi r3,r4,-1043
  101c20:	bd 61 60 00 	sl r12,r11,r1
  101c24:	28 41 00 00 	lw r1,(r2+0)
  101c28:	81 63 18 00 	sru r3,r11,r3
  101c2c:	20 84 07 ff 	andi r4,r4,0x7ff
  101c30:	a0 61 18 00 	and r3,r3,r1
  101c34:	78 05 00 10 	mvhi r5,0x10
  101c38:	38 a5 c7 74 	ori r5,r5,0xc774
  101c3c:	28 a1 00 00 	lw r1,(r5+0)
  101c40:	3c 84 00 14 	sli r4,r4,20
  101c44:	b9 80 10 00 	mv r2,r12
  101c48:	a0 61 18 00 	and r3,r3,r1
  101c4c:	b8 64 08 00 	or r1,r3,r4
  101c50:	2b 9d 00 04 	lw ra,(sp+4)
  101c54:	2b 8b 00 0c 	lw r11,(sp+12)
  101c58:	2b 8c 00 08 	lw r12,(sp+8)
  101c5c:	37 9c 00 0c 	addi sp,sp,12
  101c60:	c3 a0 00 00 	ret
  101c64:	78 05 00 10 	mvhi r5,0x10
  101c68:	34 03 04 13 	mvi r3,1043
  101c6c:	38 a5 c7 74 	ori r5,r5,0xc774
  101c70:	c8 64 18 00 	sub r3,r3,r4
  101c74:	28 a1 00 00 	lw r1,(r5+0)
  101c78:	bd 63 18 00 	sl r3,r11,r3
  101c7c:	20 84 07 ff 	andi r4,r4,0x7ff
  101c80:	a0 61 18 00 	and r3,r3,r1
  101c84:	e3 ff ff ec 	bi 101c34 <__floatunsidf+0x60>

00101c88 <__extendsfdf2>:
  101c88:	37 9c ff f0 	addi sp,sp,-16
  101c8c:	5b 8b 00 0c 	sw (sp+12),r11
  101c90:	5b 8c 00 08 	sw (sp+8),r12
  101c94:	5b 9d 00 04 	sw (sp+4),ra
  101c98:	78 04 00 10 	mvhi r4,0x10
  101c9c:	00 23 00 17 	srui r3,r1,23
  101ca0:	38 84 c6 e0 	ori r4,r4,0xc6e0
  101ca4:	28 8b 00 00 	lw r11,(r4+0)
  101ca8:	20 63 00 ff 	andi r3,r3,0xff
  101cac:	34 62 00 01 	addi r2,r3,1
  101cb0:	00 2c 00 1f 	srui r12,r1,31
  101cb4:	a0 2b 58 00 	and r11,r1,r11
  101cb8:	20 42 00 ff 	andi r2,r2,0xff
  101cbc:	34 01 00 01 	mvi r1,1
  101cc0:	4c 22 00 0d 	bge r1,r2,101cf4 <__extendsfdf2+0x6c>
  101cc4:	3d 62 00 1d 	sli r2,r11,29
  101cc8:	01 64 00 03 	srui r4,r11,3
  101ccc:	34 63 03 80 	addi r3,r3,896
  101cd0:	3c 63 00 14 	sli r3,r3,20
  101cd4:	3d 85 00 1f 	sli r5,r12,31
  101cd8:	b8 83 20 00 	or r4,r4,r3
  101cdc:	b8 85 08 00 	or r1,r4,r5
  101ce0:	2b 9d 00 04 	lw ra,(sp+4)
  101ce4:	2b 8b 00 0c 	lw r11,(sp+12)
  101ce8:	2b 8c 00 08 	lw r12,(sp+8)
  101cec:	37 9c 00 10 	addi sp,sp,16
  101cf0:	c3 a0 00 00 	ret
  101cf4:	5c 60 00 19 	bne r3,r0,101d58 <__extendsfdf2+0xd0>
  101cf8:	34 02 00 00 	mvi r2,0
  101cfc:	34 04 00 00 	mvi r4,0
  101d00:	45 62 ff f4 	be r11,r2,101cd0 <__extendsfdf2+0x48>
  101d04:	b9 60 08 00 	mv r1,r11
  101d08:	5b 82 00 10 	sw (sp+16),r2
  101d0c:	f8 00 00 3a 	calli 101df4 <__clzsi2>
  101d10:	34 24 ff f5 	addi r4,r1,-11
  101d14:	34 03 00 0a 	mvi r3,10
  101d18:	bd 64 20 00 	sl r4,r11,r4
  101d1c:	2b 82 00 10 	lw r2,(sp+16)
  101d20:	48 23 00 06 	bg r1,r3,101d38 <__extendsfdf2+0xb0>
  101d24:	34 04 00 0b 	mvi r4,11
  101d28:	c8 81 20 00 	sub r4,r4,r1
  101d2c:	34 22 00 15 	addi r2,r1,21
  101d30:	81 64 20 00 	sru r4,r11,r4
  101d34:	bd 62 10 00 	sl r2,r11,r2
  101d38:	78 05 00 10 	mvhi r5,0x10
  101d3c:	34 03 03 89 	mvi r3,905
  101d40:	38 a5 c7 74 	ori r5,r5,0xc774
  101d44:	c8 61 18 00 	sub r3,r3,r1
  101d48:	28 a1 00 00 	lw r1,(r5+0)
  101d4c:	20 63 07 ff 	andi r3,r3,0x7ff
  101d50:	a0 81 20 00 	and r4,r4,r1
  101d54:	e3 ff ff df 	bi 101cd0 <__extendsfdf2+0x48>
  101d58:	34 03 07 ff 	mvi r3,2047
  101d5c:	34 04 00 00 	mvi r4,0
  101d60:	34 02 00 00 	mvi r2,0
  101d64:	45 60 ff db 	be r11,r0,101cd0 <__extendsfdf2+0x48>
  101d68:	3d 62 00 1d 	sli r2,r11,29
  101d6c:	01 64 00 03 	srui r4,r11,3
  101d70:	e3 ff ff d8 	bi 101cd0 <__extendsfdf2+0x48>

00101d74 <__udivsi3>:
  101d74:	37 9c ff fc 	addi sp,sp,-4
  101d78:	5b 9d 00 04 	sw (sp+4),ra
  101d7c:	44 40 00 06 	be r2,r0,101d94 <__udivsi3+0x20>
  101d80:	34 03 00 00 	mvi r3,0
  101d84:	f8 00 00 3a 	calli 101e6c <__udivmodsi4>
  101d88:	2b 9d 00 04 	lw ra,(sp+4)
  101d8c:	37 9c 00 04 	addi sp,sp,4
  101d90:	c3 a0 00 00 	ret
  101d94:	90 00 08 00 	rcsr r1,IE
  101d98:	20 21 00 01 	andi r1,r1,0x1
  101d9c:	3c 21 00 01 	sli r1,r1,1
  101da0:	d0 01 00 00 	wcsr IE,r1
  101da4:	90 e0 08 00 	rcsr r1,EBA
  101da8:	bb a0 f0 00 	mv ea,ra
  101dac:	34 21 00 a0 	addi r1,r1,160
  101db0:	c0 20 00 00 	b r1

00101db4 <__umodsi3>:
  101db4:	37 9c ff fc 	addi sp,sp,-4
  101db8:	5b 9d 00 04 	sw (sp+4),ra
  101dbc:	44 40 00 06 	be r2,r0,101dd4 <__umodsi3+0x20>
  101dc0:	34 03 00 01 	mvi r3,1
  101dc4:	f8 00 00 2a 	calli 101e6c <__udivmodsi4>
  101dc8:	2b 9d 00 04 	lw ra,(sp+4)
  101dcc:	37 9c 00 04 	addi sp,sp,4
  101dd0:	c3 a0 00 00 	ret
  101dd4:	90 00 08 00 	rcsr r1,IE
  101dd8:	20 21 00 01 	andi r1,r1,0x1
  101ddc:	3c 21 00 01 	sli r1,r1,1
  101de0:	d0 01 00 00 	wcsr IE,r1
  101de4:	90 e0 08 00 	rcsr r1,EBA
  101de8:	bb a0 f0 00 	mv ea,ra
  101dec:	34 21 00 a0 	addi r1,r1,160
  101df0:	c0 20 00 00 	b r1

00101df4 <__clzsi2>:
  101df4:	38 02 ff ff 	mvu r2,0xffff
  101df8:	54 22 00 0e 	bgu r1,r2,101e30 <__clzsi2+0x3c>
  101dfc:	34 02 00 ff 	mvi r2,255
  101e00:	34 03 00 18 	mvi r3,24
  101e04:	34 04 00 08 	mvi r4,8
  101e08:	54 22 00 03 	bgu r1,r2,101e14 <__clzsi2+0x20>
  101e0c:	34 03 00 20 	mvi r3,32
  101e10:	34 04 00 00 	mvi r4,0
  101e14:	80 24 08 00 	sru r1,r1,r4
  101e18:	78 02 00 10 	mvhi r2,0x10
  101e1c:	38 42 c7 c0 	ori r2,r2,0xc7c0
  101e20:	b4 41 10 00 	add r2,r2,r1
  101e24:	40 41 00 00 	lbu r1,(r2+0)
  101e28:	c8 61 08 00 	sub r1,r3,r1
  101e2c:	c3 a0 00 00 	ret
  101e30:	78 05 00 10 	mvhi r5,0x10
  101e34:	38 a5 c7 bc 	ori r5,r5,0xc7bc
  101e38:	28 a2 00 00 	lw r2,(r5+0)
  101e3c:	34 03 00 08 	mvi r3,8
  101e40:	34 04 00 18 	mvi r4,24
  101e44:	54 22 ff f4 	bgu r1,r2,101e14 <__clzsi2+0x20>
  101e48:	34 04 00 10 	mvi r4,16
  101e4c:	80 24 08 00 	sru r1,r1,r4
  101e50:	78 02 00 10 	mvhi r2,0x10
  101e54:	38 42 c7 c0 	ori r2,r2,0xc7c0
  101e58:	b4 41 10 00 	add r2,r2,r1
  101e5c:	40 41 00 00 	lbu r1,(r2+0)
  101e60:	34 03 00 10 	mvi r3,16
  101e64:	c8 61 08 00 	sub r1,r3,r1
  101e68:	c3 a0 00 00 	ret

00101e6c <__udivmodsi4>:
  101e6c:	f4 22 20 00 	cmpgu r4,r1,r2
  101e70:	44 80 00 18 	be r4,r0,101ed0 <__udivmodsi4+0x64>
  101e74:	34 04 00 01 	mvi r4,1
  101e78:	4c 40 00 0b 	bge r2,r0,101ea4 <__udivmodsi4+0x38>
  101e7c:	34 05 00 00 	mvi r5,0
  101e80:	54 41 00 03 	bgu r2,r1,101e8c <__udivmodsi4+0x20>
  101e84:	c8 22 08 00 	sub r1,r1,r2
  101e88:	b8 a4 28 00 	or r5,r5,r4
  101e8c:	00 84 00 01 	srui r4,r4,1
  101e90:	00 42 00 01 	srui r2,r2,1
  101e94:	5c 80 ff fb 	bne r4,r0,101e80 <__udivmodsi4+0x14>
  101e98:	5c 60 00 02 	bne r3,r0,101ea0 <__udivmodsi4+0x34>
  101e9c:	b8 a0 08 00 	mv r1,r5
  101ea0:	c3 a0 00 00 	ret
  101ea4:	3c 42 00 01 	sli r2,r2,1
  101ea8:	3c 84 00 01 	sli r4,r4,1
  101eac:	f4 22 28 00 	cmpgu r5,r1,r2
  101eb0:	7c 86 00 00 	cmpnei r6,r4,0
  101eb4:	a0 c5 28 00 	and r5,r6,r5
  101eb8:	44 a0 00 02 	be r5,r0,101ec0 <__udivmodsi4+0x54>
  101ebc:	4c 40 ff fa 	bge r2,r0,101ea4 <__udivmodsi4+0x38>
  101ec0:	34 05 00 00 	mvi r5,0
  101ec4:	44 80 ff f5 	be r4,r0,101e98 <__udivmodsi4+0x2c>
  101ec8:	34 05 00 00 	mvi r5,0
  101ecc:	e3 ff ff ed 	bi 101e80 <__udivmodsi4+0x14>
  101ed0:	34 04 00 01 	mvi r4,1
  101ed4:	34 05 00 00 	mvi r5,0
  101ed8:	e3 ff ff ea 	bi 101e80 <__udivmodsi4+0x14>

00101edc <__do_global_dtors_aux>:
  101edc:	37 9c ff ec 	addi sp,sp,-20
  101ee0:	5b 8b 00 14 	sw (sp+20),r11
  101ee4:	5b 8c 00 10 	sw (sp+16),r12
  101ee8:	5b 8d 00 0c 	sw (sp+12),r13
  101eec:	5b 8e 00 08 	sw (sp+8),r14
  101ef0:	5b 9d 00 04 	sw (sp+4),ra
  101ef4:	78 0e 00 10 	mvhi r14,0x10
  101ef8:	39 ce d7 90 	ori r14,r14,0xd790
  101efc:	41 c1 00 00 	lbu r1,(r14+0)
  101f00:	5c 20 00 16 	bne r1,r0,101f58 <__do_global_dtors_aux+0x7c>
  101f04:	78 0d 00 10 	mvhi r13,0x10
  101f08:	78 0c 00 10 	mvhi r12,0x10
  101f0c:	78 0b 00 10 	mvhi r11,0x10
  101f10:	39 ad c6 9c 	ori r13,r13,0xc69c
  101f14:	39 8c c6 98 	ori r12,r12,0xc698
  101f18:	39 6b d7 94 	ori r11,r11,0xd794
  101f1c:	c9 ac 68 00 	sub r13,r13,r12
  101f20:	15 ad 00 02 	sri r13,r13,2
  101f24:	29 61 00 00 	lw r1,(r11+0)
  101f28:	35 ad ff ff 	addi r13,r13,-1
  101f2c:	50 2d 00 09 	bgeu r1,r13,101f50 <__do_global_dtors_aux+0x74>
  101f30:	34 21 00 01 	addi r1,r1,1
  101f34:	3c 22 00 02 	sli r2,r1,2
  101f38:	59 61 00 00 	sw (r11+0),r1
  101f3c:	b5 82 08 00 	add r1,r12,r2
  101f40:	28 21 00 00 	lw r1,(r1+0)
  101f44:	d8 20 00 00 	call r1
  101f48:	29 61 00 00 	lw r1,(r11+0)
  101f4c:	55 a1 ff f9 	bgu r13,r1,101f30 <__do_global_dtors_aux+0x54>
  101f50:	34 01 00 01 	mvi r1,1
  101f54:	31 c1 00 00 	sb (r14+0),r1
  101f58:	2b 9d 00 04 	lw ra,(sp+4)
  101f5c:	2b 8b 00 14 	lw r11,(sp+20)
  101f60:	2b 8c 00 10 	lw r12,(sp+16)
  101f64:	2b 8d 00 0c 	lw r13,(sp+12)
  101f68:	2b 8e 00 08 	lw r14,(sp+8)
  101f6c:	37 9c 00 14 	addi sp,sp,20
  101f70:	c3 a0 00 00 	ret

00101f74 <call___do_global_dtors_aux>:
  101f74:	37 9c ff fc 	addi sp,sp,-4
  101f78:	5b 9d 00 04 	sw (sp+4),ra
  101f7c:	2b 9d 00 04 	lw ra,(sp+4)
  101f80:	37 9c 00 04 	addi sp,sp,4
  101f84:	c3 a0 00 00 	ret

00101f88 <frame_dummy>:
  101f88:	37 9c ff fc 	addi sp,sp,-4
  101f8c:	5b 9d 00 04 	sw (sp+4),ra
  101f90:	78 01 00 10 	mvhi r1,0x10
  101f94:	38 21 c6 a0 	ori r1,r1,0xc6a0
  101f98:	28 22 00 00 	lw r2,(r1+0)
  101f9c:	44 40 00 05 	be r2,r0,101fb0 <frame_dummy+0x28>
  101fa0:	78 02 00 00 	mvhi r2,0x0
  101fa4:	38 42 00 00 	ori r2,r2,0x0
  101fa8:	44 40 00 02 	be r2,r0,101fb0 <frame_dummy+0x28>
  101fac:	d8 40 00 00 	call r2
  101fb0:	2b 9d 00 04 	lw ra,(sp+4)
  101fb4:	37 9c 00 04 	addi sp,sp,4
  101fb8:	c3 a0 00 00 	ret

00101fbc <call_frame_dummy>:
  101fbc:	37 9c ff fc 	addi sp,sp,-4
  101fc0:	5b 9d 00 04 	sw (sp+4),ra
  101fc4:	2b 9d 00 04 	lw ra,(sp+4)
  101fc8:	37 9c 00 04 	addi sp,sp,4
  101fcc:	c3 a0 00 00 	ret

00101fd0 <no_os_exit>:
  101fd0:	c0 00 00 00 	b r0
  101fd4:	e0 00 00 00 	bi 101fd4 <no_os_exit+0x4>

00101fd8 <__do_global_ctors_aux>:
  101fd8:	37 9c ff f4 	addi sp,sp,-12
  101fdc:	5b 8b 00 0c 	sw (sp+12),r11
  101fe0:	5b 8c 00 08 	sw (sp+8),r12
  101fe4:	5b 9d 00 04 	sw (sp+4),ra
  101fe8:	78 01 00 10 	mvhi r1,0x10
  101fec:	38 21 c6 94 	ori r1,r1,0xc694
  101ff0:	28 21 ff fc 	lw r1,(r1+-4)
  101ff4:	34 02 ff ff 	mvi r2,-1
  101ff8:	44 22 00 08 	be r1,r2,102018 <__do_global_ctors_aux+0x40>
  101ffc:	78 0b 00 10 	mvhi r11,0x10
  102000:	39 6b c6 90 	ori r11,r11,0xc690
  102004:	34 0c ff ff 	mvi r12,-1
  102008:	35 6b ff fc 	addi r11,r11,-4
  10200c:	d8 20 00 00 	call r1
  102010:	29 61 00 00 	lw r1,(r11+0)
  102014:	5c 2c ff fd 	bne r1,r12,102008 <__do_global_ctors_aux+0x30>
  102018:	2b 9d 00 04 	lw ra,(sp+4)
  10201c:	2b 8b 00 0c 	lw r11,(sp+12)
  102020:	2b 8c 00 08 	lw r12,(sp+8)
  102024:	37 9c 00 0c 	addi sp,sp,12
  102028:	c3 a0 00 00 	ret

0010202c <call___do_global_ctors_aux>:
  10202c:	37 9c ff fc 	addi sp,sp,-4
  102030:	5b 9d 00 04 	sw (sp+4),ra
  102034:	2b 9d 00 04 	lw ra,(sp+4)
  102038:	37 9c 00 04 	addi sp,sp,4
  10203c:	c3 a0 00 00 	ret

00102040 <atexit>:
  102040:	37 9c ff fc 	addi sp,sp,-4
  102044:	5b 9d 00 04 	sw (sp+4),ra
  102048:	34 03 00 00 	mvi r3,0
  10204c:	b8 20 10 00 	mv r2,r1
  102050:	34 04 00 00 	mvi r4,0
  102054:	34 01 00 00 	mvi r1,0
  102058:	f8 00 07 93 	calli 103ea4 <__register_exitproc>
  10205c:	2b 9d 00 04 	lw ra,(sp+4)
  102060:	37 9c 00 04 	addi sp,sp,4
  102064:	c3 a0 00 00 	ret

00102068 <exit>:
  102068:	37 9c ff f8 	addi sp,sp,-8
  10206c:	5b 8b 00 08 	sw (sp+8),r11
  102070:	5b 9d 00 04 	sw (sp+4),ra
  102074:	34 02 00 00 	mvi r2,0
  102078:	b8 20 58 00 	mv r11,r1
  10207c:	f8 00 07 b3 	calli 103f48 <__call_exitprocs>
  102080:	78 02 00 10 	mvhi r2,0x10
  102084:	38 42 c8 c0 	ori r2,r2,0xc8c0
  102088:	28 42 00 00 	lw r2,(r2+0)
  10208c:	28 43 00 3c 	lw r3,(r2+60)
  102090:	44 60 00 03 	be r3,r0,10209c <exit+0x34>
  102094:	b8 40 08 00 	mv r1,r2
  102098:	d8 60 00 00 	call r3
  10209c:	b9 60 08 00 	mv r1,r11
  1020a0:	f8 00 29 53 	calli 10c5ec <_exit>

001020a4 <memset>:
  1020a4:	20 25 00 03 	andi r5,r1,0x3
  1020a8:	b8 20 20 00 	mv r4,r1
  1020ac:	44 a0 00 0b 	be r5,r0,1020d8 <memset+0x34>
  1020b0:	44 60 00 2c 	be r3,r0,102160 <memset+0xbc>
  1020b4:	34 63 ff ff 	addi r3,r3,-1
  1020b8:	20 46 00 ff 	andi r6,r2,0xff
  1020bc:	e0 00 00 03 	bi 1020c8 <memset+0x24>
  1020c0:	44 60 00 28 	be r3,r0,102160 <memset+0xbc>
  1020c4:	34 63 ff ff 	addi r3,r3,-1
  1020c8:	30 86 00 00 	sb (r4+0),r6
  1020cc:	34 84 00 01 	addi r4,r4,1
  1020d0:	20 85 00 03 	andi r5,r4,0x3
  1020d4:	5c a0 ff fb 	bne r5,r0,1020c0 <memset+0x1c>
  1020d8:	34 05 00 03 	mvi r5,3
  1020dc:	50 a3 00 1a 	bgeu r5,r3,102144 <memset+0xa0>
  1020e0:	20 45 00 ff 	andi r5,r2,0xff
  1020e4:	3c a6 00 08 	sli r6,r5,8
  1020e8:	34 0a 00 0f 	mvi r10,15
  1020ec:	b8 c5 28 00 	or r5,r6,r5
  1020f0:	3c a6 00 10 	sli r6,r5,16
  1020f4:	b8 80 40 00 	mv r8,r4
  1020f8:	b8 c5 30 00 	or r6,r6,r5
  1020fc:	b8 60 38 00 	mv r7,r3
  102100:	b8 80 28 00 	mv r5,r4
  102104:	34 09 00 0f 	mvi r9,15
  102108:	54 6a 00 17 	bgu r3,r10,102164 <memset+0xc0>
  10210c:	34 04 00 00 	mvi r4,0
  102110:	34 07 00 03 	mvi r7,3
  102114:	b5 04 28 00 	add r5,r8,r4
  102118:	34 84 00 04 	addi r4,r4,4
  10211c:	58 a6 00 00 	sw (r5+0),r6
  102120:	c8 64 28 00 	sub r5,r3,r4
  102124:	54 a7 ff fc 	bgu r5,r7,102114 <memset+0x70>
  102128:	34 63 ff fc 	addi r3,r3,-4
  10212c:	00 64 00 02 	srui r4,r3,2
  102130:	20 63 00 03 	andi r3,r3,0x3
  102134:	34 84 00 01 	addi r4,r4,1
  102138:	3c 84 00 02 	sli r4,r4,2
  10213c:	b5 04 40 00 	add r8,r8,r4
  102140:	b9 00 20 00 	mv r4,r8
  102144:	44 60 00 07 	be r3,r0,102160 <memset+0xbc>
  102148:	20 42 00 ff 	andi r2,r2,0xff
  10214c:	34 05 00 00 	mvi r5,0
  102150:	b4 85 30 00 	add r6,r4,r5
  102154:	30 c2 00 00 	sb (r6+0),r2
  102158:	34 a5 00 01 	addi r5,r5,1
  10215c:	5c 65 ff fd 	bne r3,r5,102150 <memset+0xac>
  102160:	c3 a0 00 00 	ret
  102164:	58 a6 00 00 	sw (r5+0),r6
  102168:	58 a6 00 04 	sw (r5+4),r6
  10216c:	58 a6 00 08 	sw (r5+8),r6
  102170:	58 a6 00 0c 	sw (r5+12),r6
  102174:	34 e7 ff f0 	addi r7,r7,-16
  102178:	34 a5 00 10 	addi r5,r5,16
  10217c:	54 e9 ff fa 	bgu r7,r9,102164 <memset+0xc0>
  102180:	34 63 ff f0 	addi r3,r3,-16
  102184:	00 68 00 04 	srui r8,r3,4
  102188:	20 63 00 0f 	andi r3,r3,0xf
  10218c:	35 08 00 01 	addi r8,r8,1
  102190:	3d 08 00 04 	sli r8,r8,4
  102194:	b4 88 40 00 	add r8,r4,r8
  102198:	34 04 00 03 	mvi r4,3
  10219c:	54 64 ff dc 	bgu r3,r4,10210c <memset+0x68>
  1021a0:	b9 00 20 00 	mv r4,r8
  1021a4:	e3 ff ff e8 	bi 102144 <memset+0xa0>

001021a8 <_printf_r>:
  1021a8:	37 9c ff e0 	addi sp,sp,-32
  1021ac:	5b 9d 00 04 	sw (sp+4),ra
  1021b0:	5b 83 00 0c 	sw (sp+12),r3
  1021b4:	5b 84 00 10 	sw (sp+16),r4
  1021b8:	5b 82 00 08 	sw (sp+8),r2
  1021bc:	5b 85 00 14 	sw (sp+20),r5
  1021c0:	5b 86 00 18 	sw (sp+24),r6
  1021c4:	5b 87 00 1c 	sw (sp+28),r7
  1021c8:	5b 88 00 20 	sw (sp+32),r8
  1021cc:	b8 40 18 00 	mv r3,r2
  1021d0:	28 22 00 08 	lw r2,(r1+8)
  1021d4:	37 84 00 0c 	addi r4,sp,12
  1021d8:	f8 00 00 19 	calli 10223c <_vfprintf_r>
  1021dc:	2b 9d 00 04 	lw ra,(sp+4)
  1021e0:	37 9c 00 20 	addi sp,sp,32
  1021e4:	c3 a0 00 00 	ret

001021e8 <printf>:
  1021e8:	37 9c ff dc 	addi sp,sp,-36
  1021ec:	5b 9d 00 04 	sw (sp+4),ra
  1021f0:	78 09 00 10 	mvhi r9,0x10
  1021f4:	39 29 cf 08 	ori r9,r9,0xcf08
  1021f8:	29 29 00 00 	lw r9,(r9+0)
  1021fc:	5b 81 00 08 	sw (sp+8),r1
  102200:	5b 83 00 10 	sw (sp+16),r3
  102204:	5b 84 00 14 	sw (sp+20),r4
  102208:	5b 82 00 0c 	sw (sp+12),r2
  10220c:	5b 85 00 18 	sw (sp+24),r5
  102210:	5b 86 00 1c 	sw (sp+28),r6
  102214:	5b 87 00 20 	sw (sp+32),r7
  102218:	5b 88 00 24 	sw (sp+36),r8
  10221c:	29 22 00 08 	lw r2,(r9+8)
  102220:	b8 20 18 00 	mv r3,r1
  102224:	37 84 00 0c 	addi r4,sp,12
  102228:	b9 20 08 00 	mv r1,r9
  10222c:	f8 00 00 04 	calli 10223c <_vfprintf_r>
  102230:	2b 9d 00 04 	lw ra,(sp+4)
  102234:	37 9c 00 24 	addi sp,sp,36
  102238:	c3 a0 00 00 	ret

0010223c <_vfprintf_r>:
  10223c:	37 9c fa 5c 	addi sp,sp,-1444
  102240:	5b 8b 00 44 	sw (sp+68),r11
  102244:	5b 8c 00 40 	sw (sp+64),r12
  102248:	5b 8d 00 3c 	sw (sp+60),r13
  10224c:	5b 8e 00 38 	sw (sp+56),r14
  102250:	5b 8f 00 34 	sw (sp+52),r15
  102254:	5b 90 00 30 	sw (sp+48),r16
  102258:	5b 91 00 2c 	sw (sp+44),r17
  10225c:	5b 92 00 28 	sw (sp+40),r18
  102260:	5b 93 00 24 	sw (sp+36),r19
  102264:	5b 94 00 20 	sw (sp+32),r20
  102268:	5b 95 00 1c 	sw (sp+28),r21
  10226c:	5b 96 00 18 	sw (sp+24),r22
  102270:	5b 97 00 14 	sw (sp+20),r23
  102274:	5b 98 00 10 	sw (sp+16),r24
  102278:	5b 99 00 0c 	sw (sp+12),r25
  10227c:	5b 9b 00 08 	sw (sp+8),fp
  102280:	5b 9d 00 04 	sw (sp+4),ra
  102284:	5b 82 00 50 	sw (sp+80),r2
  102288:	b8 60 58 00 	mv r11,r3
  10228c:	5b 84 00 58 	sw (sp+88),r4
  102290:	5b 81 00 6c 	sw (sp+108),r1
  102294:	f8 00 0f 9c 	calli 106104 <_localeconv_r>
  102298:	28 21 00 00 	lw r1,(r1+0)
  10229c:	5b 81 00 8c 	sw (sp+140),r1
  1022a0:	f8 00 17 0d 	calli 107ed4 <strlen>
  1022a4:	5b 81 00 9c 	sw (sp+156),r1
  1022a8:	2b 81 00 6c 	lw r1,(sp+108)
  1022ac:	44 20 00 03 	be r1,r0,1022b8 <_vfprintf_r+0x7c>
  1022b0:	28 23 00 38 	lw r3,(r1+56)
  1022b4:	44 60 02 e6 	be r3,r0,102e4c <_vfprintf_r+0xc10>
  1022b8:	2b 82 00 50 	lw r2,(sp+80)
  1022bc:	1c 45 00 0c 	lh r5,(r2+12)
  1022c0:	20 a6 ff ff 	andi r6,r5,0xffff
  1022c4:	20 c3 20 00 	andi r3,r6,0x2000
  1022c8:	5c 60 00 08 	bne r3,r0,1022e8 <_vfprintf_r+0xac>
  1022cc:	28 46 00 64 	lw r6,(r2+100)
  1022d0:	34 03 df ff 	mvi r3,-8193
  1022d4:	38 a5 20 00 	ori r5,r5,0x2000
  1022d8:	a0 c3 18 00 	and r3,r6,r3
  1022dc:	0c 45 00 0c 	sh (r2+12),r5
  1022e0:	58 43 00 64 	sw (r2+100),r3
  1022e4:	20 a6 ff ff 	andi r6,r5,0xffff
  1022e8:	20 c3 00 08 	andi r3,r6,0x8
  1022ec:	44 60 06 0a 	be r3,r0,103b14 <_vfprintf_r+0x18d8>
  1022f0:	2b 81 00 50 	lw r1,(sp+80)
  1022f4:	28 23 00 10 	lw r3,(r1+16)
  1022f8:	44 60 06 07 	be r3,r0,103b14 <_vfprintf_r+0x18d8>
  1022fc:	20 c6 00 1a 	andi r6,r6,0x1a
  102300:	34 03 00 0a 	mvi r3,10
  102304:	44 c3 02 aa 	be r6,r3,102dac <_vfprintf_r+0xb70>
  102308:	37 81 05 84 	addi r1,sp,1412
  10230c:	5b 81 00 4c 	sw (sp+76),r1
  102310:	37 81 05 83 	addi r1,sp,1411
  102314:	5b 81 00 48 	sw (sp+72),r1
  102318:	78 01 00 10 	mvhi r1,0x10
  10231c:	5b 81 00 7c 	sw (sp+124),r1
  102320:	78 01 00 10 	mvhi r1,0x10
  102324:	5b 81 00 84 	sw (sp+132),r1
  102328:	78 02 00 10 	mvhi r2,0x10
  10232c:	78 01 00 10 	mvhi r1,0x10
  102330:	5b 82 00 68 	sw (sp+104),r2
  102334:	5b 81 00 88 	sw (sp+136),r1
  102338:	78 02 00 10 	mvhi r2,0x10
  10233c:	78 01 00 10 	mvhi r1,0x10
  102340:	5b 82 00 70 	sw (sp+112),r2
  102344:	5b 81 00 64 	sw (sp+100),r1
  102348:	78 02 00 10 	mvhi r2,0x10
  10234c:	2b 81 00 68 	lw r1,(sp+104)
  102350:	5b 82 00 80 	sw (sp+128),r2
  102354:	78 02 00 10 	mvhi r2,0x10
  102358:	5b 82 00 78 	sw (sp+120),r2
  10235c:	78 02 00 10 	mvhi r2,0x10
  102360:	5b 82 00 74 	sw (sp+116),r2
  102364:	38 21 c9 0c 	ori r1,r1,0xc90c
  102368:	37 82 05 1c 	addi r2,sp,1308
  10236c:	5b 82 05 84 	sw (sp+1412),r2
  102370:	5b 81 00 68 	sw (sp+104),r1
  102374:	b8 40 d8 00 	mv fp,r2
  102378:	2b 81 00 48 	lw r1,(sp+72)
  10237c:	2b 82 00 4c 	lw r2,(sp+76)
  102380:	5b 80 05 8c 	sw (sp+1420),r0
  102384:	5b 80 05 88 	sw (sp+1416),r0
  102388:	c8 41 10 00 	sub r2,r2,r1
  10238c:	5b 82 00 b0 	sw (sp+176),r2
  102390:	2b 82 00 70 	lw r2,(sp+112)
  102394:	2b 81 00 7c 	lw r1,(sp+124)
  102398:	5b 80 00 90 	sw (sp+144),r0
  10239c:	38 42 c8 ec 	ori r2,r2,0xc8ec
  1023a0:	5b 82 00 70 	sw (sp+112),r2
  1023a4:	2b 82 00 80 	lw r2,(sp+128)
  1023a8:	38 21 c9 00 	ori r1,r1,0xc900
  1023ac:	5b 81 00 7c 	sw (sp+124),r1
  1023b0:	38 42 c8 d4 	ori r2,r2,0xc8d4
  1023b4:	2b 81 00 84 	lw r1,(sp+132)
  1023b8:	5b 82 00 80 	sw (sp+128),r2
  1023bc:	2b 82 00 78 	lw r2,(sp+120)
  1023c0:	38 21 c8 d0 	ori r1,r1,0xc8d0
  1023c4:	5b 81 00 84 	sw (sp+132),r1
  1023c8:	38 42 c8 cc 	ori r2,r2,0xc8cc
  1023cc:	5b 80 00 94 	sw (sp+148),r0
  1023d0:	5b 80 00 98 	sw (sp+152),r0
  1023d4:	5b 80 00 a4 	sw (sp+164),r0
  1023d8:	5b 80 00 a0 	sw (sp+160),r0
  1023dc:	5b 80 00 5c 	sw (sp+92),r0
  1023e0:	5b 82 00 78 	sw (sp+120),r2
  1023e4:	2b 81 00 88 	lw r1,(sp+136)
  1023e8:	2b 82 00 74 	lw r2,(sp+116)
  1023ec:	2b 99 00 6c 	lw r25,(sp+108)
  1023f0:	38 21 c8 c8 	ori r1,r1,0xc8c8
  1023f4:	5b 81 00 88 	sw (sp+136),r1
  1023f8:	2b 81 00 64 	lw r1,(sp+100)
  1023fc:	38 42 c8 d8 	ori r2,r2,0xc8d8
  102400:	5b 82 00 74 	sw (sp+116),r2
  102404:	38 21 ca 80 	ori r1,r1,0xca80
  102408:	5b 81 00 64 	sw (sp+100),r1
  10240c:	b9 60 b8 00 	mv r23,r11
  102410:	42 e6 00 00 	lbu r6,(r23+0)
  102414:	7c c5 00 00 	cmpnei r5,r6,0
  102418:	7c c4 00 25 	cmpnei r4,r6,37
  10241c:	a0 a4 20 00 	and r4,r5,r4
  102420:	44 80 00 ca 	be r4,r0,102748 <_vfprintf_r+0x50c>
  102424:	ba e0 58 00 	mv r11,r23
  102428:	35 6b 00 01 	addi r11,r11,1
  10242c:	41 66 00 00 	lbu r6,(r11+0)
  102430:	7c c2 00 25 	cmpnei r2,r6,37
  102434:	7c c1 00 00 	cmpnei r1,r6,0
  102438:	a0 41 08 00 	and r1,r2,r1
  10243c:	5c 20 ff fb 	bne r1,r0,102428 <_vfprintf_r+0x1ec>
  102440:	c9 77 60 00 	sub r12,r11,r23
  102444:	45 81 00 10 	be r12,r1,102484 <_vfprintf_r+0x248>
  102448:	2b 8f 05 8c 	lw r15,(sp+1420)
  10244c:	2b 8d 05 88 	lw r13,(sp+1416)
  102450:	5b 77 00 00 	sw (fp+0),r23
  102454:	b5 ec 78 00 	add r15,r15,r12
  102458:	35 ad 00 01 	addi r13,r13,1
  10245c:	5b 6c 00 04 	sw (fp+4),r12
  102460:	5b 8f 05 8c 	sw (sp+1420),r15
  102464:	5b 8d 05 88 	sw (sp+1416),r13
  102468:	34 04 00 07 	mvi r4,7
  10246c:	49 a4 02 2b 	bg r13,r4,102d18 <_vfprintf_r+0xadc>
  102470:	37 7b 00 08 	addi fp,fp,8
  102474:	2b 82 00 5c 	lw r2,(sp+92)
  102478:	b4 4c 10 00 	add r2,r2,r12
  10247c:	5b 82 00 5c 	sw (sp+92),r2
  102480:	41 66 00 00 	lbu r6,(r11+0)
  102484:	44 c0 00 ef 	be r6,r0,102840 <_vfprintf_r+0x604>
  102488:	35 77 00 01 	addi r23,r11,1
  10248c:	33 80 05 a7 	sb (sp+1447),r0
  102490:	34 09 00 00 	mvi r9,0
  102494:	34 0b ff ff 	mvi r11,-1
  102498:	5b 80 00 60 	sw (sp+96),r0
  10249c:	34 18 00 00 	mvi r24,0
  1024a0:	34 0a 00 58 	mvi r10,88
  1024a4:	34 08 00 09 	mvi r8,9
  1024a8:	34 0c 00 2a 	mvi r12,42
  1024ac:	42 f3 00 00 	lbu r19,(r23+0)
  1024b0:	36 f7 00 01 	addi r23,r23,1
  1024b4:	36 62 ff e0 	addi r2,r19,-32
  1024b8:	54 4a 03 92 	bgu r2,r10,103300 <_vfprintf_r+0x10c4>
  1024bc:	2b 81 00 68 	lw r1,(sp+104)
  1024c0:	3c 42 00 02 	sli r2,r2,2
  1024c4:	b4 22 10 00 	add r2,r1,r2
  1024c8:	28 42 00 00 	lw r2,(r2+0)
  1024cc:	c0 40 00 00 	b r2
  1024d0:	3b 18 00 10 	ori r24,r24,0x10
  1024d4:	e3 ff ff f6 	bi 1024ac <_vfprintf_r+0x270>
  1024d8:	3b 18 00 10 	ori r24,r24,0x10
  1024dc:	23 08 00 10 	andi r8,r24,0x10
  1024e0:	5d 00 00 9c 	bne r8,r0,102750 <_vfprintf_r+0x514>
  1024e4:	23 07 00 40 	andi r7,r24,0x40
  1024e8:	44 e8 00 9a 	be r7,r8,102750 <_vfprintf_r+0x514>
  1024ec:	2b 82 00 58 	lw r2,(sp+88)
  1024f0:	34 0a 00 00 	mvi r10,0
  1024f4:	2c 4c 00 02 	lhu r12,(r2+2)
  1024f8:	34 42 00 04 	addi r2,r2,4
  1024fc:	5b 82 00 58 	sw (sp+88),r2
  102500:	7d 89 00 00 	cmpnei r9,r12,0
  102504:	33 80 05 a7 	sb (sp+1447),r0
  102508:	48 0b 00 03 	bg r0,r11,102514 <_vfprintf_r+0x2d8>
  10250c:	34 08 ff 7f 	mvi r8,-129
  102510:	a3 08 c0 00 	and r24,r24,r8
  102514:	7d 67 00 00 	cmpnei r7,r11,0
  102518:	b9 27 38 00 	or r7,r9,r7
  10251c:	44 e0 00 b5 	be r7,r0,1027f0 <_vfprintf_r+0x5b4>
  102520:	34 07 00 01 	mvi r7,1
  102524:	45 47 04 35 	be r10,r7,1035f8 <_vfprintf_r+0x13bc>
  102528:	34 07 00 02 	mvi r7,2
  10252c:	37 96 05 84 	addi r22,sp,1412
  102530:	45 47 04 28 	be r10,r7,1035d0 <_vfprintf_r+0x1394>
  102534:	21 81 00 07 	andi r1,r12,0x7
  102538:	36 d6 ff ff 	addi r22,r22,-1
  10253c:	34 28 00 30 	addi r8,r1,48
  102540:	01 8c 00 03 	srui r12,r12,3
  102544:	32 c8 00 00 	sb (r22+0),r8
  102548:	5d 80 ff fb 	bne r12,r0,102534 <_vfprintf_r+0x2f8>
  10254c:	23 07 00 01 	andi r7,r24,0x1
  102550:	44 ec 00 05 	be r7,r12,102564 <_vfprintf_r+0x328>
  102554:	34 09 00 30 	mvi r9,48
  102558:	45 09 04 1b 	be r8,r9,1035c4 <_vfprintf_r+0x1388>
  10255c:	36 d6 ff ff 	addi r22,r22,-1
  102560:	32 c9 00 00 	sb (r22+0),r9
  102564:	2b 82 00 4c 	lw r2,(sp+76)
  102568:	c8 56 90 00 	sub r18,r2,r22
  10256c:	5b 92 00 54 	sw (sp+84),r18
  102570:	4e 4b 00 02 	bge r18,r11,102578 <_vfprintf_r+0x33c>
  102574:	5b 8b 00 54 	sw (sp+84),r11
  102578:	43 88 05 a7 	lbu r8,(sp+1447)
  10257c:	45 00 00 04 	be r8,r0,10258c <_vfprintf_r+0x350>
  102580:	2b 82 00 54 	lw r2,(sp+84)
  102584:	34 42 00 01 	addi r2,r2,1
  102588:	5b 82 00 54 	sw (sp+84),r2
  10258c:	23 14 00 02 	andi r20,r24,0x2
  102590:	46 80 00 04 	be r20,r0,1025a0 <_vfprintf_r+0x364>
  102594:	2b 81 00 54 	lw r1,(sp+84)
  102598:	34 21 00 02 	addi r1,r1,2
  10259c:	5b 81 00 54 	sw (sp+84),r1
  1025a0:	23 11 00 84 	andi r17,r24,0x84
  1025a4:	5e 20 00 05 	bne r17,r0,1025b8 <_vfprintf_r+0x37c>
  1025a8:	2b 82 00 60 	lw r2,(sp+96)
  1025ac:	2b 81 00 54 	lw r1,(sp+84)
  1025b0:	c8 41 60 00 	sub r12,r2,r1
  1025b4:	49 91 01 00 	bg r12,r17,1029b4 <_vfprintf_r+0x778>
  1025b8:	2b 8f 05 8c 	lw r15,(sp+1420)
  1025bc:	2b 8d 05 88 	lw r13,(sp+1416)
  1025c0:	37 6e 00 08 	addi r14,fp,8
  1025c4:	43 84 05 a7 	lbu r4,(sp+1447)
  1025c8:	44 80 00 0d 	be r4,r0,1025fc <_vfprintf_r+0x3c0>
  1025cc:	37 87 05 a7 	addi r7,sp,1447
  1025d0:	35 ef 00 01 	addi r15,r15,1
  1025d4:	35 ad 00 01 	addi r13,r13,1
  1025d8:	5b 67 00 00 	sw (fp+0),r7
  1025dc:	34 07 00 01 	mvi r7,1
  1025e0:	5b 67 00 04 	sw (fp+4),r7
  1025e4:	5b 8f 05 8c 	sw (sp+1420),r15
  1025e8:	5b 8d 05 88 	sw (sp+1416),r13
  1025ec:	34 07 00 07 	mvi r7,7
  1025f0:	49 a7 01 db 	bg r13,r7,102d5c <_vfprintf_r+0xb20>
  1025f4:	b9 c0 d8 00 	mv fp,r14
  1025f8:	35 ce 00 08 	addi r14,r14,8
  1025fc:	46 80 00 0d 	be r20,r0,102630 <_vfprintf_r+0x3f4>
  102600:	34 07 00 02 	mvi r7,2
  102604:	35 ef 00 02 	addi r15,r15,2
  102608:	35 ad 00 01 	addi r13,r13,1
  10260c:	37 82 05 a4 	addi r2,sp,1444
  102610:	5b 67 00 04 	sw (fp+4),r7
  102614:	5b 62 00 00 	sw (fp+0),r2
  102618:	5b 8f 05 8c 	sw (sp+1420),r15
  10261c:	5b 8d 05 88 	sw (sp+1416),r13
  102620:	34 07 00 07 	mvi r7,7
  102624:	49 a7 01 d8 	bg r13,r7,102d84 <_vfprintf_r+0xb48>
  102628:	b9 c0 d8 00 	mv fp,r14
  10262c:	35 ce 00 08 	addi r14,r14,8
  102630:	34 04 00 80 	mvi r4,128
  102634:	46 24 01 1a 	be r17,r4,102a9c <_vfprintf_r+0x860>
  102638:	c9 72 58 00 	sub r11,r11,r18
  10263c:	4c 0b 00 1d 	bge r0,r11,1026b0 <_vfprintf_r+0x474>
  102640:	34 05 00 10 	mvi r5,16
  102644:	4c ab 04 d9 	bge r5,r11,1039a8 <_vfprintf_r+0x176c>
  102648:	2b 91 00 50 	lw r17,(sp+80)
  10264c:	78 10 00 10 	mvhi r16,0x10
  102650:	3a 10 ca 70 	ori r16,r16,0xca70
  102654:	34 0c 00 10 	mvi r12,16
  102658:	34 0e 00 07 	mvi r14,7
  10265c:	35 ef 00 10 	addi r15,r15,16
  102660:	35 ad 00 01 	addi r13,r13,1
  102664:	5b 70 00 00 	sw (fp+0),r16
  102668:	5b 6c 00 04 	sw (fp+4),r12
  10266c:	5b 8f 05 8c 	sw (sp+1420),r15
  102670:	5b 8d 05 88 	sw (sp+1416),r13
  102674:	49 ae 00 69 	bg r13,r14,102818 <_vfprintf_r+0x5dc>
  102678:	37 7b 00 08 	addi fp,fp,8
  10267c:	37 67 00 08 	addi r7,fp,8
  102680:	35 6b ff f0 	addi r11,r11,-16
  102684:	49 6c ff f6 	bg r11,r12,10265c <_vfprintf_r+0x420>
  102688:	b5 eb 78 00 	add r15,r15,r11
  10268c:	35 ad 00 01 	addi r13,r13,1
  102690:	5b 70 00 00 	sw (fp+0),r16
  102694:	5b 6b 00 04 	sw (fp+4),r11
  102698:	5b 8f 05 8c 	sw (sp+1420),r15
  10269c:	5b 8d 05 88 	sw (sp+1416),r13
  1026a0:	34 05 00 07 	mvi r5,7
  1026a4:	49 a5 01 a4 	bg r13,r5,102d34 <_vfprintf_r+0xaf8>
  1026a8:	34 ee 00 08 	addi r14,r7,8
  1026ac:	b8 e0 d8 00 	mv fp,r7
  1026b0:	23 04 01 00 	andi r4,r24,0x100
  1026b4:	5c 80 00 83 	bne r4,r0,1028c0 <_vfprintf_r+0x684>
  1026b8:	b5 f2 78 00 	add r15,r15,r18
  1026bc:	35 ad 00 01 	addi r13,r13,1
  1026c0:	5b 76 00 00 	sw (fp+0),r22
  1026c4:	5b 72 00 04 	sw (fp+4),r18
  1026c8:	5b 8f 05 8c 	sw (sp+1420),r15
  1026cc:	5b 8d 05 88 	sw (sp+1416),r13
  1026d0:	34 05 00 07 	mvi r5,7
  1026d4:	4c ad 00 08 	bge r5,r13,1026f4 <_vfprintf_r+0x4b8>
  1026d8:	2b 82 00 50 	lw r2,(sp+80)
  1026dc:	bb 20 08 00 	mv r1,r25
  1026e0:	37 83 05 84 	addi r3,sp,1412
  1026e4:	f8 00 16 2b 	calli 107f90 <__sprint_r>
  1026e8:	5c 20 00 5c 	bne r1,r0,102858 <_vfprintf_r+0x61c>
  1026ec:	2b 8f 05 8c 	lw r15,(sp+1420)
  1026f0:	37 8e 05 1c 	addi r14,sp,1308
  1026f4:	23 04 00 04 	andi r4,r24,0x4
  1026f8:	44 80 00 05 	be r4,r0,10270c <_vfprintf_r+0x4d0>
  1026fc:	2b 82 00 60 	lw r2,(sp+96)
  102700:	2b 81 00 54 	lw r1,(sp+84)
  102704:	c8 41 58 00 	sub r11,r2,r1
  102708:	49 60 01 12 	bg r11,r0,102b50 <_vfprintf_r+0x914>
  10270c:	2b 84 00 54 	lw r4,(sp+84)
  102710:	2b 82 00 60 	lw r2,(sp+96)
  102714:	4c 82 00 02 	bge r4,r2,10271c <_vfprintf_r+0x4e0>
  102718:	b8 40 20 00 	mv r4,r2
  10271c:	2b 81 00 5c 	lw r1,(sp+92)
  102720:	b4 24 08 00 	add r1,r1,r4
  102724:	5b 81 00 5c 	sw (sp+92),r1
  102728:	5d e0 01 34 	bne r15,r0,102bf8 <_vfprintf_r+0x9bc>
  10272c:	5b 80 05 88 	sw (sp+1416),r0
  102730:	42 e6 00 00 	lbu r6,(r23+0)
  102734:	37 9b 05 1c 	addi fp,sp,1308
  102738:	7c c5 00 00 	cmpnei r5,r6,0
  10273c:	7c c4 00 25 	cmpnei r4,r6,37
  102740:	a0 a4 20 00 	and r4,r5,r4
  102744:	5c 80 ff 38 	bne r4,r0,102424 <_vfprintf_r+0x1e8>
  102748:	ba e0 58 00 	mv r11,r23
  10274c:	e3 ff ff 4e 	bi 102484 <_vfprintf_r+0x248>
  102750:	2b 81 00 58 	lw r1,(sp+88)
  102754:	34 0a 00 00 	mvi r10,0
  102758:	28 2c 00 00 	lw r12,(r1+0)
  10275c:	34 21 00 04 	addi r1,r1,4
  102760:	5b 81 00 58 	sw (sp+88),r1
  102764:	7d 89 00 00 	cmpnei r9,r12,0
  102768:	33 80 05 a7 	sb (sp+1447),r0
  10276c:	e3 ff ff 67 	bi 102508 <_vfprintf_r+0x2cc>
  102770:	3b 18 00 10 	ori r24,r24,0x10
  102774:	23 08 00 10 	andi r8,r24,0x10
  102778:	5d 00 00 0b 	bne r8,r0,1027a4 <_vfprintf_r+0x568>
  10277c:	23 07 00 40 	andi r7,r24,0x40
  102780:	44 e8 00 09 	be r7,r8,1027a4 <_vfprintf_r+0x568>
  102784:	2b 82 00 58 	lw r2,(sp+88)
  102788:	34 0a 00 01 	mvi r10,1
  10278c:	2c 4c 00 02 	lhu r12,(r2+2)
  102790:	34 42 00 04 	addi r2,r2,4
  102794:	5b 82 00 58 	sw (sp+88),r2
  102798:	7d 89 00 00 	cmpnei r9,r12,0
  10279c:	33 80 05 a7 	sb (sp+1447),r0
  1027a0:	e3 ff ff 5a 	bi 102508 <_vfprintf_r+0x2cc>
  1027a4:	2b 81 00 58 	lw r1,(sp+88)
  1027a8:	34 0a 00 01 	mvi r10,1
  1027ac:	28 2c 00 00 	lw r12,(r1+0)
  1027b0:	34 21 00 04 	addi r1,r1,4
  1027b4:	5b 81 00 58 	sw (sp+88),r1
  1027b8:	7d 89 00 00 	cmpnei r9,r12,0
  1027bc:	33 80 05 a7 	sb (sp+1447),r0
  1027c0:	e3 ff ff 52 	bi 102508 <_vfprintf_r+0x2cc>
  1027c4:	2b 81 00 58 	lw r1,(sp+88)
  1027c8:	2b 82 00 58 	lw r2,(sp+88)
  1027cc:	28 21 00 00 	lw r1,(r1+0)
  1027d0:	34 42 00 04 	addi r2,r2,4
  1027d4:	5b 82 00 58 	sw (sp+88),r2
  1027d8:	5b 81 00 60 	sw (sp+96),r1
  1027dc:	4c 20 ff 34 	bge r1,r0,1024ac <_vfprintf_r+0x270>
  1027e0:	c8 01 08 00 	sub r1,r0,r1
  1027e4:	5b 81 00 60 	sw (sp+96),r1
  1027e8:	3b 18 00 04 	ori r24,r24,0x4
  1027ec:	e3 ff ff 30 	bi 1024ac <_vfprintf_r+0x270>
  1027f0:	34 12 00 00 	mvi r18,0
  1027f4:	37 96 05 84 	addi r22,sp,1412
  1027f8:	5d 52 ff 5d 	bne r10,r18,10256c <_vfprintf_r+0x330>
  1027fc:	23 07 00 01 	andi r7,r24,0x1
  102800:	44 f2 ff 5b 	be r7,r18,10256c <_vfprintf_r+0x330>
  102804:	34 07 00 30 	mvi r7,48
  102808:	33 87 05 83 	sb (sp+1411),r7
  10280c:	2b 92 00 b0 	lw r18,(sp+176)
  102810:	37 96 05 83 	addi r22,sp,1411
  102814:	e3 ff ff 56 	bi 10256c <_vfprintf_r+0x330>
  102818:	bb 20 08 00 	mv r1,r25
  10281c:	ba 20 10 00 	mv r2,r17
  102820:	37 83 05 84 	addi r3,sp,1412
  102824:	f8 00 15 db 	calli 107f90 <__sprint_r>
  102828:	5c 20 00 0c 	bne r1,r0,102858 <_vfprintf_r+0x61c>
  10282c:	2b 8f 05 8c 	lw r15,(sp+1420)
  102830:	2b 8d 05 88 	lw r13,(sp+1416)
  102834:	37 87 05 24 	addi r7,sp,1316
  102838:	37 9b 05 1c 	addi fp,sp,1308
  10283c:	e3 ff ff 91 	bi 102680 <_vfprintf_r+0x444>
  102840:	2b 83 05 8c 	lw r3,(sp+1420)
  102844:	44 60 00 05 	be r3,r0,102858 <_vfprintf_r+0x61c>
  102848:	2b 81 00 6c 	lw r1,(sp+108)
  10284c:	2b 82 00 50 	lw r2,(sp+80)
  102850:	37 83 05 84 	addi r3,sp,1412
  102854:	f8 00 15 cf 	calli 107f90 <__sprint_r>
  102858:	2b 81 00 50 	lw r1,(sp+80)
  10285c:	2c 22 00 0c 	lhu r2,(r1+12)
  102860:	20 42 00 40 	andi r2,r2,0x40
  102864:	44 40 00 03 	be r2,r0,102870 <_vfprintf_r+0x634>
  102868:	34 02 ff ff 	mvi r2,-1
  10286c:	5b 82 00 5c 	sw (sp+92),r2
  102870:	2b 81 00 5c 	lw r1,(sp+92)
  102874:	2b 9d 00 04 	lw ra,(sp+4)
  102878:	2b 8b 00 44 	lw r11,(sp+68)
  10287c:	2b 8c 00 40 	lw r12,(sp+64)
  102880:	2b 8d 00 3c 	lw r13,(sp+60)
  102884:	2b 8e 00 38 	lw r14,(sp+56)
  102888:	2b 8f 00 34 	lw r15,(sp+52)
  10288c:	2b 90 00 30 	lw r16,(sp+48)
  102890:	2b 91 00 2c 	lw r17,(sp+44)
  102894:	2b 92 00 28 	lw r18,(sp+40)
  102898:	2b 93 00 24 	lw r19,(sp+36)
  10289c:	2b 94 00 20 	lw r20,(sp+32)
  1028a0:	2b 95 00 1c 	lw r21,(sp+28)
  1028a4:	2b 96 00 18 	lw r22,(sp+24)
  1028a8:	2b 97 00 14 	lw r23,(sp+20)
  1028ac:	2b 98 00 10 	lw r24,(sp+16)
  1028b0:	2b 99 00 0c 	lw r25,(sp+12)
  1028b4:	2b 9b 00 08 	lw fp,(sp+8)
  1028b8:	37 9c 05 a4 	addi sp,sp,1444
  1028bc:	c3 a0 00 00 	ret
  1028c0:	34 05 00 65 	mvi r5,101
  1028c4:	4c b3 00 d3 	bge r5,r19,102c10 <_vfprintf_r+0x9d4>
  1028c8:	2b 81 00 94 	lw r1,(sp+148)
  1028cc:	2b 82 00 98 	lw r2,(sp+152)
  1028d0:	34 03 00 00 	mvi r3,0
  1028d4:	34 04 00 00 	mvi r4,0
  1028d8:	f8 00 21 8e 	calli 10af10 <__eqdf2>
  1028dc:	5c 20 01 5e 	bne r1,r0,102e54 <_vfprintf_r+0xc18>
  1028e0:	78 05 00 10 	mvhi r5,0x10
  1028e4:	38 a5 c9 08 	ori r5,r5,0xc908
  1028e8:	35 ef 00 01 	addi r15,r15,1
  1028ec:	35 ad 00 01 	addi r13,r13,1
  1028f0:	5b 65 00 00 	sw (fp+0),r5
  1028f4:	34 05 00 01 	mvi r5,1
  1028f8:	5b 65 00 04 	sw (fp+4),r5
  1028fc:	5b 8f 05 8c 	sw (sp+1420),r15
  102900:	5b 8d 05 88 	sw (sp+1416),r13
  102904:	34 05 00 07 	mvi r5,7
  102908:	4c ad 00 08 	bge r5,r13,102928 <_vfprintf_r+0x6ec>
  10290c:	2b 82 00 50 	lw r2,(sp+80)
  102910:	bb 20 08 00 	mv r1,r25
  102914:	37 83 05 84 	addi r3,sp,1412
  102918:	f8 00 15 9e 	calli 107f90 <__sprint_r>
  10291c:	5c 20 ff cf 	bne r1,r0,102858 <_vfprintf_r+0x61c>
  102920:	2b 8f 05 8c 	lw r15,(sp+1420)
  102924:	37 8e 05 1c 	addi r14,sp,1308
  102928:	2b 85 05 a0 	lw r5,(sp+1440)
  10292c:	2b 81 00 90 	lw r1,(sp+144)
  102930:	48 25 00 03 	bg r1,r5,10293c <_vfprintf_r+0x700>
  102934:	23 05 00 01 	andi r5,r24,0x1
  102938:	44 a0 ff 6f 	be r5,r0,1026f4 <_vfprintf_r+0x4b8>
  10293c:	2b 8d 05 88 	lw r13,(sp+1416)
  102940:	2b 82 00 9c 	lw r2,(sp+156)
  102944:	2b 81 00 8c 	lw r1,(sp+140)
  102948:	35 ad 00 01 	addi r13,r13,1
  10294c:	b5 e2 78 00 	add r15,r15,r2
  102950:	59 c1 00 00 	sw (r14+0),r1
  102954:	59 c2 00 04 	sw (r14+4),r2
  102958:	5b 8f 05 8c 	sw (sp+1420),r15
  10295c:	5b 8d 05 88 	sw (sp+1416),r13
  102960:	34 05 00 07 	mvi r5,7
  102964:	49 a5 04 52 	bg r13,r5,103aac <_vfprintf_r+0x1870>
  102968:	35 c5 00 08 	addi r5,r14,8
  10296c:	2b 82 00 90 	lw r2,(sp+144)
  102970:	34 4b ff ff 	addi r11,r2,-1
  102974:	4c 0b 04 56 	bge r0,r11,103acc <_vfprintf_r+0x1890>
  102978:	34 07 00 10 	mvi r7,16
  10297c:	49 67 01 de 	bg r11,r7,1030f4 <_vfprintf_r+0xeb8>
  102980:	2b 8d 05 88 	lw r13,(sp+1416)
  102984:	78 10 00 10 	mvhi r16,0x10
  102988:	34 ae 00 08 	addi r14,r5,8
  10298c:	3a 10 ca 70 	ori r16,r16,0xca70
  102990:	b5 eb 78 00 	add r15,r15,r11
  102994:	35 ad 00 01 	addi r13,r13,1
  102998:	58 b0 00 00 	sw (r5+0),r16
  10299c:	58 ab 00 04 	sw (r5+4),r11
  1029a0:	5b 8f 05 8c 	sw (sp+1420),r15
  1029a4:	5b 8d 05 88 	sw (sp+1416),r13
  1029a8:	34 05 00 07 	mvi r5,7
  1029ac:	4c ad ff 52 	bge r5,r13,1026f4 <_vfprintf_r+0x4b8>
  1029b0:	e3 ff ff 4a 	bi 1026d8 <_vfprintf_r+0x49c>
  1029b4:	34 07 00 10 	mvi r7,16
  1029b8:	49 87 00 06 	bg r12,r7,1029d0 <_vfprintf_r+0x794>
  1029bc:	37 68 00 08 	addi r8,fp,8
  1029c0:	2b 8f 05 8c 	lw r15,(sp+1420)
  1029c4:	2b 8d 05 88 	lw r13,(sp+1416)
  1029c8:	2b 95 00 64 	lw r21,(sp+100)
  1029cc:	e0 00 00 1f 	bi 102a48 <_vfprintf_r+0x80c>
  1029d0:	2b 95 00 64 	lw r21,(sp+100)
  1029d4:	5b 97 00 a8 	sw (sp+168),r23
  1029d8:	2b 8f 05 8c 	lw r15,(sp+1420)
  1029dc:	ba 20 b8 00 	mv r23,r17
  1029e0:	5b 95 00 ac 	sw (sp+172),r21
  1029e4:	2b 8d 05 88 	lw r13,(sp+1416)
  1029e8:	ba 80 a8 00 	mv r21,r20
  1029ec:	2b 91 00 50 	lw r17,(sp+80)
  1029f0:	ba 40 a0 00 	mv r20,r18
  1029f4:	b9 60 90 00 	mv r18,r11
  1029f8:	2b 8b 00 64 	lw r11,(sp+100)
  1029fc:	34 0e 00 10 	mvi r14,16
  102a00:	34 10 00 07 	mvi r16,7
  102a04:	35 ef 00 10 	addi r15,r15,16
  102a08:	35 ad 00 01 	addi r13,r13,1
  102a0c:	5b 6b 00 00 	sw (fp+0),r11
  102a10:	5b 6e 00 04 	sw (fp+4),r14
  102a14:	5b 8f 05 8c 	sw (sp+1420),r15
  102a18:	5b 8d 05 88 	sw (sp+1416),r13
  102a1c:	49 b0 00 16 	bg r13,r16,102a74 <_vfprintf_r+0x838>
  102a20:	37 7b 00 08 	addi fp,fp,8
  102a24:	37 68 00 08 	addi r8,fp,8
  102a28:	35 8c ff f0 	addi r12,r12,-16
  102a2c:	49 8e ff f6 	bg r12,r14,102a04 <_vfprintf_r+0x7c8>
  102a30:	ba 40 58 00 	mv r11,r18
  102a34:	ba e0 88 00 	mv r17,r23
  102a38:	ba 80 90 00 	mv r18,r20
  102a3c:	2b 97 00 a8 	lw r23,(sp+168)
  102a40:	ba a0 a0 00 	mv r20,r21
  102a44:	2b 95 00 ac 	lw r21,(sp+172)
  102a48:	b5 ec 78 00 	add r15,r15,r12
  102a4c:	35 ad 00 01 	addi r13,r13,1
  102a50:	5b 75 00 00 	sw (fp+0),r21
  102a54:	5b 6c 00 04 	sw (fp+4),r12
  102a58:	5b 8f 05 8c 	sw (sp+1420),r15
  102a5c:	5b 8d 05 88 	sw (sp+1416),r13
  102a60:	34 07 00 07 	mvi r7,7
  102a64:	49 a7 02 ea 	bg r13,r7,10360c <_vfprintf_r+0x13d0>
  102a68:	35 0e 00 08 	addi r14,r8,8
  102a6c:	b9 00 d8 00 	mv fp,r8
  102a70:	e3 ff fe d5 	bi 1025c4 <_vfprintf_r+0x388>
  102a74:	bb 20 08 00 	mv r1,r25
  102a78:	ba 20 10 00 	mv r2,r17
  102a7c:	37 83 05 84 	addi r3,sp,1412
  102a80:	f8 00 15 44 	calli 107f90 <__sprint_r>
  102a84:	5c 20 ff 75 	bne r1,r0,102858 <_vfprintf_r+0x61c>
  102a88:	2b 8f 05 8c 	lw r15,(sp+1420)
  102a8c:	2b 8d 05 88 	lw r13,(sp+1416)
  102a90:	37 88 05 24 	addi r8,sp,1316
  102a94:	37 9b 05 1c 	addi fp,sp,1308
  102a98:	e3 ff ff e4 	bi 102a28 <_vfprintf_r+0x7ec>
  102a9c:	2b 81 00 60 	lw r1,(sp+96)
  102aa0:	2b 82 00 54 	lw r2,(sp+84)
  102aa4:	c8 22 60 00 	sub r12,r1,r2
  102aa8:	49 80 00 03 	bg r12,r0,102ab4 <_vfprintf_r+0x878>
  102aac:	37 6e 00 08 	addi r14,fp,8
  102ab0:	e3 ff fe e2 	bi 102638 <_vfprintf_r+0x3fc>
  102ab4:	34 07 00 10 	mvi r7,16
  102ab8:	4c ec 04 45 	bge r7,r12,103bcc <_vfprintf_r+0x1990>
  102abc:	2b 94 00 50 	lw r20,(sp+80)
  102ac0:	78 10 00 10 	mvhi r16,0x10
  102ac4:	3a 10 ca 70 	ori r16,r16,0xca70
  102ac8:	34 0e 00 10 	mvi r14,16
  102acc:	34 11 00 07 	mvi r17,7
  102ad0:	35 ef 00 10 	addi r15,r15,16
  102ad4:	35 ad 00 01 	addi r13,r13,1
  102ad8:	5b 70 00 00 	sw (fp+0),r16
  102adc:	5b 6e 00 04 	sw (fp+4),r14
  102ae0:	5b 8f 05 8c 	sw (sp+1420),r15
  102ae4:	5b 8d 05 88 	sw (sp+1416),r13
  102ae8:	49 b1 00 10 	bg r13,r17,102b28 <_vfprintf_r+0x8ec>
  102aec:	37 7b 00 08 	addi fp,fp,8
  102af0:	37 68 00 08 	addi r8,fp,8
  102af4:	35 8c ff f0 	addi r12,r12,-16
  102af8:	49 8e ff f6 	bg r12,r14,102ad0 <_vfprintf_r+0x894>
  102afc:	b5 ec 78 00 	add r15,r15,r12
  102b00:	35 ad 00 01 	addi r13,r13,1
  102b04:	5b 70 00 00 	sw (fp+0),r16
  102b08:	5b 6c 00 04 	sw (fp+4),r12
  102b0c:	5b 8f 05 8c 	sw (sp+1420),r15
  102b10:	5b 8d 05 88 	sw (sp+1416),r13
  102b14:	34 07 00 07 	mvi r7,7
  102b18:	49 a7 02 db 	bg r13,r7,103684 <_vfprintf_r+0x1448>
  102b1c:	35 0e 00 08 	addi r14,r8,8
  102b20:	b9 00 d8 00 	mv fp,r8
  102b24:	e3 ff fe c5 	bi 102638 <_vfprintf_r+0x3fc>
  102b28:	bb 20 08 00 	mv r1,r25
  102b2c:	ba 80 10 00 	mv r2,r20
  102b30:	37 83 05 84 	addi r3,sp,1412
  102b34:	f8 00 15 17 	calli 107f90 <__sprint_r>
  102b38:	5c 20 ff 48 	bne r1,r0,102858 <_vfprintf_r+0x61c>
  102b3c:	2b 8f 05 8c 	lw r15,(sp+1420)
  102b40:	2b 8d 05 88 	lw r13,(sp+1416)
  102b44:	37 88 05 24 	addi r8,sp,1316
  102b48:	37 9b 05 1c 	addi fp,sp,1308
  102b4c:	e3 ff ff ea 	bi 102af4 <_vfprintf_r+0x8b8>
  102b50:	34 05 00 10 	mvi r5,16
  102b54:	4c ab 03 ed 	bge r5,r11,103b08 <_vfprintf_r+0x18cc>
  102b58:	2b 95 00 64 	lw r21,(sp+100)
  102b5c:	2b 8d 05 88 	lw r13,(sp+1416)
  102b60:	2b 92 00 50 	lw r18,(sp+80)
  102b64:	34 0c 00 10 	mvi r12,16
  102b68:	34 10 00 07 	mvi r16,7
  102b6c:	ba a0 88 00 	mv r17,r21
  102b70:	35 ef 00 10 	addi r15,r15,16
  102b74:	35 ad 00 01 	addi r13,r13,1
  102b78:	59 d1 00 00 	sw (r14+0),r17
  102b7c:	59 cc 00 04 	sw (r14+4),r12
  102b80:	5b 8f 05 8c 	sw (sp+1420),r15
  102b84:	5b 8d 05 88 	sw (sp+1416),r13
  102b88:	49 b0 00 13 	bg r13,r16,102bd4 <_vfprintf_r+0x998>
  102b8c:	35 ce 00 08 	addi r14,r14,8
  102b90:	35 6b ff f0 	addi r11,r11,-16
  102b94:	49 6c ff f7 	bg r11,r12,102b70 <_vfprintf_r+0x934>
  102b98:	b5 6f 78 00 	add r15,r11,r15
  102b9c:	35 ad 00 01 	addi r13,r13,1
  102ba0:	59 d5 00 00 	sw (r14+0),r21
  102ba4:	59 cb 00 04 	sw (r14+4),r11
  102ba8:	5b 8f 05 8c 	sw (sp+1420),r15
  102bac:	5b 8d 05 88 	sw (sp+1416),r13
  102bb0:	34 05 00 07 	mvi r5,7
  102bb4:	4c ad fe d6 	bge r5,r13,10270c <_vfprintf_r+0x4d0>
  102bb8:	2b 82 00 50 	lw r2,(sp+80)
  102bbc:	bb 20 08 00 	mv r1,r25
  102bc0:	37 83 05 84 	addi r3,sp,1412
  102bc4:	f8 00 14 f3 	calli 107f90 <__sprint_r>
  102bc8:	5c 20 ff 24 	bne r1,r0,102858 <_vfprintf_r+0x61c>
  102bcc:	2b 8f 05 8c 	lw r15,(sp+1420)
  102bd0:	e3 ff fe cf 	bi 10270c <_vfprintf_r+0x4d0>
  102bd4:	bb 20 08 00 	mv r1,r25
  102bd8:	ba 40 10 00 	mv r2,r18
  102bdc:	37 83 05 84 	addi r3,sp,1412
  102be0:	f8 00 14 ec 	calli 107f90 <__sprint_r>
  102be4:	5c 20 ff 1d 	bne r1,r0,102858 <_vfprintf_r+0x61c>
  102be8:	2b 8f 05 8c 	lw r15,(sp+1420)
  102bec:	2b 8d 05 88 	lw r13,(sp+1416)
  102bf0:	37 8e 05 1c 	addi r14,sp,1308
  102bf4:	e3 ff ff e7 	bi 102b90 <_vfprintf_r+0x954>
  102bf8:	2b 82 00 50 	lw r2,(sp+80)
  102bfc:	bb 20 08 00 	mv r1,r25
  102c00:	37 83 05 84 	addi r3,sp,1412
  102c04:	f8 00 14 e3 	calli 107f90 <__sprint_r>
  102c08:	44 20 fe c9 	be r1,r0,10272c <_vfprintf_r+0x4f0>
  102c0c:	e3 ff ff 13 	bi 102858 <_vfprintf_r+0x61c>
  102c10:	2b 82 00 90 	lw r2,(sp+144)
  102c14:	34 08 00 01 	mvi r8,1
  102c18:	48 48 00 0e 	bg r2,r8,102c50 <_vfprintf_r+0xa14>
  102c1c:	23 05 00 01 	andi r5,r24,0x1
  102c20:	5c a0 00 0c 	bne r5,r0,102c50 <_vfprintf_r+0xa14>
  102c24:	35 ef 00 01 	addi r15,r15,1
  102c28:	35 ad 00 01 	addi r13,r13,1
  102c2c:	5b 76 00 00 	sw (fp+0),r22
  102c30:	5b 68 00 04 	sw (fp+4),r8
  102c34:	5b 8f 05 8c 	sw (sp+1420),r15
  102c38:	5b 8d 05 88 	sw (sp+1416),r13
  102c3c:	34 05 00 07 	mvi r5,7
  102c40:	49 a5 03 75 	bg r13,r5,103a14 <_vfprintf_r+0x17d8>
  102c44:	b9 c0 88 00 	mv r17,r14
  102c48:	35 ce 00 08 	addi r14,r14,8
  102c4c:	e0 00 00 28 	bi 102cec <_vfprintf_r+0xab0>
  102c50:	34 05 00 01 	mvi r5,1
  102c54:	35 ef 00 01 	addi r15,r15,1
  102c58:	35 ad 00 01 	addi r13,r13,1
  102c5c:	5b 65 00 04 	sw (fp+4),r5
  102c60:	5b 76 00 00 	sw (fp+0),r22
  102c64:	5b 8f 05 8c 	sw (sp+1420),r15
  102c68:	5b 8d 05 88 	sw (sp+1416),r13
  102c6c:	34 05 00 07 	mvi r5,7
  102c70:	49 a5 02 7b 	bg r13,r5,10365c <_vfprintf_r+0x1420>
  102c74:	35 cb 00 08 	addi r11,r14,8
  102c78:	2b 81 00 9c 	lw r1,(sp+156)
  102c7c:	2b 82 00 8c 	lw r2,(sp+140)
  102c80:	35 ad 00 01 	addi r13,r13,1
  102c84:	b5 e1 78 00 	add r15,r15,r1
  102c88:	59 c2 00 00 	sw (r14+0),r2
  102c8c:	59 c1 00 04 	sw (r14+4),r1
  102c90:	5b 8f 05 8c 	sw (sp+1420),r15
  102c94:	5b 8d 05 88 	sw (sp+1416),r13
  102c98:	34 05 00 07 	mvi r5,7
  102c9c:	49 a5 02 66 	bg r13,r5,103634 <_vfprintf_r+0x13f8>
  102ca0:	35 71 00 08 	addi r17,r11,8
  102ca4:	2b 81 00 94 	lw r1,(sp+148)
  102ca8:	2b 82 00 98 	lw r2,(sp+152)
  102cac:	34 03 00 00 	mvi r3,0
  102cb0:	34 04 00 00 	mvi r4,0
  102cb4:	f8 00 20 97 	calli 10af10 <__eqdf2>
  102cb8:	44 20 00 b4 	be r1,r0,102f88 <_vfprintf_r+0xd4c>
  102cbc:	2b 81 00 90 	lw r1,(sp+144)
  102cc0:	36 c5 00 01 	addi r5,r22,1
  102cc4:	35 ad 00 01 	addi r13,r13,1
  102cc8:	34 28 ff ff 	addi r8,r1,-1
  102ccc:	b5 e8 78 00 	add r15,r15,r8
  102cd0:	59 65 00 00 	sw (r11+0),r5
  102cd4:	59 68 00 04 	sw (r11+4),r8
  102cd8:	5b 8f 05 8c 	sw (sp+1420),r15
  102cdc:	5b 8d 05 88 	sw (sp+1416),r13
  102ce0:	34 05 00 07 	mvi r5,7
  102ce4:	49 a5 01 e4 	bg r13,r5,103474 <_vfprintf_r+0x1238>
  102ce8:	36 2e 00 08 	addi r14,r17,8
  102cec:	2b 81 00 a0 	lw r1,(sp+160)
  102cf0:	37 85 05 90 	addi r5,sp,1424
  102cf4:	35 ad 00 01 	addi r13,r13,1
  102cf8:	b5 e1 78 00 	add r15,r15,r1
  102cfc:	5a 25 00 00 	sw (r17+0),r5
  102d00:	5a 21 00 04 	sw (r17+4),r1
  102d04:	5b 8f 05 8c 	sw (sp+1420),r15
  102d08:	5b 8d 05 88 	sw (sp+1416),r13
  102d0c:	34 05 00 07 	mvi r5,7
  102d10:	4c ad fe 79 	bge r5,r13,1026f4 <_vfprintf_r+0x4b8>
  102d14:	e3 ff fe 71 	bi 1026d8 <_vfprintf_r+0x49c>
  102d18:	2b 82 00 50 	lw r2,(sp+80)
  102d1c:	bb 20 08 00 	mv r1,r25
  102d20:	37 83 05 84 	addi r3,sp,1412
  102d24:	f8 00 14 9b 	calli 107f90 <__sprint_r>
  102d28:	5c 20 fe cc 	bne r1,r0,102858 <_vfprintf_r+0x61c>
  102d2c:	37 9b 05 1c 	addi fp,sp,1308
  102d30:	e3 ff fd d1 	bi 102474 <_vfprintf_r+0x238>
  102d34:	2b 82 00 50 	lw r2,(sp+80)
  102d38:	bb 20 08 00 	mv r1,r25
  102d3c:	37 83 05 84 	addi r3,sp,1412
  102d40:	f8 00 14 94 	calli 107f90 <__sprint_r>
  102d44:	5c 20 fe c5 	bne r1,r0,102858 <_vfprintf_r+0x61c>
  102d48:	2b 8f 05 8c 	lw r15,(sp+1420)
  102d4c:	2b 8d 05 88 	lw r13,(sp+1416)
  102d50:	37 8e 05 24 	addi r14,sp,1316
  102d54:	37 9b 05 1c 	addi fp,sp,1308
  102d58:	e3 ff fe 56 	bi 1026b0 <_vfprintf_r+0x474>
  102d5c:	2b 82 00 50 	lw r2,(sp+80)
  102d60:	bb 20 08 00 	mv r1,r25
  102d64:	37 83 05 84 	addi r3,sp,1412
  102d68:	f8 00 14 8a 	calli 107f90 <__sprint_r>
  102d6c:	5c 20 fe bb 	bne r1,r0,102858 <_vfprintf_r+0x61c>
  102d70:	2b 8f 05 8c 	lw r15,(sp+1420)
  102d74:	2b 8d 05 88 	lw r13,(sp+1416)
  102d78:	37 8e 05 24 	addi r14,sp,1316
  102d7c:	37 9b 05 1c 	addi fp,sp,1308
  102d80:	e3 ff fe 1f 	bi 1025fc <_vfprintf_r+0x3c0>
  102d84:	2b 82 00 50 	lw r2,(sp+80)
  102d88:	bb 20 08 00 	mv r1,r25
  102d8c:	37 83 05 84 	addi r3,sp,1412
  102d90:	f8 00 14 80 	calli 107f90 <__sprint_r>
  102d94:	5c 20 fe b1 	bne r1,r0,102858 <_vfprintf_r+0x61c>
  102d98:	2b 8f 05 8c 	lw r15,(sp+1420)
  102d9c:	2b 8d 05 88 	lw r13,(sp+1416)
  102da0:	37 8e 05 24 	addi r14,sp,1316
  102da4:	37 9b 05 1c 	addi fp,sp,1308
  102da8:	e3 ff fe 22 	bi 102630 <_vfprintf_r+0x3f4>
  102dac:	2b 82 00 50 	lw r2,(sp+80)
  102db0:	1c 46 00 0e 	lh r6,(r2+14)
  102db4:	48 06 fd 55 	bg r0,r6,102308 <_vfprintf_r+0xcc>
  102db8:	28 4e 00 64 	lw r14,(r2+100)
  102dbc:	28 4a 00 1c 	lw r10,(r2+28)
  102dc0:	28 49 00 24 	lw r9,(r2+36)
  102dc4:	2b 81 00 6c 	lw r1,(sp+108)
  102dc8:	2b 84 00 58 	lw r4,(sp+88)
  102dcc:	34 03 ff fd 	mvi r3,-3
  102dd0:	37 8d 04 b4 	addi r13,sp,1204
  102dd4:	a0 a3 28 00 	and r5,r5,r3
  102dd8:	37 88 00 b4 	addi r8,sp,180
  102ddc:	34 07 04 00 	mvi r7,1024
  102de0:	b9 a0 10 00 	mv r2,r13
  102de4:	b9 60 18 00 	mv r3,r11
  102de8:	0f 85 04 c0 	sh (sp+1216),r5
  102dec:	5b 8e 05 18 	sw (sp+1304),r14
  102df0:	0f 86 04 c2 	sh (sp+1218),r6
  102df4:	5b 8a 04 d0 	sw (sp+1232),r10
  102df8:	5b 89 04 d8 	sw (sp+1240),r9
  102dfc:	5b 88 04 b4 	sw (sp+1204),r8
  102e00:	5b 88 04 c4 	sw (sp+1220),r8
  102e04:	5b 87 04 bc 	sw (sp+1212),r7
  102e08:	5b 87 04 c8 	sw (sp+1224),r7
  102e0c:	5b 80 04 cc 	sw (sp+1228),r0
  102e10:	fb ff fd 0b 	calli 10223c <_vfprintf_r>
  102e14:	5b 81 00 5c 	sw (sp+92),r1
  102e18:	48 01 00 05 	bg r0,r1,102e2c <_vfprintf_r+0xbf0>
  102e1c:	2b 81 00 6c 	lw r1,(sp+108)
  102e20:	b9 a0 10 00 	mv r2,r13
  102e24:	f8 00 09 af 	calli 1054e0 <_fflush_r>
  102e28:	5c 20 03 b0 	bne r1,r0,103ce8 <_vfprintf_r+0x1aac>
  102e2c:	2f 83 04 c0 	lhu r3,(sp+1216)
  102e30:	20 63 00 40 	andi r3,r3,0x40
  102e34:	44 60 fe 8f 	be r3,r0,102870 <_vfprintf_r+0x634>
  102e38:	2b 82 00 50 	lw r2,(sp+80)
  102e3c:	2c 43 00 0c 	lhu r3,(r2+12)
  102e40:	38 63 00 40 	ori r3,r3,0x40
  102e44:	0c 43 00 0c 	sh (r2+12),r3
  102e48:	e3 ff fe 8a 	bi 102870 <_vfprintf_r+0x634>
  102e4c:	f8 00 0a 73 	calli 105818 <__sinit>
  102e50:	e3 ff fd 1a 	bi 1022b8 <_vfprintf_r+0x7c>
  102e54:	2b 8b 05 a0 	lw r11,(sp+1440)
  102e58:	49 60 00 52 	bg r11,r0,102fa0 <_vfprintf_r+0xd64>
  102e5c:	78 0a 00 10 	mvhi r10,0x10
  102e60:	34 08 00 01 	mvi r8,1
  102e64:	39 4a c9 08 	ori r10,r10,0xc908
  102e68:	35 ef 00 01 	addi r15,r15,1
  102e6c:	35 ad 00 01 	addi r13,r13,1
  102e70:	5b 68 00 04 	sw (fp+4),r8
  102e74:	5b 6a 00 00 	sw (fp+0),r10
  102e78:	5b 8f 05 8c 	sw (sp+1420),r15
  102e7c:	5b 8d 05 88 	sw (sp+1416),r13
  102e80:	34 08 00 07 	mvi r8,7
  102e84:	4d 0d 00 09 	bge r8,r13,102ea8 <_vfprintf_r+0xc6c>
  102e88:	2b 82 00 50 	lw r2,(sp+80)
  102e8c:	bb 20 08 00 	mv r1,r25
  102e90:	37 83 05 84 	addi r3,sp,1412
  102e94:	f8 00 14 3f 	calli 107f90 <__sprint_r>
  102e98:	5c 20 fe 70 	bne r1,r0,102858 <_vfprintf_r+0x61c>
  102e9c:	2b 8b 05 a0 	lw r11,(sp+1440)
  102ea0:	2b 8f 05 8c 	lw r15,(sp+1420)
  102ea4:	37 8e 05 1c 	addi r14,sp,1308
  102ea8:	5d 60 00 05 	bne r11,r0,102ebc <_vfprintf_r+0xc80>
  102eac:	2b 81 00 90 	lw r1,(sp+144)
  102eb0:	5c 2b 00 03 	bne r1,r11,102ebc <_vfprintf_r+0xc80>
  102eb4:	23 08 00 01 	andi r8,r24,0x1
  102eb8:	45 01 fe 0f 	be r8,r1,1026f4 <_vfprintf_r+0x4b8>
  102ebc:	2b 8d 05 88 	lw r13,(sp+1416)
  102ec0:	2b 82 00 9c 	lw r2,(sp+156)
  102ec4:	2b 81 00 8c 	lw r1,(sp+140)
  102ec8:	35 ad 00 01 	addi r13,r13,1
  102ecc:	b5 e2 78 00 	add r15,r15,r2
  102ed0:	59 c1 00 00 	sw (r14+0),r1
  102ed4:	59 c2 00 04 	sw (r14+4),r2
  102ed8:	5b 8f 05 8c 	sw (sp+1420),r15
  102edc:	5b 8d 05 88 	sw (sp+1416),r13
  102ee0:	34 08 00 07 	mvi r8,7
  102ee4:	49 a8 02 d6 	bg r13,r8,103a3c <_vfprintf_r+0x1800>
  102ee8:	35 ce 00 08 	addi r14,r14,8
  102eec:	c8 0b 58 00 	sub r11,r0,r11
  102ef0:	4c 0b 00 1b 	bge r0,r11,102f5c <_vfprintf_r+0xd20>
  102ef4:	34 08 00 10 	mvi r8,16
  102ef8:	4d 0b 03 79 	bge r8,r11,103cdc <_vfprintf_r+0x1aa0>
  102efc:	2b 92 00 50 	lw r18,(sp+80)
  102f00:	78 10 00 10 	mvhi r16,0x10
  102f04:	3a 10 ca 70 	ori r16,r16,0xca70
  102f08:	34 0c 00 10 	mvi r12,16
  102f0c:	34 11 00 07 	mvi r17,7
  102f10:	35 ef 00 10 	addi r15,r15,16
  102f14:	35 ad 00 01 	addi r13,r13,1
  102f18:	59 d0 00 00 	sw (r14+0),r16
  102f1c:	59 cc 00 04 	sw (r14+4),r12
  102f20:	5b 8f 05 8c 	sw (sp+1420),r15
  102f24:	5b 8d 05 88 	sw (sp+1416),r13
  102f28:	49 b1 02 d8 	bg r13,r17,103a88 <_vfprintf_r+0x184c>
  102f2c:	35 ce 00 08 	addi r14,r14,8
  102f30:	35 6b ff f0 	addi r11,r11,-16
  102f34:	49 6c ff f7 	bg r11,r12,102f10 <_vfprintf_r+0xcd4>
  102f38:	b5 eb 78 00 	add r15,r15,r11
  102f3c:	35 ad 00 01 	addi r13,r13,1
  102f40:	59 d0 00 00 	sw (r14+0),r16
  102f44:	59 cb 00 04 	sw (r14+4),r11
  102f48:	5b 8f 05 8c 	sw (sp+1420),r15
  102f4c:	5b 8d 05 88 	sw (sp+1416),r13
  102f50:	34 08 00 07 	mvi r8,7
  102f54:	49 a8 03 3d 	bg r13,r8,103c48 <_vfprintf_r+0x1a0c>
  102f58:	35 ce 00 08 	addi r14,r14,8
  102f5c:	2b 82 00 90 	lw r2,(sp+144)
  102f60:	35 ad 00 01 	addi r13,r13,1
  102f64:	59 d6 00 00 	sw (r14+0),r22
  102f68:	b5 e2 78 00 	add r15,r15,r2
  102f6c:	59 c2 00 04 	sw (r14+4),r2
  102f70:	5b 8f 05 8c 	sw (sp+1420),r15
  102f74:	5b 8d 05 88 	sw (sp+1416),r13
  102f78:	34 05 00 07 	mvi r5,7
  102f7c:	49 a5 fd d7 	bg r13,r5,1026d8 <_vfprintf_r+0x49c>
  102f80:	35 ce 00 08 	addi r14,r14,8
  102f84:	e3 ff fd dc 	bi 1026f4 <_vfprintf_r+0x4b8>
  102f88:	2b 82 00 90 	lw r2,(sp+144)
  102f8c:	34 4c ff ff 	addi r12,r2,-1
  102f90:	49 81 00 3e 	bg r12,r1,103088 <_vfprintf_r+0xe4c>
  102f94:	35 6e 00 08 	addi r14,r11,8
  102f98:	b9 60 88 00 	mv r17,r11
  102f9c:	e3 ff ff 54 	bi 102cec <_vfprintf_r+0xab0>
  102fa0:	2b 81 00 90 	lw r1,(sp+144)
  102fa4:	48 2b 02 54 	bg r1,r11,1038f4 <_vfprintf_r+0x16b8>
  102fa8:	b5 e1 78 00 	add r15,r15,r1
  102fac:	35 ad 00 01 	addi r13,r13,1
  102fb0:	5b 76 00 00 	sw (fp+0),r22
  102fb4:	5b 61 00 04 	sw (fp+4),r1
  102fb8:	5b 8f 05 8c 	sw (sp+1420),r15
  102fbc:	5b 8d 05 88 	sw (sp+1416),r13
  102fc0:	34 05 00 07 	mvi r5,7
  102fc4:	4c ad 00 09 	bge r5,r13,102fe8 <_vfprintf_r+0xdac>
  102fc8:	2b 82 00 50 	lw r2,(sp+80)
  102fcc:	bb 20 08 00 	mv r1,r25
  102fd0:	37 83 05 84 	addi r3,sp,1412
  102fd4:	f8 00 13 ef 	calli 107f90 <__sprint_r>
  102fd8:	5c 20 fe 20 	bne r1,r0,102858 <_vfprintf_r+0x61c>
  102fdc:	2b 8b 05 a0 	lw r11,(sp+1440)
  102fe0:	2b 8f 05 8c 	lw r15,(sp+1420)
  102fe4:	37 8e 05 1c 	addi r14,sp,1308
  102fe8:	2b 82 00 90 	lw r2,(sp+144)
  102fec:	c9 62 58 00 	sub r11,r11,r2
  102ff0:	4c 0b 00 17 	bge r0,r11,10304c <_vfprintf_r+0xe10>
  102ff4:	34 05 00 10 	mvi r5,16
  102ff8:	49 65 01 29 	bg r11,r5,10349c <_vfprintf_r+0x1260>
  102ffc:	2b 8d 05 88 	lw r13,(sp+1416)
  103000:	78 10 00 10 	mvhi r16,0x10
  103004:	b9 c0 28 00 	mv r5,r14
  103008:	3a 10 ca 70 	ori r16,r16,0xca70
  10300c:	35 ce 00 08 	addi r14,r14,8
  103010:	b5 eb 78 00 	add r15,r15,r11
  103014:	35 ad 00 01 	addi r13,r13,1
  103018:	58 b0 00 00 	sw (r5+0),r16
  10301c:	58 ab 00 04 	sw (r5+4),r11
  103020:	5b 8f 05 8c 	sw (sp+1420),r15
  103024:	5b 8d 05 88 	sw (sp+1416),r13
  103028:	34 05 00 07 	mvi r5,7
  10302c:	4c ad 00 08 	bge r5,r13,10304c <_vfprintf_r+0xe10>
  103030:	2b 82 00 50 	lw r2,(sp+80)
  103034:	bb 20 08 00 	mv r1,r25
  103038:	37 83 05 84 	addi r3,sp,1412
  10303c:	f8 00 13 d5 	calli 107f90 <__sprint_r>
  103040:	5c 20 fe 06 	bne r1,r0,102858 <_vfprintf_r+0x61c>
  103044:	2b 8f 05 8c 	lw r15,(sp+1420)
  103048:	37 8e 05 1c 	addi r14,sp,1308
  10304c:	23 05 00 01 	andi r5,r24,0x1
  103050:	44 a0 fd a9 	be r5,r0,1026f4 <_vfprintf_r+0x4b8>
  103054:	2b 8d 05 88 	lw r13,(sp+1416)
  103058:	2b 81 00 9c 	lw r1,(sp+156)
  10305c:	2b 82 00 8c 	lw r2,(sp+140)
  103060:	35 ad 00 01 	addi r13,r13,1
  103064:	b5 e1 78 00 	add r15,r15,r1
  103068:	59 c2 00 00 	sw (r14+0),r2
  10306c:	59 c1 00 04 	sw (r14+4),r1
  103070:	5b 8f 05 8c 	sw (sp+1420),r15
  103074:	5b 8d 05 88 	sw (sp+1416),r13
  103078:	34 05 00 07 	mvi r5,7
  10307c:	49 a5 fd 97 	bg r13,r5,1026d8 <_vfprintf_r+0x49c>
  103080:	35 ce 00 08 	addi r14,r14,8
  103084:	e3 ff fd 9c 	bi 1026f4 <_vfprintf_r+0x4b8>
  103088:	34 05 00 10 	mvi r5,16
  10308c:	4c ac 03 05 	bge r5,r12,103ca0 <_vfprintf_r+0x1a64>
  103090:	2b 93 00 50 	lw r19,(sp+80)
  103094:	78 10 00 10 	mvhi r16,0x10
  103098:	3a 10 ca 70 	ori r16,r16,0xca70
  10309c:	34 0e 00 10 	mvi r14,16
  1030a0:	34 12 00 07 	mvi r18,7
  1030a4:	35 ef 00 10 	addi r15,r15,16
  1030a8:	35 ad 00 01 	addi r13,r13,1
  1030ac:	59 70 00 00 	sw (r11+0),r16
  1030b0:	59 6e 00 04 	sw (r11+4),r14
  1030b4:	5b 8f 05 8c 	sw (sp+1420),r15
  1030b8:	5b 8d 05 88 	sw (sp+1416),r13
  1030bc:	49 b2 01 16 	bg r13,r18,103514 <_vfprintf_r+0x12d8>
  1030c0:	35 6b 00 08 	addi r11,r11,8
  1030c4:	35 71 00 08 	addi r17,r11,8
  1030c8:	35 8c ff f0 	addi r12,r12,-16
  1030cc:	49 8e ff f6 	bg r12,r14,1030a4 <_vfprintf_r+0xe68>
  1030d0:	b5 ec 78 00 	add r15,r15,r12
  1030d4:	35 ad 00 01 	addi r13,r13,1
  1030d8:	59 70 00 00 	sw (r11+0),r16
  1030dc:	59 6c 00 04 	sw (r11+4),r12
  1030e0:	5b 8f 05 8c 	sw (sp+1420),r15
  1030e4:	5b 8d 05 88 	sw (sp+1416),r13
  1030e8:	34 05 00 07 	mvi r5,7
  1030ec:	49 a5 00 e2 	bg r13,r5,103474 <_vfprintf_r+0x1238>
  1030f0:	e3 ff fe fe 	bi 102ce8 <_vfprintf_r+0xaac>
  1030f4:	2b 8d 05 88 	lw r13,(sp+1416)
  1030f8:	2b 92 00 50 	lw r18,(sp+80)
  1030fc:	78 10 00 10 	mvhi r16,0x10
  103100:	3a 10 ca 70 	ori r16,r16,0xca70
  103104:	34 0c 00 10 	mvi r12,16
  103108:	34 11 00 07 	mvi r17,7
  10310c:	35 ef 00 10 	addi r15,r15,16
  103110:	35 ad 00 01 	addi r13,r13,1
  103114:	58 b0 00 00 	sw (r5+0),r16
  103118:	58 ac 00 04 	sw (r5+4),r12
  10311c:	5b 8f 05 8c 	sw (sp+1420),r15
  103120:	5b 8d 05 88 	sw (sp+1416),r13
  103124:	49 b1 01 06 	bg r13,r17,10353c <_vfprintf_r+0x1300>
  103128:	34 a5 00 08 	addi r5,r5,8
  10312c:	34 ae 00 08 	addi r14,r5,8
  103130:	35 6b ff f0 	addi r11,r11,-16
  103134:	49 6c ff f6 	bg r11,r12,10310c <_vfprintf_r+0xed0>
  103138:	e3 ff fe 16 	bi 102990 <_vfprintf_r+0x754>
  10313c:	2b 82 00 58 	lw r2,(sp+88)
  103140:	2b 81 00 70 	lw r1,(sp+112)
  103144:	34 07 00 30 	mvi r7,48
  103148:	28 4c 00 00 	lw r12,(r2+0)
  10314c:	33 87 05 a4 	sb (sp+1444),r7
  103150:	34 42 00 04 	addi r2,r2,4
  103154:	34 07 00 78 	mvi r7,120
  103158:	3b 18 00 02 	ori r24,r24,0x2
  10315c:	33 87 05 a5 	sb (sp+1445),r7
  103160:	7d 89 00 00 	cmpnei r9,r12,0
  103164:	5b 82 00 58 	sw (sp+88),r2
  103168:	5b 81 00 a4 	sw (sp+164),r1
  10316c:	34 0a 00 02 	mvi r10,2
  103170:	34 13 00 78 	mvi r19,120
  103174:	33 80 05 a7 	sb (sp+1447),r0
  103178:	e3 ff fc e4 	bi 102508 <_vfprintf_r+0x2cc>
  10317c:	34 01 00 00 	mvi r1,0
  103180:	36 63 ff d0 	addi r3,r19,-48
  103184:	3c 22 00 01 	sli r2,r1,1
  103188:	42 f3 00 00 	lbu r19,(r23+0)
  10318c:	3c 21 00 03 	sli r1,r1,3
  103190:	36 f7 00 01 	addi r23,r23,1
  103194:	b4 41 08 00 	add r1,r2,r1
  103198:	b4 61 08 00 	add r1,r3,r1
  10319c:	36 63 ff d0 	addi r3,r19,-48
  1031a0:	51 03 ff f9 	bgeu r8,r3,103184 <_vfprintf_r+0xf48>
  1031a4:	5b 81 00 60 	sw (sp+96),r1
  1031a8:	e3 ff fc c3 	bi 1024b4 <_vfprintf_r+0x278>
  1031ac:	3b 18 00 10 	ori r24,r24,0x10
  1031b0:	33 89 05 a7 	sb (sp+1447),r9
  1031b4:	23 08 00 10 	andi r8,r24,0x10
  1031b8:	5d 00 00 6b 	bne r8,r0,103364 <_vfprintf_r+0x1128>
  1031bc:	23 07 00 40 	andi r7,r24,0x40
  1031c0:	44 e8 00 69 	be r7,r8,103364 <_vfprintf_r+0x1128>
  1031c4:	2b 81 00 58 	lw r1,(sp+88)
  1031c8:	28 2c 00 00 	lw r12,(r1+0)
  1031cc:	34 21 00 04 	addi r1,r1,4
  1031d0:	5b 81 00 58 	sw (sp+88),r1
  1031d4:	dd 80 60 00 	sexth r12,r12
  1031d8:	48 0c 01 35 	bg r0,r12,1036ac <_vfprintf_r+0x1470>
  1031dc:	7d 89 00 00 	cmpnei r9,r12,0
  1031e0:	34 0a 00 01 	mvi r10,1
  1031e4:	e3 ff fc c9 	bi 102508 <_vfprintf_r+0x2cc>
  1031e8:	33 89 05 a7 	sb (sp+1447),r9
  1031ec:	23 07 00 08 	andi r7,r24,0x8
  1031f0:	ba 60 80 00 	mv r16,r19
  1031f4:	44 e0 01 ad 	be r7,r0,1038a8 <_vfprintf_r+0x166c>
  1031f8:	2b 81 00 58 	lw r1,(sp+88)
  1031fc:	2b 82 00 58 	lw r2,(sp+88)
  103200:	28 21 00 00 	lw r1,(r1+0)
  103204:	28 42 00 04 	lw r2,(r2+4)
  103208:	5b 81 00 94 	sw (sp+148),r1
  10320c:	2b 81 00 58 	lw r1,(sp+88)
  103210:	5b 82 00 98 	sw (sp+152),r2
  103214:	34 21 00 08 	addi r1,r1,8
  103218:	5b 81 00 58 	sw (sp+88),r1
  10321c:	2b 81 00 94 	lw r1,(sp+148)
  103220:	2b 82 00 98 	lw r2,(sp+152)
  103224:	f8 00 12 83 	calli 107c30 <__fpclassifyd>
  103228:	34 07 00 01 	mvi r7,1
  10322c:	5c 27 01 24 	bne r1,r7,1036bc <_vfprintf_r+0x1480>
  103230:	2b 81 00 94 	lw r1,(sp+148)
  103234:	2b 82 00 98 	lw r2,(sp+152)
  103238:	34 03 00 00 	mvi r3,0
  10323c:	34 04 00 00 	mvi r4,0
  103240:	f8 00 1f ab 	calli 10b0ec <__ledf2>
  103244:	48 01 01 f0 	bg r0,r1,103a04 <_vfprintf_r+0x17c8>
  103248:	43 88 05 a7 	lbu r8,(sp+1447)
  10324c:	34 05 00 47 	mvi r5,71
  103250:	2b 96 00 78 	lw r22,(sp+120)
  103254:	4a 65 00 02 	bg r19,r5,10325c <_vfprintf_r+0x1020>
  103258:	2b 96 00 88 	lw r22,(sp+136)
  10325c:	34 05 ff 7f 	mvi r5,-129
  103260:	34 01 00 03 	mvi r1,3
  103264:	a3 05 c0 00 	and r24,r24,r5
  103268:	5b 81 00 54 	sw (sp+84),r1
  10326c:	34 12 00 03 	mvi r18,3
  103270:	34 0b 00 00 	mvi r11,0
  103274:	e3 ff fc c2 	bi 10257c <_vfprintf_r+0x340>
  103278:	3b 18 00 08 	ori r24,r24,0x8
  10327c:	e3 ff fc 8c 	bi 1024ac <_vfprintf_r+0x270>
  103280:	2b 82 00 74 	lw r2,(sp+116)
  103284:	33 89 05 a7 	sb (sp+1447),r9
  103288:	23 08 00 10 	andi r8,r24,0x10
  10328c:	5b 82 00 a4 	sw (sp+164),r2
  103290:	5d 00 00 41 	bne r8,r0,103394 <_vfprintf_r+0x1158>
  103294:	23 07 00 40 	andi r7,r24,0x40
  103298:	44 e8 00 3f 	be r7,r8,103394 <_vfprintf_r+0x1158>
  10329c:	2b 82 00 58 	lw r2,(sp+88)
  1032a0:	2c 4c 00 02 	lhu r12,(r2+2)
  1032a4:	34 42 00 04 	addi r2,r2,4
  1032a8:	5b 82 00 58 	sw (sp+88),r2
  1032ac:	7d 89 00 00 	cmpnei r9,r12,0
  1032b0:	34 0a 00 02 	mvi r10,2
  1032b4:	a3 09 40 00 	and r8,r24,r9
  1032b8:	45 00 fc 93 	be r8,r0,102504 <_vfprintf_r+0x2c8>
  1032bc:	34 07 00 30 	mvi r7,48
  1032c0:	33 87 05 a4 	sb (sp+1444),r7
  1032c4:	33 93 05 a5 	sb (sp+1445),r19
  1032c8:	3b 18 00 02 	ori r24,r24,0x2
  1032cc:	34 09 00 01 	mvi r9,1
  1032d0:	33 80 05 a7 	sb (sp+1447),r0
  1032d4:	e3 ff fc 8d 	bi 102508 <_vfprintf_r+0x2cc>
  1032d8:	33 89 05 a7 	sb (sp+1447),r9
  1032dc:	23 05 00 10 	andi r5,r24,0x10
  1032e0:	44 a0 01 7c 	be r5,r0,1038d0 <_vfprintf_r+0x1694>
  1032e4:	2b 81 00 58 	lw r1,(sp+88)
  1032e8:	2b 82 00 5c 	lw r2,(sp+92)
  1032ec:	28 24 00 00 	lw r4,(r1+0)
  1032f0:	34 21 00 04 	addi r1,r1,4
  1032f4:	5b 81 00 58 	sw (sp+88),r1
  1032f8:	58 82 00 00 	sw (r4+0),r2
  1032fc:	e3 ff fc 45 	bi 102410 <_vfprintf_r+0x1d4>
  103300:	33 89 05 a7 	sb (sp+1447),r9
  103304:	46 60 fd 4f 	be r19,r0,102840 <_vfprintf_r+0x604>
  103308:	34 01 00 01 	mvi r1,1
  10330c:	33 93 05 5c 	sb (sp+1372),r19
  103310:	33 80 05 a7 	sb (sp+1447),r0
  103314:	5b 81 00 54 	sw (sp+84),r1
  103318:	34 12 00 01 	mvi r18,1
  10331c:	37 96 05 5c 	addi r22,sp,1372
  103320:	34 0b 00 00 	mvi r11,0
  103324:	e3 ff fc 9a 	bi 10258c <_vfprintf_r+0x350>
  103328:	2b 82 00 58 	lw r2,(sp+88)
  10332c:	34 01 00 01 	mvi r1,1
  103330:	34 12 00 01 	mvi r18,1
  103334:	28 45 00 00 	lw r5,(r2+0)
  103338:	34 42 00 04 	addi r2,r2,4
  10333c:	5b 81 00 54 	sw (sp+84),r1
  103340:	33 80 05 a7 	sb (sp+1447),r0
  103344:	33 85 05 5c 	sb (sp+1372),r5
  103348:	5b 82 00 58 	sw (sp+88),r2
  10334c:	37 96 05 5c 	addi r22,sp,1372
  103350:	34 0b 00 00 	mvi r11,0
  103354:	e3 ff fc 8e 	bi 10258c <_vfprintf_r+0x350>
  103358:	33 89 05 a7 	sb (sp+1447),r9
  10335c:	23 08 00 10 	andi r8,r24,0x10
  103360:	45 00 ff 97 	be r8,r0,1031bc <_vfprintf_r+0xf80>
  103364:	2b 82 00 58 	lw r2,(sp+88)
  103368:	28 4c 00 00 	lw r12,(r2+0)
  10336c:	34 42 00 04 	addi r2,r2,4
  103370:	5b 82 00 58 	sw (sp+88),r2
  103374:	e3 ff ff 99 	bi 1031d8 <_vfprintf_r+0xf9c>
  103378:	3b 18 00 40 	ori r24,r24,0x40
  10337c:	e3 ff fc 4c 	bi 1024ac <_vfprintf_r+0x270>
  103380:	2b 82 00 70 	lw r2,(sp+112)
  103384:	33 89 05 a7 	sb (sp+1447),r9
  103388:	23 08 00 10 	andi r8,r24,0x10
  10338c:	5b 82 00 a4 	sw (sp+164),r2
  103390:	45 00 ff c1 	be r8,r0,103294 <_vfprintf_r+0x1058>
  103394:	2b 81 00 58 	lw r1,(sp+88)
  103398:	28 2c 00 00 	lw r12,(r1+0)
  10339c:	34 21 00 04 	addi r1,r1,4
  1033a0:	5b 81 00 58 	sw (sp+88),r1
  1033a4:	e3 ff ff c2 	bi 1032ac <_vfprintf_r+0x1070>
  1033a8:	34 09 00 2b 	mvi r9,43
  1033ac:	e3 ff fc 40 	bi 1024ac <_vfprintf_r+0x270>
  1033b0:	5d 20 fc 3f 	bne r9,r0,1024ac <_vfprintf_r+0x270>
  1033b4:	34 09 00 20 	mvi r9,32
  1033b8:	e3 ff fc 3d 	bi 1024ac <_vfprintf_r+0x270>
  1033bc:	3b 18 00 01 	ori r24,r24,0x1
  1033c0:	e3 ff fc 3b 	bi 1024ac <_vfprintf_r+0x270>
  1033c4:	3b 18 00 80 	ori r24,r24,0x80
  1033c8:	e3 ff fc 39 	bi 1024ac <_vfprintf_r+0x270>
  1033cc:	2b 82 00 58 	lw r2,(sp+88)
  1033d0:	33 80 05 a7 	sb (sp+1447),r0
  1033d4:	28 56 00 00 	lw r22,(r2+0)
  1033d8:	34 4c 00 04 	addi r12,r2,4
  1033dc:	46 c0 01 be 	be r22,r0,103ad4 <_vfprintf_r+0x1898>
  1033e0:	48 0b 00 42 	bg r0,r11,1034e8 <_vfprintf_r+0x12ac>
  1033e4:	ba c0 08 00 	mv r1,r22
  1033e8:	34 02 00 00 	mvi r2,0
  1033ec:	b9 60 18 00 	mv r3,r11
  1033f0:	f8 00 0d 94 	calli 106a40 <memchr>
  1033f4:	44 20 01 fd 	be r1,r0,103be8 <_vfprintf_r+0x19ac>
  1033f8:	c8 36 90 00 	sub r18,r1,r22
  1033fc:	4d 72 00 3e 	bge r11,r18,1034f4 <_vfprintf_r+0x12b8>
  103400:	a5 60 38 00 	not r7,r11
  103404:	43 88 05 a7 	lbu r8,(sp+1447)
  103408:	14 e7 00 1f 	sri r7,r7,31
  10340c:	a1 67 38 00 	and r7,r11,r7
  103410:	b9 60 90 00 	mv r18,r11
  103414:	5b 87 00 54 	sw (sp+84),r7
  103418:	5b 8c 00 58 	sw (sp+88),r12
  10341c:	34 0b 00 00 	mvi r11,0
  103420:	e3 ff fc 57 	bi 10257c <_vfprintf_r+0x340>
  103424:	42 f3 00 00 	lbu r19,(r23+0)
  103428:	36 f7 00 01 	addi r23,r23,1
  10342c:	46 6c 02 20 	be r19,r12,103cac <_vfprintf_r+0x1a70>
  103430:	34 0b 00 00 	mvi r11,0
  103434:	36 63 ff d0 	addi r3,r19,-48
  103438:	b9 60 08 00 	mv r1,r11
  10343c:	51 03 00 02 	bgeu r8,r3,103444 <_vfprintf_r+0x1208>
  103440:	e3 ff fc 1d 	bi 1024b4 <_vfprintf_r+0x278>
  103444:	3c 22 00 01 	sli r2,r1,1
  103448:	42 f3 00 00 	lbu r19,(r23+0)
  10344c:	3c 21 00 03 	sli r1,r1,3
  103450:	36 f7 00 01 	addi r23,r23,1
  103454:	b4 41 08 00 	add r1,r2,r1
  103458:	b4 23 08 00 	add r1,r1,r3
  10345c:	36 63 ff d0 	addi r3,r19,-48
  103460:	51 03 ff f9 	bgeu r8,r3,103444 <_vfprintf_r+0x1208>
  103464:	b8 20 58 00 	mv r11,r1
  103468:	4c 20 fc 13 	bge r1,r0,1024b4 <_vfprintf_r+0x278>
  10346c:	34 0b ff ff 	mvi r11,-1
  103470:	e3 ff fc 11 	bi 1024b4 <_vfprintf_r+0x278>
  103474:	2b 82 00 50 	lw r2,(sp+80)
  103478:	bb 20 08 00 	mv r1,r25
  10347c:	37 83 05 84 	addi r3,sp,1412
  103480:	f8 00 12 c4 	calli 107f90 <__sprint_r>
  103484:	5c 20 fc f5 	bne r1,r0,102858 <_vfprintf_r+0x61c>
  103488:	37 8e 05 24 	addi r14,sp,1316
  10348c:	37 91 05 1c 	addi r17,sp,1308
  103490:	2b 8f 05 8c 	lw r15,(sp+1420)
  103494:	2b 8d 05 88 	lw r13,(sp+1416)
  103498:	e3 ff fe 15 	bi 102cec <_vfprintf_r+0xab0>
  10349c:	2b 8d 05 88 	lw r13,(sp+1416)
  1034a0:	2b 92 00 50 	lw r18,(sp+80)
  1034a4:	78 10 00 10 	mvhi r16,0x10
  1034a8:	b9 c0 28 00 	mv r5,r14
  1034ac:	3a 10 ca 70 	ori r16,r16,0xca70
  1034b0:	34 0c 00 10 	mvi r12,16
  1034b4:	34 11 00 07 	mvi r17,7
  1034b8:	35 ef 00 10 	addi r15,r15,16
  1034bc:	35 ad 00 01 	addi r13,r13,1
  1034c0:	58 b0 00 00 	sw (r5+0),r16
  1034c4:	58 ac 00 04 	sw (r5+4),r12
  1034c8:	5b 8f 05 8c 	sw (sp+1420),r15
  1034cc:	5b 8d 05 88 	sw (sp+1416),r13
  1034d0:	49 b1 00 25 	bg r13,r17,103564 <_vfprintf_r+0x1328>
  1034d4:	34 a5 00 08 	addi r5,r5,8
  1034d8:	34 ae 00 08 	addi r14,r5,8
  1034dc:	35 6b ff f0 	addi r11,r11,-16
  1034e0:	49 6c ff f6 	bg r11,r12,1034b8 <_vfprintf_r+0x127c>
  1034e4:	e3 ff fe cb 	bi 103010 <_vfprintf_r+0xdd4>
  1034e8:	ba c0 08 00 	mv r1,r22
  1034ec:	f8 00 12 7a 	calli 107ed4 <strlen>
  1034f0:	b8 20 90 00 	mv r18,r1
  1034f4:	a6 40 38 00 	not r7,r18
  1034f8:	14 e7 00 1f 	sri r7,r7,31
  1034fc:	43 88 05 a7 	lbu r8,(sp+1447)
  103500:	a2 47 38 00 	and r7,r18,r7
  103504:	5b 87 00 54 	sw (sp+84),r7
  103508:	5b 8c 00 58 	sw (sp+88),r12
  10350c:	34 0b 00 00 	mvi r11,0
  103510:	e3 ff fc 1b 	bi 10257c <_vfprintf_r+0x340>
  103514:	bb 20 08 00 	mv r1,r25
  103518:	ba 60 10 00 	mv r2,r19
  10351c:	37 83 05 84 	addi r3,sp,1412
  103520:	f8 00 12 9c 	calli 107f90 <__sprint_r>
  103524:	5c 20 fc cd 	bne r1,r0,102858 <_vfprintf_r+0x61c>
  103528:	2b 8f 05 8c 	lw r15,(sp+1420)
  10352c:	2b 8d 05 88 	lw r13,(sp+1416)
  103530:	37 91 05 24 	addi r17,sp,1316
  103534:	37 8b 05 1c 	addi r11,sp,1308
  103538:	e3 ff fe e4 	bi 1030c8 <_vfprintf_r+0xe8c>
  10353c:	bb 20 08 00 	mv r1,r25
  103540:	ba 40 10 00 	mv r2,r18
  103544:	37 83 05 84 	addi r3,sp,1412
  103548:	f8 00 12 92 	calli 107f90 <__sprint_r>
  10354c:	5c 20 fc c3 	bne r1,r0,102858 <_vfprintf_r+0x61c>
  103550:	2b 8f 05 8c 	lw r15,(sp+1420)
  103554:	2b 8d 05 88 	lw r13,(sp+1416)
  103558:	37 8e 05 24 	addi r14,sp,1316
  10355c:	37 85 05 1c 	addi r5,sp,1308
  103560:	e3 ff fe f4 	bi 103130 <_vfprintf_r+0xef4>
  103564:	bb 20 08 00 	mv r1,r25
  103568:	ba 40 10 00 	mv r2,r18
  10356c:	37 83 05 84 	addi r3,sp,1412
  103570:	f8 00 12 88 	calli 107f90 <__sprint_r>
  103574:	5c 20 fc b9 	bne r1,r0,102858 <_vfprintf_r+0x61c>
  103578:	2b 8f 05 8c 	lw r15,(sp+1420)
  10357c:	2b 8d 05 88 	lw r13,(sp+1416)
  103580:	37 8e 05 24 	addi r14,sp,1316
  103584:	37 85 05 1c 	addi r5,sp,1308
  103588:	e3 ff ff d5 	bi 1034dc <_vfprintf_r+0x12a0>
  10358c:	b9 80 08 00 	mv r1,r12
  103590:	34 02 00 0a 	mvi r2,10
  103594:	fb ff fa 08 	calli 101db4 <__umodsi3>
  103598:	34 22 00 30 	addi r2,r1,48
  10359c:	35 ad ff ff 	addi r13,r13,-1
  1035a0:	31 a2 00 00 	sb (r13+0),r2
  1035a4:	b9 80 08 00 	mv r1,r12
  1035a8:	34 02 00 0a 	mvi r2,10
  1035ac:	fb ff f9 f2 	calli 101d74 <__udivsi3>
  1035b0:	b8 20 60 00 	mv r12,r1
  1035b4:	54 2e ff f6 	bgu r1,r14,10358c <_vfprintf_r+0x1350>
  1035b8:	35 8c 00 30 	addi r12,r12,48
  1035bc:	35 b6 ff ff 	addi r22,r13,-1
  1035c0:	31 ac ff ff 	sb (r13+-1),r12
  1035c4:	2b 81 00 4c 	lw r1,(sp+76)
  1035c8:	c8 36 90 00 	sub r18,r1,r22
  1035cc:	e3 ff fb e8 	bi 10256c <_vfprintf_r+0x330>
  1035d0:	2b 82 00 a4 	lw r2,(sp+164)
  1035d4:	37 96 05 84 	addi r22,sp,1412
  1035d8:	21 81 00 0f 	andi r1,r12,0xf
  1035dc:	b4 41 08 00 	add r1,r2,r1
  1035e0:	40 21 00 00 	lbu r1,(r1+0)
  1035e4:	36 d6 ff ff 	addi r22,r22,-1
  1035e8:	01 8c 00 04 	srui r12,r12,4
  1035ec:	32 c1 00 00 	sb (r22+0),r1
  1035f0:	5d 80 ff fa 	bne r12,r0,1035d8 <_vfprintf_r+0x139c>
  1035f4:	e3 ff fb dc 	bi 102564 <_vfprintf_r+0x328>
  1035f8:	34 07 00 09 	mvi r7,9
  1035fc:	37 8d 05 84 	addi r13,sp,1412
  103600:	34 0e 00 09 	mvi r14,9
  103604:	55 87 ff e2 	bgu r12,r7,10358c <_vfprintf_r+0x1350>
  103608:	e3 ff ff ec 	bi 1035b8 <_vfprintf_r+0x137c>
  10360c:	2b 82 00 50 	lw r2,(sp+80)
  103610:	bb 20 08 00 	mv r1,r25
  103614:	37 83 05 84 	addi r3,sp,1412
  103618:	f8 00 12 5e 	calli 107f90 <__sprint_r>
  10361c:	5c 20 fc 8f 	bne r1,r0,102858 <_vfprintf_r+0x61c>
  103620:	2b 8f 05 8c 	lw r15,(sp+1420)
  103624:	2b 8d 05 88 	lw r13,(sp+1416)
  103628:	37 8e 05 24 	addi r14,sp,1316
  10362c:	37 9b 05 1c 	addi fp,sp,1308
  103630:	e3 ff fb e5 	bi 1025c4 <_vfprintf_r+0x388>
  103634:	2b 82 00 50 	lw r2,(sp+80)
  103638:	bb 20 08 00 	mv r1,r25
  10363c:	37 83 05 84 	addi r3,sp,1412
  103640:	f8 00 12 54 	calli 107f90 <__sprint_r>
  103644:	5c 20 fc 85 	bne r1,r0,102858 <_vfprintf_r+0x61c>
  103648:	2b 8f 05 8c 	lw r15,(sp+1420)
  10364c:	2b 8d 05 88 	lw r13,(sp+1416)
  103650:	37 91 05 24 	addi r17,sp,1316
  103654:	37 8b 05 1c 	addi r11,sp,1308
  103658:	e3 ff fd 93 	bi 102ca4 <_vfprintf_r+0xa68>
  10365c:	2b 82 00 50 	lw r2,(sp+80)
  103660:	bb 20 08 00 	mv r1,r25
  103664:	37 83 05 84 	addi r3,sp,1412
  103668:	f8 00 12 4a 	calli 107f90 <__sprint_r>
  10366c:	5c 20 fc 7b 	bne r1,r0,102858 <_vfprintf_r+0x61c>
  103670:	2b 8f 05 8c 	lw r15,(sp+1420)
  103674:	2b 8d 05 88 	lw r13,(sp+1416)
  103678:	37 8b 05 24 	addi r11,sp,1316
  10367c:	37 8e 05 1c 	addi r14,sp,1308
  103680:	e3 ff fd 7e 	bi 102c78 <_vfprintf_r+0xa3c>
  103684:	2b 82 00 50 	lw r2,(sp+80)
  103688:	bb 20 08 00 	mv r1,r25
  10368c:	37 83 05 84 	addi r3,sp,1412
  103690:	f8 00 12 40 	calli 107f90 <__sprint_r>
  103694:	5c 20 fc 71 	bne r1,r0,102858 <_vfprintf_r+0x61c>
  103698:	2b 8f 05 8c 	lw r15,(sp+1420)
  10369c:	2b 8d 05 88 	lw r13,(sp+1416)
  1036a0:	37 8e 05 24 	addi r14,sp,1316
  1036a4:	37 9b 05 1c 	addi fp,sp,1308
  1036a8:	e3 ff fb e4 	bi 102638 <_vfprintf_r+0x3fc>
  1036ac:	34 07 00 2d 	mvi r7,45
  1036b0:	c8 0c 60 00 	sub r12,r0,r12
  1036b4:	33 87 05 a7 	sb (sp+1447),r7
  1036b8:	e3 ff fe c9 	bi 1031dc <_vfprintf_r+0xfa0>
  1036bc:	2b 81 00 94 	lw r1,(sp+148)
  1036c0:	2b 82 00 98 	lw r2,(sp+152)
  1036c4:	f8 00 11 5b 	calli 107c30 <__fpclassifyd>
  1036c8:	44 20 00 c3 	be r1,r0,1039d4 <_vfprintf_r+0x1798>
  1036cc:	34 05 ff ff 	mvi r5,-1
  1036d0:	45 65 01 50 	be r11,r5,103c10 <_vfprintf_r+0x19d4>
  1036d4:	66 72 00 47 	cmpei r18,r19,71
  1036d8:	66 71 00 67 	cmpei r17,r19,103
  1036dc:	ba 51 28 00 	or r5,r18,r17
  1036e0:	44 a0 00 03 	be r5,r0,1036ec <_vfprintf_r+0x14b0>
  1036e4:	5d 60 00 02 	bne r11,r0,1036ec <_vfprintf_r+0x14b0>
  1036e8:	34 0b 00 01 	mvi r11,1
  1036ec:	2b 8f 00 94 	lw r15,(sp+148)
  1036f0:	3b 18 01 00 	ori r24,r24,0x100
  1036f4:	34 14 00 00 	mvi r20,0
  1036f8:	4d e0 00 04 	bge r15,r0,103708 <_vfprintf_r+0x14cc>
  1036fc:	78 01 80 00 	mvhi r1,0x8000
  103700:	99 e1 78 00 	xor r15,r15,r1
  103704:	34 14 00 2d 	mvi r20,45
  103708:	66 64 00 66 	cmpei r4,r19,102
  10370c:	66 6c 00 46 	cmpei r12,r19,70
  103710:	b9 60 68 00 	mv r13,r11
  103714:	b9 84 70 00 	or r14,r12,r4
  103718:	34 04 00 03 	mvi r4,3
  10371c:	5d c0 00 07 	bne r14,r0,103738 <_vfprintf_r+0x14fc>
  103720:	66 64 00 65 	cmpei r4,r19,101
  103724:	66 6c 00 45 	cmpei r12,r19,69
  103728:	b9 84 60 00 	or r12,r12,r4
  10372c:	34 04 00 02 	mvi r4,2
  103730:	45 8e 00 02 	be r12,r14,103738 <_vfprintf_r+0x14fc>
  103734:	35 6d 00 01 	addi r13,r11,1
  103738:	2b 83 00 98 	lw r3,(sp+152)
  10373c:	bb 20 08 00 	mv r1,r25
  103740:	b9 e0 10 00 	mv r2,r15
  103744:	b9 a0 28 00 	mv r5,r13
  103748:	37 86 05 a0 	addi r6,sp,1440
  10374c:	37 87 05 9c 	addi r7,sp,1436
  103750:	37 88 05 98 	addi r8,sp,1432
  103754:	f8 00 02 be 	calli 10424c <_dtoa_r>
  103758:	7e 64 00 47 	cmpnei r4,r19,71
  10375c:	7e 6a 00 67 	cmpnei r10,r19,103
  103760:	b8 20 b0 00 	mv r22,r1
  103764:	a0 8a 20 00 	and r4,r4,r10
  103768:	5c 80 00 03 	bne r4,r0,103774 <_vfprintf_r+0x1538>
  10376c:	23 0a 00 01 	andi r10,r24,0x1
  103770:	45 44 01 2c 	be r10,r4,103c20 <_vfprintf_r+0x19e4>
  103774:	b6 cd 60 00 	add r12,r22,r13
  103778:	45 c0 00 06 	be r14,r0,103790 <_vfprintf_r+0x1554>
  10377c:	42 c4 00 00 	lbu r4,(r22+0)
  103780:	34 0a 00 30 	mvi r10,48
  103784:	44 8a 01 3a 	be r4,r10,103c6c <_vfprintf_r+0x1a30>
  103788:	2b 8d 05 a0 	lw r13,(sp+1440)
  10378c:	b5 8d 60 00 	add r12,r12,r13
  103790:	2b 82 00 98 	lw r2,(sp+152)
  103794:	b9 e0 08 00 	mv r1,r15
  103798:	34 03 00 00 	mvi r3,0
  10379c:	34 04 00 00 	mvi r4,0
  1037a0:	f8 00 1d dc 	calli 10af10 <__eqdf2>
  1037a4:	5c 20 01 00 	bne r1,r0,103ba4 <_vfprintf_r+0x1968>
  1037a8:	5b 8c 05 98 	sw (sp+1432),r12
  1037ac:	b9 80 20 00 	mv r4,r12
  1037b0:	c8 96 20 00 	sub r4,r4,r22
  1037b4:	ba 51 50 00 	or r10,r18,r17
  1037b8:	5b 84 00 90 	sw (sp+144),r4
  1037bc:	45 40 00 e8 	be r10,r0,103b5c <_vfprintf_r+0x1920>
  1037c0:	2b 92 05 a0 	lw r18,(sp+1440)
  1037c4:	34 09 ff fd 	mvi r9,-3
  1037c8:	ba 40 68 00 	mv r13,r18
  1037cc:	49 32 00 02 	bg r9,r18,1037d4 <_vfprintf_r+0x1598>
  1037d0:	4d 72 00 a5 	bge r11,r18,103a64 <_vfprintf_r+0x1828>
  1037d4:	36 70 ff fe 	addi r16,r19,-2
  1037d8:	35 ab ff ff 	addi r11,r13,-1
  1037dc:	5b 8b 05 a0 	sw (sp+1440),r11
  1037e0:	33 90 05 90 	sb (sp+1424),r16
  1037e4:	4d 60 00 fe 	bge r11,r0,103bdc <_vfprintf_r+0x19a0>
  1037e8:	34 08 00 2d 	mvi r8,45
  1037ec:	c8 0b 58 00 	sub r11,r0,r11
  1037f0:	33 88 05 91 	sb (sp+1425),r8
  1037f4:	34 08 00 09 	mvi r8,9
  1037f8:	4d 0b 01 00 	bge r8,r11,103bf8 <_vfprintf_r+0x19bc>
  1037fc:	37 8d 04 bb 	addi r13,sp,1211
  103800:	b9 a0 60 00 	mv r12,r13
  103804:	34 0e 00 09 	mvi r14,9
  103808:	b9 60 08 00 	mv r1,r11
  10380c:	34 02 00 0a 	mvi r2,10
  103810:	f8 00 23 1e 	calli 10c488 <__modsi3>
  103814:	34 22 00 30 	addi r2,r1,48
  103818:	35 8c ff ff 	addi r12,r12,-1
  10381c:	31 82 00 00 	sb (r12+0),r2
  103820:	b9 60 08 00 	mv r1,r11
  103824:	34 02 00 0a 	mvi r2,10
  103828:	f8 00 22 eb 	calli 10c3d4 <__divsi3>
  10382c:	b8 20 58 00 	mv r11,r1
  103830:	48 2e ff f6 	bg r1,r14,103808 <_vfprintf_r+0x15cc>
  103834:	34 2b 00 30 	addi r11,r1,48
  103838:	35 88 ff ff 	addi r8,r12,-1
  10383c:	31 8b ff ff 	sb (r12+-1),r11
  103840:	37 89 05 92 	addi r9,sp,1426
  103844:	51 0d 00 06 	bgeu r8,r13,10385c <_vfprintf_r+0x1620>
  103848:	41 01 00 00 	lbu r1,(r8+0)
  10384c:	35 08 00 01 	addi r8,r8,1
  103850:	31 21 00 00 	sb (r9+0),r1
  103854:	35 29 00 01 	addi r9,r9,1
  103858:	55 a8 ff fc 	bgu r13,r8,103848 <_vfprintf_r+0x160c>
  10385c:	2b 82 00 90 	lw r2,(sp+144)
  103860:	37 88 05 90 	addi r8,sp,1424
  103864:	c9 28 40 00 	sub r8,r9,r8
  103868:	5b 88 00 a0 	sw (sp+160),r8
  10386c:	b5 02 90 00 	add r18,r8,r2
  103870:	34 08 00 01 	mvi r8,1
  103874:	48 48 00 83 	bg r2,r8,103a80 <_vfprintf_r+0x1844>
  103878:	23 08 00 01 	andi r8,r24,0x1
  10387c:	5d 00 00 81 	bne r8,r0,103a80 <_vfprintf_r+0x1844>
  103880:	46 80 00 c1 	be r20,r0,103b84 <_vfprintf_r+0x1948>
  103884:	a6 40 40 00 	not r8,r18
  103888:	15 05 00 1f 	sri r5,r8,31
  10388c:	34 08 00 2d 	mvi r8,45
  103890:	a2 45 28 00 	and r5,r18,r5
  103894:	33 88 05 a7 	sb (sp+1447),r8
  103898:	5b 85 00 54 	sw (sp+84),r5
  10389c:	ba 00 98 00 	mv r19,r16
  1038a0:	34 0b 00 00 	mvi r11,0
  1038a4:	e3 ff fb 37 	bi 102580 <_vfprintf_r+0x344>
  1038a8:	2b 82 00 58 	lw r2,(sp+88)
  1038ac:	2b 81 00 58 	lw r1,(sp+88)
  1038b0:	28 42 00 00 	lw r2,(r2+0)
  1038b4:	28 21 00 04 	lw r1,(r1+4)
  1038b8:	5b 82 00 94 	sw (sp+148),r2
  1038bc:	2b 82 00 58 	lw r2,(sp+88)
  1038c0:	5b 81 00 98 	sw (sp+152),r1
  1038c4:	34 42 00 08 	addi r2,r2,8
  1038c8:	5b 82 00 58 	sw (sp+88),r2
  1038cc:	e3 ff fe 54 	bi 10321c <_vfprintf_r+0xfe0>
  1038d0:	23 04 00 40 	andi r4,r24,0x40
  1038d4:	44 85 00 39 	be r4,r5,1039b8 <_vfprintf_r+0x177c>
  1038d8:	2b 81 00 58 	lw r1,(sp+88)
  1038dc:	2f 82 00 5e 	lhu r2,(sp+94)
  1038e0:	28 25 00 00 	lw r5,(r1+0)
  1038e4:	34 21 00 04 	addi r1,r1,4
  1038e8:	5b 81 00 58 	sw (sp+88),r1
  1038ec:	0c a2 00 00 	sh (r5+0),r2
  1038f0:	e3 ff fa c8 	bi 102410 <_vfprintf_r+0x1d4>
  1038f4:	b5 6f 28 00 	add r5,r11,r15
  1038f8:	35 ad 00 01 	addi r13,r13,1
  1038fc:	5b 76 00 00 	sw (fp+0),r22
  103900:	5b 6b 00 04 	sw (fp+4),r11
  103904:	5b 85 05 8c 	sw (sp+1420),r5
  103908:	5b 8d 05 88 	sw (sp+1416),r13
  10390c:	34 08 00 07 	mvi r8,7
  103910:	b9 60 60 00 	mv r12,r11
  103914:	4d 0d 00 0b 	bge r8,r13,103940 <_vfprintf_r+0x1704>
  103918:	2b 82 00 50 	lw r2,(sp+80)
  10391c:	bb 20 08 00 	mv r1,r25
  103920:	37 83 05 84 	addi r3,sp,1412
  103924:	f8 00 11 9b 	calli 107f90 <__sprint_r>
  103928:	5c 20 fb cc 	bne r1,r0,102858 <_vfprintf_r+0x61c>
  10392c:	2b 8b 05 a0 	lw r11,(sp+1440)
  103930:	2b 85 05 8c 	lw r5,(sp+1420)
  103934:	2b 8d 05 88 	lw r13,(sp+1416)
  103938:	b9 60 60 00 	mv r12,r11
  10393c:	37 8e 05 1c 	addi r14,sp,1308
  103940:	2b 81 00 9c 	lw r1,(sp+156)
  103944:	2b 82 00 8c 	lw r2,(sp+140)
  103948:	35 ad 00 01 	addi r13,r13,1
  10394c:	b4 a1 28 00 	add r5,r5,r1
  103950:	59 c2 00 00 	sw (r14+0),r2
  103954:	59 c1 00 04 	sw (r14+4),r1
  103958:	5b 85 05 8c 	sw (sp+1420),r5
  10395c:	5b 8d 05 88 	sw (sp+1416),r13
  103960:	34 08 00 07 	mvi r8,7
  103964:	49 a8 00 76 	bg r13,r8,103b3c <_vfprintf_r+0x1900>
  103968:	35 ce 00 08 	addi r14,r14,8
  10396c:	2b 81 00 90 	lw r1,(sp+144)
  103970:	2b 8f 05 8c 	lw r15,(sp+1420)
  103974:	2b 8d 05 88 	lw r13,(sp+1416)
  103978:	c8 2b 58 00 	sub r11,r1,r11
  10397c:	b6 cc b0 00 	add r22,r22,r12
  103980:	b5 eb 78 00 	add r15,r15,r11
  103984:	35 ad 00 01 	addi r13,r13,1
  103988:	59 d6 00 00 	sw (r14+0),r22
  10398c:	59 cb 00 04 	sw (r14+4),r11
  103990:	5b 8f 05 8c 	sw (sp+1420),r15
  103994:	5b 8d 05 88 	sw (sp+1416),r13
  103998:	34 05 00 07 	mvi r5,7
  10399c:	49 a5 fb 4f 	bg r13,r5,1026d8 <_vfprintf_r+0x49c>
  1039a0:	35 ce 00 08 	addi r14,r14,8
  1039a4:	e3 ff fb 54 	bi 1026f4 <_vfprintf_r+0x4b8>
  1039a8:	78 10 00 10 	mvhi r16,0x10
  1039ac:	b9 c0 38 00 	mv r7,r14
  1039b0:	3a 10 ca 70 	ori r16,r16,0xca70
  1039b4:	e3 ff fb 35 	bi 102688 <_vfprintf_r+0x44c>
  1039b8:	2b 81 00 58 	lw r1,(sp+88)
  1039bc:	2b 82 00 5c 	lw r2,(sp+92)
  1039c0:	28 25 00 00 	lw r5,(r1+0)
  1039c4:	34 21 00 04 	addi r1,r1,4
  1039c8:	5b 81 00 58 	sw (sp+88),r1
  1039cc:	58 a2 00 00 	sw (r5+0),r2
  1039d0:	e3 ff fa 90 	bi 102410 <_vfprintf_r+0x1d4>
  1039d4:	34 09 00 47 	mvi r9,71
  1039d8:	2b 96 00 80 	lw r22,(sp+128)
  1039dc:	4a 69 00 02 	bg r19,r9,1039e4 <_vfprintf_r+0x17a8>
  1039e0:	2b 96 00 84 	lw r22,(sp+132)
  1039e4:	34 09 ff 7f 	mvi r9,-129
  1039e8:	34 02 00 03 	mvi r2,3
  1039ec:	a3 09 c0 00 	and r24,r24,r9
  1039f0:	43 88 05 a7 	lbu r8,(sp+1447)
  1039f4:	5b 82 00 54 	sw (sp+84),r2
  1039f8:	34 12 00 03 	mvi r18,3
  1039fc:	34 0b 00 00 	mvi r11,0
  103a00:	e3 ff fa df 	bi 10257c <_vfprintf_r+0x340>
  103a04:	34 05 00 2d 	mvi r5,45
  103a08:	33 85 05 a7 	sb (sp+1447),r5
  103a0c:	34 08 00 2d 	mvi r8,45
  103a10:	e3 ff fe 0f 	bi 10324c <_vfprintf_r+0x1010>
  103a14:	2b 82 00 50 	lw r2,(sp+80)
  103a18:	bb 20 08 00 	mv r1,r25
  103a1c:	37 83 05 84 	addi r3,sp,1412
  103a20:	f8 00 11 5c 	calli 107f90 <__sprint_r>
  103a24:	5c 20 fb 8d 	bne r1,r0,102858 <_vfprintf_r+0x61c>
  103a28:	2b 8f 05 8c 	lw r15,(sp+1420)
  103a2c:	2b 8d 05 88 	lw r13,(sp+1416)
  103a30:	37 8e 05 24 	addi r14,sp,1316
  103a34:	37 91 05 1c 	addi r17,sp,1308
  103a38:	e3 ff fc ad 	bi 102cec <_vfprintf_r+0xab0>
  103a3c:	2b 82 00 50 	lw r2,(sp+80)
  103a40:	bb 20 08 00 	mv r1,r25
  103a44:	37 83 05 84 	addi r3,sp,1412
  103a48:	f8 00 11 52 	calli 107f90 <__sprint_r>
  103a4c:	5c 20 fb 83 	bne r1,r0,102858 <_vfprintf_r+0x61c>
  103a50:	2b 8b 05 a0 	lw r11,(sp+1440)
  103a54:	2b 8f 05 8c 	lw r15,(sp+1420)
  103a58:	2b 8d 05 88 	lw r13,(sp+1416)
  103a5c:	37 8e 05 1c 	addi r14,sp,1308
  103a60:	e3 ff fd 23 	bi 102eec <_vfprintf_r+0xcb0>
  103a64:	2b 81 00 90 	lw r1,(sp+144)
  103a68:	48 32 00 70 	bg r1,r18,103c28 <_vfprintf_r+0x19ec>
  103a6c:	23 08 00 01 	andi r8,r24,0x1
  103a70:	7d 08 00 00 	cmpnei r8,r8,0
  103a74:	34 10 00 67 	mvi r16,103
  103a78:	b6 48 90 00 	add r18,r18,r8
  103a7c:	e3 ff ff 81 	bi 103880 <_vfprintf_r+0x1644>
  103a80:	36 52 00 01 	addi r18,r18,1
  103a84:	e3 ff ff 7f 	bi 103880 <_vfprintf_r+0x1644>
  103a88:	bb 20 08 00 	mv r1,r25
  103a8c:	ba 40 10 00 	mv r2,r18
  103a90:	37 83 05 84 	addi r3,sp,1412
  103a94:	f8 00 11 3f 	calli 107f90 <__sprint_r>
  103a98:	5c 20 fb 70 	bne r1,r0,102858 <_vfprintf_r+0x61c>
  103a9c:	2b 8f 05 8c 	lw r15,(sp+1420)
  103aa0:	2b 8d 05 88 	lw r13,(sp+1416)
  103aa4:	37 8e 05 1c 	addi r14,sp,1308
  103aa8:	e3 ff fd 22 	bi 102f30 <_vfprintf_r+0xcf4>
  103aac:	2b 82 00 50 	lw r2,(sp+80)
  103ab0:	bb 20 08 00 	mv r1,r25
  103ab4:	37 83 05 84 	addi r3,sp,1412
  103ab8:	f8 00 11 36 	calli 107f90 <__sprint_r>
  103abc:	5c 20 fb 67 	bne r1,r0,102858 <_vfprintf_r+0x61c>
  103ac0:	2b 8f 05 8c 	lw r15,(sp+1420)
  103ac4:	37 85 05 1c 	addi r5,sp,1308
  103ac8:	e3 ff fb a9 	bi 10296c <_vfprintf_r+0x730>
  103acc:	b8 a0 70 00 	mv r14,r5
  103ad0:	e3 ff fb 09 	bi 1026f4 <_vfprintf_r+0x4b8>
  103ad4:	a5 60 28 00 	not r5,r11
  103ad8:	14 a5 00 1f 	sri r5,r5,31
  103adc:	b9 60 90 00 	mv r18,r11
  103ae0:	a1 65 28 00 	and r5,r11,r5
  103ae4:	5b 85 00 54 	sw (sp+84),r5
  103ae8:	34 05 00 06 	mvi r5,6
  103aec:	50 ab 00 03 	bgeu r5,r11,103af8 <_vfprintf_r+0x18bc>
  103af0:	34 12 00 06 	mvi r18,6
  103af4:	5b 92 00 54 	sw (sp+84),r18
  103af8:	5b 8c 00 58 	sw (sp+88),r12
  103afc:	2b 96 00 7c 	lw r22,(sp+124)
  103b00:	34 0b 00 00 	mvi r11,0
  103b04:	e3 ff fa a2 	bi 10258c <_vfprintf_r+0x350>
  103b08:	2b 8d 05 88 	lw r13,(sp+1416)
  103b0c:	2b 95 00 64 	lw r21,(sp+100)
  103b10:	e3 ff fc 22 	bi 102b98 <_vfprintf_r+0x95c>
  103b14:	2b 82 00 50 	lw r2,(sp+80)
  103b18:	2b 81 00 6c 	lw r1,(sp+108)
  103b1c:	f8 00 00 87 	calli 103d38 <__swsetup_r>
  103b20:	34 02 ff ff 	mvi r2,-1
  103b24:	5b 82 00 5c 	sw (sp+92),r2
  103b28:	5c 20 fb 52 	bne r1,r0,102870 <_vfprintf_r+0x634>
  103b2c:	2b 81 00 50 	lw r1,(sp+80)
  103b30:	1c 25 00 0c 	lh r5,(r1+12)
  103b34:	20 a6 ff ff 	andi r6,r5,0xffff
  103b38:	e3 ff f9 f1 	bi 1022fc <_vfprintf_r+0xc0>
  103b3c:	2b 82 00 50 	lw r2,(sp+80)
  103b40:	bb 20 08 00 	mv r1,r25
  103b44:	37 83 05 84 	addi r3,sp,1412
  103b48:	f8 00 11 12 	calli 107f90 <__sprint_r>
  103b4c:	5c 20 fb 43 	bne r1,r0,102858 <_vfprintf_r+0x61c>
  103b50:	2b 8b 05 a0 	lw r11,(sp+1440)
  103b54:	37 8e 05 1c 	addi r14,sp,1308
  103b58:	e3 ff ff 85 	bi 10396c <_vfprintf_r+0x1730>
  103b5c:	34 09 00 66 	mvi r9,102
  103b60:	5e 69 00 4d 	bne r19,r9,103c94 <_vfprintf_r+0x1a58>
  103b64:	2b 92 05 a0 	lw r18,(sp+1440)
  103b68:	4c 12 00 57 	bge r0,r18,103cc4 <_vfprintf_r+0x1a88>
  103b6c:	5d 60 00 03 	bne r11,r0,103b78 <_vfprintf_r+0x193c>
  103b70:	23 08 00 01 	andi r8,r24,0x1
  103b74:	45 0b ff 43 	be r8,r11,103880 <_vfprintf_r+0x1644>
  103b78:	36 52 00 01 	addi r18,r18,1
  103b7c:	b6 4b 90 00 	add r18,r18,r11
  103b80:	e3 ff ff 40 	bi 103880 <_vfprintf_r+0x1644>
  103b84:	ee 54 28 00 	cmpge r5,r18,r20
  103b88:	43 88 05 a7 	lbu r8,(sp+1447)
  103b8c:	c8 05 48 00 	sub r9,r0,r5
  103b90:	a2 49 48 00 	and r9,r18,r9
  103b94:	5b 89 00 54 	sw (sp+84),r9
  103b98:	ba 00 98 00 	mv r19,r16
  103b9c:	34 0b 00 00 	mvi r11,0
  103ba0:	e3 ff fa 77 	bi 10257c <_vfprintf_r+0x340>
  103ba4:	2b 84 05 98 	lw r4,(sp+1432)
  103ba8:	50 8c ff 02 	bgeu r4,r12,1037b0 <_vfprintf_r+0x1574>
  103bac:	b8 80 38 00 	mv r7,r4
  103bb0:	34 08 00 30 	mvi r8,48
  103bb4:	30 e8 00 00 	sb (r7+0),r8
  103bb8:	34 e7 00 01 	addi r7,r7,1
  103bbc:	5b 87 05 98 	sw (sp+1432),r7
  103bc0:	55 87 ff fd 	bgu r12,r7,103bb4 <_vfprintf_r+0x1978>
  103bc4:	b9 80 20 00 	mv r4,r12
  103bc8:	e3 ff fe fa 	bi 1037b0 <_vfprintf_r+0x1574>
  103bcc:	78 10 00 10 	mvhi r16,0x10
  103bd0:	b9 c0 40 00 	mv r8,r14
  103bd4:	3a 10 ca 70 	ori r16,r16,0xca70
  103bd8:	e3 ff fb c9 	bi 102afc <_vfprintf_r+0x8c0>
  103bdc:	34 08 00 2b 	mvi r8,43
  103be0:	33 88 05 91 	sb (sp+1425),r8
  103be4:	e3 ff ff 04 	bi 1037f4 <_vfprintf_r+0x15b8>
  103be8:	ed 61 38 00 	cmpge r7,r11,r1
  103bec:	43 88 05 a7 	lbu r8,(sp+1447)
  103bf0:	c8 07 38 00 	sub r7,r0,r7
  103bf4:	e3 ff fe 06 	bi 10340c <_vfprintf_r+0x11d0>
  103bf8:	35 6b 00 30 	addi r11,r11,48
  103bfc:	34 08 00 30 	mvi r8,48
  103c00:	33 88 05 92 	sb (sp+1426),r8
  103c04:	33 8b 05 93 	sb (sp+1427),r11
  103c08:	37 89 05 94 	addi r9,sp,1428
  103c0c:	e3 ff ff 14 	bi 10385c <_vfprintf_r+0x1620>
  103c10:	34 0b 00 06 	mvi r11,6
  103c14:	66 72 00 47 	cmpei r18,r19,71
  103c18:	66 71 00 67 	cmpei r17,r19,103
  103c1c:	e3 ff fe b4 	bi 1036ec <_vfprintf_r+0x14b0>
  103c20:	2b 84 05 98 	lw r4,(sp+1432)
  103c24:	e3 ff fe e3 	bi 1037b0 <_vfprintf_r+0x1574>
  103c28:	34 12 00 01 	mvi r18,1
  103c2c:	49 a0 00 03 	bg r13,r0,103c38 <_vfprintf_r+0x19fc>
  103c30:	34 08 00 02 	mvi r8,2
  103c34:	c9 0d 90 00 	sub r18,r8,r13
  103c38:	2b 82 00 90 	lw r2,(sp+144)
  103c3c:	34 10 00 67 	mvi r16,103
  103c40:	b6 42 90 00 	add r18,r18,r2
  103c44:	e3 ff ff 0f 	bi 103880 <_vfprintf_r+0x1644>
  103c48:	2b 82 00 50 	lw r2,(sp+80)
  103c4c:	bb 20 08 00 	mv r1,r25
  103c50:	37 83 05 84 	addi r3,sp,1412
  103c54:	f8 00 10 cf 	calli 107f90 <__sprint_r>
  103c58:	5c 20 fb 00 	bne r1,r0,102858 <_vfprintf_r+0x61c>
  103c5c:	2b 8f 05 8c 	lw r15,(sp+1420)
  103c60:	2b 8d 05 88 	lw r13,(sp+1416)
  103c64:	37 8e 05 1c 	addi r14,sp,1308
  103c68:	e3 ff fc bd 	bi 102f5c <_vfprintf_r+0xd20>
  103c6c:	2b 82 00 98 	lw r2,(sp+152)
  103c70:	b9 e0 08 00 	mv r1,r15
  103c74:	34 03 00 00 	mvi r3,0
  103c78:	34 04 00 00 	mvi r4,0
  103c7c:	f8 00 1c a5 	calli 10af10 <__eqdf2>
  103c80:	44 20 fe c2 	be r1,r0,103788 <_vfprintf_r+0x154c>
  103c84:	34 09 00 01 	mvi r9,1
  103c88:	c9 2d 48 00 	sub r9,r9,r13
  103c8c:	5b 89 05 a0 	sw (sp+1440),r9
  103c90:	e3 ff fe be 	bi 103788 <_vfprintf_r+0x154c>
  103c94:	2b 8d 05 a0 	lw r13,(sp+1440)
  103c98:	ba 60 80 00 	mv r16,r19
  103c9c:	e3 ff fe cf 	bi 1037d8 <_vfprintf_r+0x159c>
  103ca0:	78 10 00 10 	mvhi r16,0x10
  103ca4:	3a 10 ca 70 	ori r16,r16,0xca70
  103ca8:	e3 ff fd 0a 	bi 1030d0 <_vfprintf_r+0xe94>
  103cac:	2b 81 00 58 	lw r1,(sp+88)
  103cb0:	28 2b 00 00 	lw r11,(r1+0)
  103cb4:	34 21 00 04 	addi r1,r1,4
  103cb8:	48 0b 00 0f 	bg r0,r11,103cf4 <_vfprintf_r+0x1ab8>
  103cbc:	5b 81 00 58 	sw (sp+88),r1
  103cc0:	e3 ff f9 fb 	bi 1024ac <_vfprintf_r+0x270>
  103cc4:	5d 60 00 04 	bne r11,r0,103cd4 <_vfprintf_r+0x1a98>
  103cc8:	23 0a 00 01 	andi r10,r24,0x1
  103ccc:	34 12 00 01 	mvi r18,1
  103cd0:	45 4b fe ec 	be r10,r11,103880 <_vfprintf_r+0x1644>
  103cd4:	35 72 00 02 	addi r18,r11,2
  103cd8:	e3 ff fe ea 	bi 103880 <_vfprintf_r+0x1644>
  103cdc:	78 10 00 10 	mvhi r16,0x10
  103ce0:	3a 10 ca 70 	ori r16,r16,0xca70
  103ce4:	e3 ff fc 95 	bi 102f38 <_vfprintf_r+0xcfc>
  103ce8:	34 01 ff ff 	mvi r1,-1
  103cec:	5b 81 00 5c 	sw (sp+92),r1
  103cf0:	e3 ff fc 4f 	bi 102e2c <_vfprintf_r+0xbf0>
  103cf4:	5b 81 00 58 	sw (sp+88),r1
  103cf8:	34 0b ff ff 	mvi r11,-1
  103cfc:	e3 ff f9 ec 	bi 1024ac <_vfprintf_r+0x270>

00103d00 <vfprintf>:
  103d00:	37 9c ff fc 	addi sp,sp,-4
  103d04:	5b 9d 00 04 	sw (sp+4),ra
  103d08:	78 04 00 10 	mvhi r4,0x10
  103d0c:	38 84 cf 08 	ori r4,r4,0xcf08
  103d10:	b8 20 30 00 	mv r6,r1
  103d14:	28 81 00 00 	lw r1,(r4+0)
  103d18:	b8 40 28 00 	mv r5,r2
  103d1c:	b8 60 20 00 	mv r4,r3
  103d20:	b8 c0 10 00 	mv r2,r6
  103d24:	b8 a0 18 00 	mv r3,r5
  103d28:	fb ff f9 45 	calli 10223c <_vfprintf_r>
  103d2c:	2b 9d 00 04 	lw ra,(sp+4)
  103d30:	37 9c 00 04 	addi sp,sp,4
  103d34:	c3 a0 00 00 	ret

00103d38 <__swsetup_r>:
  103d38:	37 9c ff f4 	addi sp,sp,-12
  103d3c:	5b 8b 00 0c 	sw (sp+12),r11
  103d40:	5b 8c 00 08 	sw (sp+8),r12
  103d44:	5b 9d 00 04 	sw (sp+4),ra
  103d48:	78 03 00 10 	mvhi r3,0x10
  103d4c:	38 63 cf 08 	ori r3,r3,0xcf08
  103d50:	28 63 00 00 	lw r3,(r3+0)
  103d54:	b8 20 60 00 	mv r12,r1
  103d58:	b8 40 58 00 	mv r11,r2
  103d5c:	44 60 00 03 	be r3,r0,103d68 <__swsetup_r+0x30>
  103d60:	28 61 00 38 	lw r1,(r3+56)
  103d64:	44 20 00 28 	be r1,r0,103e04 <__swsetup_r+0xcc>
  103d68:	2d 65 00 0c 	lhu r5,(r11+12)
  103d6c:	3c a3 00 10 	sli r3,r5,16
  103d70:	14 63 00 10 	sri r3,r3,16
  103d74:	20 62 ff ff 	andi r2,r3,0xffff
  103d78:	20 46 00 08 	andi r6,r2,0x8
  103d7c:	44 c0 00 2e 	be r6,r0,103e34 <__swsetup_r+0xfc>
  103d80:	29 65 00 10 	lw r5,(r11+16)
  103d84:	44 a0 00 23 	be r5,r0,103e10 <__swsetup_r+0xd8>
  103d88:	20 41 00 01 	andi r1,r2,0x1
  103d8c:	44 20 00 0d 	be r1,r0,103dc0 <__swsetup_r+0x88>
  103d90:	29 61 00 14 	lw r1,(r11+20)
  103d94:	59 60 00 08 	sw (r11+8),r0
  103d98:	34 04 00 00 	mvi r4,0
  103d9c:	c8 01 08 00 	sub r1,r0,r1
  103da0:	59 61 00 18 	sw (r11+24),r1
  103da4:	44 a0 00 0e 	be r5,r0,103ddc <__swsetup_r+0xa4>
  103da8:	b8 80 08 00 	mv r1,r4
  103dac:	2b 9d 00 04 	lw ra,(sp+4)
  103db0:	2b 8b 00 0c 	lw r11,(sp+12)
  103db4:	2b 8c 00 08 	lw r12,(sp+8)
  103db8:	37 9c 00 0c 	addi sp,sp,12
  103dbc:	c3 a0 00 00 	ret
  103dc0:	20 42 00 02 	andi r2,r2,0x2
  103dc4:	34 01 00 00 	mvi r1,0
  103dc8:	5c 41 00 02 	bne r2,r1,103dd0 <__swsetup_r+0x98>
  103dcc:	29 61 00 14 	lw r1,(r11+20)
  103dd0:	59 61 00 08 	sw (r11+8),r1
  103dd4:	34 04 00 00 	mvi r4,0
  103dd8:	5c a0 ff f4 	bne r5,r0,103da8 <__swsetup_r+0x70>
  103ddc:	2d 61 00 0c 	lhu r1,(r11+12)
  103de0:	20 21 00 80 	andi r1,r1,0x80
  103de4:	fc 24 20 00 	cmpne r4,r1,r4
  103de8:	c8 04 20 00 	sub r4,r0,r4
  103dec:	b8 80 08 00 	mv r1,r4
  103df0:	2b 9d 00 04 	lw ra,(sp+4)
  103df4:	2b 8b 00 0c 	lw r11,(sp+12)
  103df8:	2b 8c 00 08 	lw r12,(sp+8)
  103dfc:	37 9c 00 0c 	addi sp,sp,12
  103e00:	c3 a0 00 00 	ret
  103e04:	b8 60 08 00 	mv r1,r3
  103e08:	f8 00 06 84 	calli 105818 <__sinit>
  103e0c:	e3 ff ff d7 	bi 103d68 <__swsetup_r+0x30>
  103e10:	20 43 02 80 	andi r3,r2,0x280
  103e14:	34 01 02 00 	mvi r1,512
  103e18:	44 61 ff dc 	be r3,r1,103d88 <__swsetup_r+0x50>
  103e1c:	b9 60 10 00 	mv r2,r11
  103e20:	b9 80 08 00 	mv r1,r12
  103e24:	f8 00 08 ca 	calli 10614c <__smakebuf_r>
  103e28:	2d 62 00 0c 	lhu r2,(r11+12)
  103e2c:	29 65 00 10 	lw r5,(r11+16)
  103e30:	e3 ff ff d6 	bi 103d88 <__swsetup_r+0x50>
  103e34:	20 41 00 10 	andi r1,r2,0x10
  103e38:	34 04 ff ff 	mvi r4,-1
  103e3c:	44 26 ff db 	be r1,r6,103da8 <__swsetup_r+0x70>
  103e40:	20 42 00 04 	andi r2,r2,0x4
  103e44:	5c 40 00 07 	bne r2,r0,103e60 <__swsetup_r+0x128>
  103e48:	29 65 00 10 	lw r5,(r11+16)
  103e4c:	38 62 00 08 	ori r2,r3,0x8
  103e50:	dc 40 10 00 	sexth r2,r2
  103e54:	0d 62 00 0c 	sh (r11+12),r2
  103e58:	20 42 ff ff 	andi r2,r2,0xffff
  103e5c:	e3 ff ff ca 	bi 103d84 <__swsetup_r+0x4c>
  103e60:	29 62 00 30 	lw r2,(r11+48)
  103e64:	44 40 00 09 	be r2,r0,103e88 <__swsetup_r+0x150>
  103e68:	35 61 00 40 	addi r1,r11,64
  103e6c:	44 41 00 04 	be r2,r1,103e7c <__swsetup_r+0x144>
  103e70:	b9 80 08 00 	mv r1,r12
  103e74:	f8 00 07 79 	calli 105c58 <_free_r>
  103e78:	2d 65 00 0c 	lhu r5,(r11+12)
  103e7c:	3c a3 00 10 	sli r3,r5,16
  103e80:	59 60 00 30 	sw (r11+48),r0
  103e84:	14 63 00 10 	sri r3,r3,16
  103e88:	29 65 00 10 	lw r5,(r11+16)
  103e8c:	34 01 ff db 	mvi r1,-37
  103e90:	a0 61 18 00 	and r3,r3,r1
  103e94:	dc 60 18 00 	sexth r3,r3
  103e98:	59 60 00 04 	sw (r11+4),r0
  103e9c:	59 65 00 00 	sw (r11+0),r5
  103ea0:	e3 ff ff eb 	bi 103e4c <__swsetup_r+0x114>

00103ea4 <__register_exitproc>:
  103ea4:	78 05 00 10 	mvhi r5,0x10
  103ea8:	38 a5 c8 c0 	ori r5,r5,0xc8c0
  103eac:	28 a6 00 00 	lw r6,(r5+0)
  103eb0:	b8 20 38 00 	mv r7,r1
  103eb4:	28 c5 01 48 	lw r5,(r6+328)
  103eb8:	44 a0 00 21 	be r5,r0,103f3c <__register_exitproc+0x98>
  103ebc:	28 a6 00 04 	lw r6,(r5+4)
  103ec0:	34 08 00 1f 	mvi r8,31
  103ec4:	34 01 ff ff 	mvi r1,-1
  103ec8:	48 c8 00 18 	bg r6,r8,103f28 <__register_exitproc+0x84>
  103ecc:	44 e0 00 10 	be r7,r0,103f0c <__register_exitproc+0x68>
  103ed0:	28 a9 01 88 	lw r9,(r5+392)
  103ed4:	34 ca 00 22 	addi r10,r6,34
  103ed8:	34 c8 00 42 	addi r8,r6,66
  103edc:	34 01 00 01 	mvi r1,1
  103ee0:	3d 4a 00 02 	sli r10,r10,2
  103ee4:	bc 26 08 00 	sl r1,r1,r6
  103ee8:	3d 08 00 02 	sli r8,r8,2
  103eec:	b4 aa 50 00 	add r10,r5,r10
  103ef0:	b9 21 48 00 	or r9,r9,r1
  103ef4:	b4 a8 40 00 	add r8,r5,r8
  103ef8:	59 43 00 00 	sw (r10+0),r3
  103efc:	58 a9 01 88 	sw (r5+392),r9
  103f00:	59 04 00 00 	sw (r8+0),r4
  103f04:	34 03 00 02 	mvi r3,2
  103f08:	44 e3 00 09 	be r7,r3,103f2c <__register_exitproc+0x88>
  103f0c:	34 c1 00 02 	addi r1,r6,2
  103f10:	3c 21 00 02 	sli r1,r1,2
  103f14:	34 c6 00 01 	addi r6,r6,1
  103f18:	b4 a1 08 00 	add r1,r5,r1
  103f1c:	58 22 00 00 	sw (r1+0),r2
  103f20:	58 a6 00 04 	sw (r5+4),r6
  103f24:	34 01 00 00 	mvi r1,0
  103f28:	c3 a0 00 00 	ret
  103f2c:	28 a3 01 8c 	lw r3,(r5+396)
  103f30:	b8 61 08 00 	or r1,r3,r1
  103f34:	58 a1 01 8c 	sw (r5+396),r1
  103f38:	e3 ff ff f5 	bi 103f0c <__register_exitproc+0x68>
  103f3c:	34 c5 01 4c 	addi r5,r6,332
  103f40:	58 c5 01 48 	sw (r6+328),r5
  103f44:	e3 ff ff de 	bi 103ebc <__register_exitproc+0x18>

00103f48 <__call_exitprocs>:
  103f48:	37 9c ff dc 	addi sp,sp,-36
  103f4c:	5b 8b 00 24 	sw (sp+36),r11
  103f50:	5b 8c 00 20 	sw (sp+32),r12
  103f54:	5b 8d 00 1c 	sw (sp+28),r13
  103f58:	5b 8e 00 18 	sw (sp+24),r14
  103f5c:	5b 8f 00 14 	sw (sp+20),r15
  103f60:	5b 90 00 10 	sw (sp+16),r16
  103f64:	5b 91 00 0c 	sw (sp+12),r17
  103f68:	5b 92 00 08 	sw (sp+8),r18
  103f6c:	5b 9d 00 04 	sw (sp+4),ra
  103f70:	78 03 00 10 	mvhi r3,0x10
  103f74:	38 63 c8 c0 	ori r3,r3,0xc8c0
  103f78:	28 6f 00 00 	lw r15,(r3+0)
  103f7c:	b8 20 90 00 	mv r18,r1
  103f80:	b8 40 70 00 	mv r14,r2
  103f84:	34 11 00 01 	mvi r17,1
  103f88:	29 ed 01 48 	lw r13,(r15+328)
  103f8c:	45 a0 00 0d 	be r13,r0,103fc0 <__call_exitprocs+0x78>
  103f90:	29 a2 00 04 	lw r2,(r13+4)
  103f94:	34 4c ff ff 	addi r12,r2,-1
  103f98:	48 0c 00 0a 	bg r0,r12,103fc0 <__call_exitprocs+0x78>
  103f9c:	34 4b 00 21 	addi r11,r2,33
  103fa0:	3d 6b 00 02 	sli r11,r11,2
  103fa4:	b5 ab 58 00 	add r11,r13,r11
  103fa8:	45 c0 00 11 	be r14,r0,103fec <__call_exitprocs+0xa4>
  103fac:	29 62 00 80 	lw r2,(r11+128)
  103fb0:	44 4e 00 0f 	be r2,r14,103fec <__call_exitprocs+0xa4>
  103fb4:	35 8c ff ff 	addi r12,r12,-1
  103fb8:	35 6b ff fc 	addi r11,r11,-4
  103fbc:	4d 80 ff fb 	bge r12,r0,103fa8 <__call_exitprocs+0x60>
  103fc0:	2b 9d 00 04 	lw ra,(sp+4)
  103fc4:	2b 8b 00 24 	lw r11,(sp+36)
  103fc8:	2b 8c 00 20 	lw r12,(sp+32)
  103fcc:	2b 8d 00 1c 	lw r13,(sp+28)
  103fd0:	2b 8e 00 18 	lw r14,(sp+24)
  103fd4:	2b 8f 00 14 	lw r15,(sp+20)
  103fd8:	2b 90 00 10 	lw r16,(sp+16)
  103fdc:	2b 91 00 0c 	lw r17,(sp+12)
  103fe0:	2b 92 00 08 	lw r18,(sp+8)
  103fe4:	37 9c 00 24 	addi sp,sp,36
  103fe8:	c3 a0 00 00 	ret
  103fec:	29 a2 00 04 	lw r2,(r13+4)
  103ff0:	29 63 ff 80 	lw r3,(r11+-128)
  103ff4:	34 42 ff ff 	addi r2,r2,-1
  103ff8:	44 4c 00 15 	be r2,r12,10404c <__call_exitprocs+0x104>
  103ffc:	59 60 ff 80 	sw (r11+-128),r0
  104000:	44 60 ff ed 	be r3,r0,103fb4 <__call_exitprocs+0x6c>
  104004:	29 a4 01 88 	lw r4,(r13+392)
  104008:	be 2c 10 00 	sl r2,r17,r12
  10400c:	29 b0 00 04 	lw r16,(r13+4)
  104010:	a0 44 20 00 	and r4,r2,r4
  104014:	44 80 00 0c 	be r4,r0,104044 <__call_exitprocs+0xfc>
  104018:	29 a4 01 8c 	lw r4,(r13+396)
  10401c:	a0 44 10 00 	and r2,r2,r4
  104020:	5c 40 00 0d 	bne r2,r0,104054 <__call_exitprocs+0x10c>
  104024:	29 62 00 00 	lw r2,(r11+0)
  104028:	ba 40 08 00 	mv r1,r18
  10402c:	d8 60 00 00 	call r3
  104030:	29 a2 00 04 	lw r2,(r13+4)
  104034:	5c 50 ff d5 	bne r2,r16,103f88 <__call_exitprocs+0x40>
  104038:	29 e2 01 48 	lw r2,(r15+328)
  10403c:	44 4d ff de 	be r2,r13,103fb4 <__call_exitprocs+0x6c>
  104040:	e3 ff ff d2 	bi 103f88 <__call_exitprocs+0x40>
  104044:	d8 60 00 00 	call r3
  104048:	e3 ff ff fa 	bi 104030 <__call_exitprocs+0xe8>
  10404c:	59 ac 00 04 	sw (r13+4),r12
  104050:	e3 ff ff ec 	bi 104000 <__call_exitprocs+0xb8>
  104054:	29 61 00 00 	lw r1,(r11+0)
  104058:	d8 60 00 00 	call r3
  10405c:	e3 ff ff f5 	bi 104030 <__call_exitprocs+0xe8>

00104060 <quorem>:
  104060:	37 9c ff e0 	addi sp,sp,-32
  104064:	5b 8b 00 20 	sw (sp+32),r11
  104068:	5b 8c 00 1c 	sw (sp+28),r12
  10406c:	5b 8d 00 18 	sw (sp+24),r13
  104070:	5b 8e 00 14 	sw (sp+20),r14
  104074:	5b 8f 00 10 	sw (sp+16),r15
  104078:	5b 90 00 0c 	sw (sp+12),r16
  10407c:	5b 91 00 08 	sw (sp+8),r17
  104080:	5b 9d 00 04 	sw (sp+4),ra
  104084:	b8 40 80 00 	mv r16,r2
  104088:	28 4c 00 10 	lw r12,(r2+16)
  10408c:	28 22 00 10 	lw r2,(r1+16)
  104090:	b8 20 68 00 	mv r13,r1
  104094:	34 01 00 00 	mvi r1,0
  104098:	49 82 00 63 	bg r12,r2,104224 <quorem+0x1c4>
  10409c:	35 81 00 03 	addi r1,r12,3
  1040a0:	3c 21 00 02 	sli r1,r1,2
  1040a4:	35 8c ff ff 	addi r12,r12,-1
  1040a8:	b6 01 88 00 	add r17,r16,r1
  1040ac:	2a 22 00 04 	lw r2,(r17+4)
  1040b0:	b5 a1 08 00 	add r1,r13,r1
  1040b4:	28 21 00 04 	lw r1,(r1+4)
  1040b8:	34 42 00 01 	addi r2,r2,1
  1040bc:	36 31 00 04 	addi r17,r17,4
  1040c0:	fb ff f7 2d 	calli 101d74 <__udivsi3>
  1040c4:	b8 20 70 00 	mv r14,r1
  1040c8:	36 0b 00 14 	addi r11,r16,20
  1040cc:	35 af 00 14 	addi r15,r13,20
  1040d0:	44 20 00 2d 	be r1,r0,104184 <quorem+0x124>
  1040d4:	b9 60 20 00 	mv r4,r11
  1040d8:	b9 e0 18 00 	mv r3,r15
  1040dc:	34 05 00 00 	mvi r5,0
  1040e0:	34 01 00 00 	mvi r1,0
  1040e4:	28 88 00 00 	lw r8,(r4+0)
  1040e8:	28 62 00 00 	lw r2,(r3+0)
  1040ec:	34 84 00 04 	addi r4,r4,4
  1040f0:	21 07 ff ff 	andi r7,r8,0xffff
  1040f4:	89 c7 38 00 	mul r7,r14,r7
  1040f8:	01 08 00 10 	srui r8,r8,16
  1040fc:	20 46 ff ff 	andi r6,r2,0xffff
  104100:	b4 a7 38 00 	add r7,r5,r7
  104104:	89 c8 40 00 	mul r8,r14,r8
  104108:	00 e5 00 10 	srui r5,r7,16
  10410c:	b4 26 08 00 	add r1,r1,r6
  104110:	20 e7 ff ff 	andi r7,r7,0xffff
  104114:	c8 27 30 00 	sub r6,r1,r7
  104118:	b4 a8 28 00 	add r5,r5,r8
  10411c:	00 41 00 10 	srui r1,r2,16
  104120:	20 a7 ff ff 	andi r7,r5,0xffff
  104124:	14 c2 00 10 	sri r2,r6,16
  104128:	c8 27 08 00 	sub r1,r1,r7
  10412c:	b4 22 08 00 	add r1,r1,r2
  104130:	3c 22 00 10 	sli r2,r1,16
  104134:	20 c6 ff ff 	andi r6,r6,0xffff
  104138:	b8 46 30 00 	or r6,r2,r6
  10413c:	58 66 00 00 	sw (r3+0),r6
  104140:	00 a5 00 10 	srui r5,r5,16
  104144:	14 21 00 10 	sri r1,r1,16
  104148:	34 63 00 04 	addi r3,r3,4
  10414c:	52 24 ff e6 	bgeu r17,r4,1040e4 <quorem+0x84>
  104150:	35 83 00 04 	addi r3,r12,4
  104154:	3c 63 00 02 	sli r3,r3,2
  104158:	b5 a3 18 00 	add r3,r13,r3
  10415c:	28 61 00 04 	lw r1,(r3+4)
  104160:	5c 20 00 09 	bne r1,r0,104184 <quorem+0x124>
  104164:	51 e3 00 07 	bgeu r15,r3,104180 <quorem+0x120>
  104168:	e0 00 00 04 	bi 104178 <quorem+0x118>
  10416c:	34 63 ff fc 	addi r3,r3,-4
  104170:	35 8c ff ff 	addi r12,r12,-1
  104174:	51 e3 00 03 	bgeu r15,r3,104180 <quorem+0x120>
  104178:	28 61 00 00 	lw r1,(r3+0)
  10417c:	44 20 ff fc 	be r1,r0,10416c <quorem+0x10c>
  104180:	59 ac 00 10 	sw (r13+16),r12
  104184:	b9 a0 08 00 	mv r1,r13
  104188:	ba 00 10 00 	mv r2,r16
  10418c:	f8 00 0c ce 	calli 1074c4 <__mcmp>
  104190:	48 01 00 24 	bg r0,r1,104220 <quorem+0x1c0>
  104194:	35 ce 00 01 	addi r14,r14,1
  104198:	b9 e0 10 00 	mv r2,r15
  10419c:	34 01 00 00 	mvi r1,0
  1041a0:	28 45 00 00 	lw r5,(r2+0)
  1041a4:	29 64 00 00 	lw r4,(r11+0)
  1041a8:	35 6b 00 04 	addi r11,r11,4
  1041ac:	20 a6 ff ff 	andi r6,r5,0xffff
  1041b0:	20 83 ff ff 	andi r3,r4,0xffff
  1041b4:	c8 c3 18 00 	sub r3,r6,r3
  1041b8:	b4 61 18 00 	add r3,r3,r1
  1041bc:	00 84 00 10 	srui r4,r4,16
  1041c0:	00 a1 00 10 	srui r1,r5,16
  1041c4:	14 65 00 10 	sri r5,r3,16
  1041c8:	c8 24 08 00 	sub r1,r1,r4
  1041cc:	b4 25 08 00 	add r1,r1,r5
  1041d0:	3c 24 00 10 	sli r4,r1,16
  1041d4:	20 63 ff ff 	andi r3,r3,0xffff
  1041d8:	b8 83 18 00 	or r3,r4,r3
  1041dc:	58 43 00 00 	sw (r2+0),r3
  1041e0:	14 21 00 10 	sri r1,r1,16
  1041e4:	34 42 00 04 	addi r2,r2,4
  1041e8:	52 2b ff ee 	bgeu r17,r11,1041a0 <quorem+0x140>
  1041ec:	35 82 00 04 	addi r2,r12,4
  1041f0:	3c 42 00 02 	sli r2,r2,2
  1041f4:	b5 a2 10 00 	add r2,r13,r2
  1041f8:	28 41 00 04 	lw r1,(r2+4)
  1041fc:	5c 20 00 09 	bne r1,r0,104220 <quorem+0x1c0>
  104200:	51 e2 00 07 	bgeu r15,r2,10421c <quorem+0x1bc>
  104204:	e0 00 00 04 	bi 104214 <quorem+0x1b4>
  104208:	34 42 ff fc 	addi r2,r2,-4
  10420c:	35 8c ff ff 	addi r12,r12,-1
  104210:	51 e2 00 03 	bgeu r15,r2,10421c <quorem+0x1bc>
  104214:	28 41 00 00 	lw r1,(r2+0)
  104218:	44 20 ff fc 	be r1,r0,104208 <quorem+0x1a8>
  10421c:	59 ac 00 10 	sw (r13+16),r12
  104220:	b9 c0 08 00 	mv r1,r14
  104224:	2b 9d 00 04 	lw ra,(sp+4)
  104228:	2b 8b 00 20 	lw r11,(sp+32)
  10422c:	2b 8c 00 1c 	lw r12,(sp+28)
  104230:	2b 8d 00 18 	lw r13,(sp+24)
  104234:	2b 8e 00 14 	lw r14,(sp+20)
  104238:	2b 8f 00 10 	lw r15,(sp+16)
  10423c:	2b 90 00 0c 	lw r16,(sp+12)
  104240:	2b 91 00 08 	lw r17,(sp+8)
  104244:	37 9c 00 20 	addi sp,sp,32
  104248:	c3 a0 00 00 	ret

0010424c <_dtoa_r>:
  10424c:	37 9c ff 80 	addi sp,sp,-128
  104250:	5b 8b 00 44 	sw (sp+68),r11
  104254:	5b 8c 00 40 	sw (sp+64),r12
  104258:	5b 8d 00 3c 	sw (sp+60),r13
  10425c:	5b 8e 00 38 	sw (sp+56),r14
  104260:	5b 8f 00 34 	sw (sp+52),r15
  104264:	5b 90 00 30 	sw (sp+48),r16
  104268:	5b 91 00 2c 	sw (sp+44),r17
  10426c:	5b 92 00 28 	sw (sp+40),r18
  104270:	5b 93 00 24 	sw (sp+36),r19
  104274:	5b 94 00 20 	sw (sp+32),r20
  104278:	5b 95 00 1c 	sw (sp+28),r21
  10427c:	5b 96 00 18 	sw (sp+24),r22
  104280:	5b 97 00 14 	sw (sp+20),r23
  104284:	5b 98 00 10 	sw (sp+16),r24
  104288:	5b 99 00 0c 	sw (sp+12),r25
  10428c:	5b 9b 00 08 	sw (sp+8),fp
  104290:	5b 9d 00 04 	sw (sp+4),ra
  104294:	28 29 00 40 	lw r9,(r1+64)
  104298:	5b 85 00 50 	sw (sp+80),r5
  10429c:	5b 86 00 4c 	sw (sp+76),r6
  1042a0:	5b 88 00 48 	sw (sp+72),r8
  1042a4:	b8 20 a0 00 	mv r20,r1
  1042a8:	b8 40 58 00 	mv r11,r2
  1042ac:	b8 60 a8 00 	mv r21,r3
  1042b0:	b8 80 b8 00 	mv r23,r4
  1042b4:	b8 e0 60 00 	mv r12,r7
  1042b8:	45 20 00 09 	be r9,r0,1042dc <_dtoa_r+0x90>
  1042bc:	28 2a 00 44 	lw r10,(r1+68)
  1042c0:	34 07 00 01 	mvi r7,1
  1042c4:	b9 20 10 00 	mv r2,r9
  1042c8:	bc ea 38 00 	sl r7,r7,r10
  1042cc:	59 2a 00 04 	sw (r9+4),r10
  1042d0:	59 27 00 08 	sw (r9+8),r7
  1042d4:	f8 00 0a 7f 	calli 106cd0 <_Bfree>
  1042d8:	5a 80 00 40 	sw (r20+64),r0
  1042dc:	4d 60 00 34 	bge r11,r0,1043ac <_dtoa_r+0x160>
  1042e0:	78 01 00 10 	mvhi r1,0x10
  1042e4:	34 07 00 01 	mvi r7,1
  1042e8:	38 21 ca a0 	ori r1,r1,0xcaa0
  1042ec:	59 87 00 00 	sw (r12+0),r7
  1042f0:	28 27 00 00 	lw r7,(r1+0)
  1042f4:	a1 67 58 00 	and r11,r11,r7
  1042f8:	78 07 7f f0 	mvhi r7,0x7ff0
  1042fc:	a1 67 48 00 	and r9,r11,r7
  104300:	5d 27 00 2f 	bne r9,r7,1043bc <_dtoa_r+0x170>
  104304:	2b 82 00 4c 	lw r2,(sp+76)
  104308:	34 07 27 0f 	mvi r7,9999
  10430c:	78 05 00 10 	mvhi r5,0x10
  104310:	58 47 00 00 	sw (r2+0),r7
  104314:	38 a5 ca 9c 	ori r5,r5,0xca9c
  104318:	5e a0 00 0a 	bne r21,r0,104340 <_dtoa_r+0xf4>
  10431c:	78 03 00 10 	mvhi r3,0x10
  104320:	38 63 c7 74 	ori r3,r3,0xc774
  104324:	28 61 00 00 	lw r1,(r3+0)
  104328:	78 05 00 10 	mvhi r5,0x10
  10432c:	38 a5 ca 90 	ori r5,r5,0xca90
  104330:	a1 61 58 00 	and r11,r11,r1
  104334:	45 75 00 03 	be r11,r21,104340 <_dtoa_r+0xf4>
  104338:	78 05 00 10 	mvhi r5,0x10
  10433c:	38 a5 ca 9c 	ori r5,r5,0xca9c
  104340:	2b 84 00 48 	lw r4,(sp+72)
  104344:	44 80 00 06 	be r4,r0,10435c <_dtoa_r+0x110>
  104348:	40 a2 00 03 	lbu r2,(r5+3)
  10434c:	34 a1 00 03 	addi r1,r5,3
  104350:	5c 40 00 a2 	bne r2,r0,1045d8 <_dtoa_r+0x38c>
  104354:	2b 82 00 48 	lw r2,(sp+72)
  104358:	58 41 00 00 	sw (r2+0),r1
  10435c:	b8 a0 08 00 	mv r1,r5
  104360:	2b 9d 00 04 	lw ra,(sp+4)
  104364:	2b 8b 00 44 	lw r11,(sp+68)
  104368:	2b 8c 00 40 	lw r12,(sp+64)
  10436c:	2b 8d 00 3c 	lw r13,(sp+60)
  104370:	2b 8e 00 38 	lw r14,(sp+56)
  104374:	2b 8f 00 34 	lw r15,(sp+52)
  104378:	2b 90 00 30 	lw r16,(sp+48)
  10437c:	2b 91 00 2c 	lw r17,(sp+44)
  104380:	2b 92 00 28 	lw r18,(sp+40)
  104384:	2b 93 00 24 	lw r19,(sp+36)
  104388:	2b 94 00 20 	lw r20,(sp+32)
  10438c:	2b 95 00 1c 	lw r21,(sp+28)
  104390:	2b 96 00 18 	lw r22,(sp+24)
  104394:	2b 97 00 14 	lw r23,(sp+20)
  104398:	2b 98 00 10 	lw r24,(sp+16)
  10439c:	2b 99 00 0c 	lw r25,(sp+12)
  1043a0:	2b 9b 00 08 	lw fp,(sp+8)
  1043a4:	37 9c 00 80 	addi sp,sp,128
  1043a8:	c3 a0 00 00 	ret
  1043ac:	78 07 7f f0 	mvhi r7,0x7ff0
  1043b0:	59 80 00 00 	sw (r12+0),r0
  1043b4:	a1 67 48 00 	and r9,r11,r7
  1043b8:	45 27 ff d3 	be r9,r7,104304 <_dtoa_r+0xb8>
  1043bc:	b9 60 08 00 	mv r1,r11
  1043c0:	ba a0 10 00 	mv r2,r21
  1043c4:	34 03 00 00 	mvi r3,0
  1043c8:	34 04 00 00 	mvi r4,0
  1043cc:	f8 00 1a d1 	calli 10af10 <__eqdf2>
  1043d0:	44 20 00 75 	be r1,r0,1045a4 <_dtoa_r+0x358>
  1043d4:	01 6c 00 14 	srui r12,r11,20
  1043d8:	ba 80 08 00 	mv r1,r20
  1043dc:	b9 60 10 00 	mv r2,r11
  1043e0:	ba a0 18 00 	mv r3,r21
  1043e4:	37 84 00 7c 	addi r4,sp,124
  1043e8:	37 85 00 80 	addi r5,sp,128
  1043ec:	f8 00 0d 18 	calli 10784c <__d2b>
  1043f0:	21 8c 07 ff 	andi r12,r12,0x7ff
  1043f4:	b8 20 c8 00 	mv r25,r1
  1043f8:	45 80 00 7a 	be r12,r0,1045e0 <_dtoa_r+0x394>
  1043fc:	78 05 00 10 	mvhi r5,0x10
  104400:	38 a5 c7 74 	ori r5,r5,0xc774
  104404:	28 aa 00 00 	lw r10,(r5+0)
  104408:	2b 8d 00 80 	lw r13,(sp+128)
  10440c:	78 09 3f f0 	mvhi r9,0x3ff0
  104410:	a1 6a 50 00 	and r10,r11,r10
  104414:	ba a0 38 00 	mv r7,r21
  104418:	b9 49 48 00 	or r9,r10,r9
  10441c:	35 8c fc 01 	addi r12,r12,-1023
  104420:	5b 80 00 70 	sw (sp+112),r0
  104424:	b9 20 08 00 	mv r1,r9
  104428:	b8 e0 10 00 	mv r2,r7
  10442c:	78 03 3f f8 	mvhi r3,0x3ff8
  104430:	34 04 00 00 	mvi r4,0
  104434:	f8 00 1d 2d 	calli 10b8e8 <__subdf3>
  104438:	78 04 00 10 	mvhi r4,0x10
  10443c:	78 05 00 10 	mvhi r5,0x10
  104440:	38 a5 ca a8 	ori r5,r5,0xcaa8
  104444:	38 84 ca a4 	ori r4,r4,0xcaa4
  104448:	28 83 00 00 	lw r3,(r4+0)
  10444c:	28 a4 00 00 	lw r4,(r5+0)
  104450:	f8 00 1b 7c 	calli 10b240 <__muldf3>
  104454:	78 04 00 10 	mvhi r4,0x10
  104458:	78 05 00 10 	mvhi r5,0x10
  10445c:	38 a5 ca b0 	ori r5,r5,0xcab0
  104460:	38 84 ca ac 	ori r4,r4,0xcaac
  104464:	28 83 00 00 	lw r3,(r4+0)
  104468:	28 a4 00 00 	lw r4,(r5+0)
  10446c:	f8 00 18 53 	calli 10a5b8 <__adddf3>
  104470:	b8 20 78 00 	mv r15,r1
  104474:	b9 80 08 00 	mv r1,r12
  104478:	b8 40 70 00 	mv r14,r2
  10447c:	f8 00 1f 9f 	calli 10c2f8 <__floatsidf>
  104480:	78 04 00 10 	mvhi r4,0x10
  104484:	78 05 00 10 	mvhi r5,0x10
  104488:	38 a5 ca b8 	ori r5,r5,0xcab8
  10448c:	38 84 ca b4 	ori r4,r4,0xcab4
  104490:	28 83 00 00 	lw r3,(r4+0)
  104494:	28 a4 00 00 	lw r4,(r5+0)
  104498:	f8 00 1b 6a 	calli 10b240 <__muldf3>
  10449c:	b8 20 48 00 	mv r9,r1
  1044a0:	b8 40 38 00 	mv r7,r2
  1044a4:	b9 20 18 00 	mv r3,r9
  1044a8:	b8 e0 20 00 	mv r4,r7
  1044ac:	b9 e0 08 00 	mv r1,r15
  1044b0:	b9 c0 10 00 	mv r2,r14
  1044b4:	f8 00 18 41 	calli 10a5b8 <__adddf3>
  1044b8:	b8 20 78 00 	mv r15,r1
  1044bc:	b8 40 70 00 	mv r14,r2
  1044c0:	f8 00 1f 6c 	calli 10c270 <__fixdfsi>
  1044c4:	b8 20 b0 00 	mv r22,r1
  1044c8:	b9 c0 10 00 	mv r2,r14
  1044cc:	b9 e0 08 00 	mv r1,r15
  1044d0:	34 03 00 00 	mvi r3,0
  1044d4:	34 04 00 00 	mvi r4,0
  1044d8:	f8 00 1b 05 	calli 10b0ec <__ledf2>
  1044dc:	48 01 01 32 	bg r0,r1,1049a4 <_dtoa_r+0x758>
  1044e0:	34 01 00 01 	mvi r1,1
  1044e4:	5b 81 00 5c 	sw (sp+92),r1
  1044e8:	34 09 00 16 	mvi r9,22
  1044ec:	56 c9 00 0c 	bgu r22,r9,10451c <_dtoa_r+0x2d0>
  1044f0:	78 07 00 10 	mvhi r7,0x10
  1044f4:	3e c9 00 03 	sli r9,r22,3
  1044f8:	38 e7 cb 08 	ori r7,r7,0xcb08
  1044fc:	b4 e9 38 00 	add r7,r7,r9
  104500:	28 e1 00 00 	lw r1,(r7+0)
  104504:	28 e2 00 04 	lw r2,(r7+4)
  104508:	b9 60 18 00 	mv r3,r11
  10450c:	ba a0 20 00 	mv r4,r21
  104510:	f8 00 1a a6 	calli 10afa8 <__gedf2>
  104514:	48 20 01 cc 	bg r1,r0,104c44 <_dtoa_r+0x9f8>
  104518:	5b 80 00 5c 	sw (sp+92),r0
  10451c:	35 ad ff ff 	addi r13,r13,-1
  104520:	c9 ac 68 00 	sub r13,r13,r12
  104524:	5b 8d 00 54 	sw (sp+84),r13
  104528:	5b 80 00 58 	sw (sp+88),r0
  10452c:	4d a0 00 04 	bge r13,r0,10453c <_dtoa_r+0x2f0>
  104530:	c8 0d 10 00 	sub r2,r0,r13
  104534:	5b 82 00 58 	sw (sp+88),r2
  104538:	5b 80 00 54 	sw (sp+84),r0
  10453c:	48 16 01 bb 	bg r0,r22,104c28 <_dtoa_r+0x9dc>
  104540:	2b 83 00 54 	lw r3,(sp+84)
  104544:	5b 96 00 64 	sw (sp+100),r22
  104548:	5b 80 00 60 	sw (sp+96),r0
  10454c:	b4 76 18 00 	add r3,r3,r22
  104550:	5b 83 00 54 	sw (sp+84),r3
  104554:	34 09 00 09 	mvi r9,9
  104558:	56 e9 00 38 	bgu r23,r9,104638 <_dtoa_r+0x3ec>
  10455c:	34 07 00 05 	mvi r7,5
  104560:	34 0e 00 01 	mvi r14,1
  104564:	4c f7 00 03 	bge r7,r23,104570 <_dtoa_r+0x324>
  104568:	36 f7 ff fc 	addi r23,r23,-4
  10456c:	34 0e 00 00 	mvi r14,0
  104570:	34 07 00 03 	mvi r7,3
  104574:	46 e7 03 70 	be r23,r7,105334 <_dtoa_r+0x10e8>
  104578:	4a e7 01 c2 	bg r23,r7,104c80 <_dtoa_r+0xa34>
  10457c:	34 07 00 02 	mvi r7,2
  104580:	46 e7 03 6f 	be r23,r7,10533c <_dtoa_r+0x10f0>
  104584:	34 05 00 01 	mvi r5,1
  104588:	34 01 ff ff 	mvi r1,-1
  10458c:	34 0d 00 00 	mvi r13,0
  104590:	5b 85 00 68 	sw (sp+104),r5
  104594:	5b 81 00 6c 	sw (sp+108),r1
  104598:	34 1b ff ff 	mvi fp,-1
  10459c:	5b 80 00 50 	sw (sp+80),r0
  1045a0:	e0 00 00 2e 	bi 104658 <_dtoa_r+0x40c>
  1045a4:	2b 83 00 4c 	lw r3,(sp+76)
  1045a8:	2b 84 00 48 	lw r4,(sp+72)
  1045ac:	34 01 00 01 	mvi r1,1
  1045b0:	78 05 00 10 	mvhi r5,0x10
  1045b4:	58 61 00 00 	sw (r3+0),r1
  1045b8:	38 a5 c9 08 	ori r5,r5,0xc908
  1045bc:	44 80 ff 68 	be r4,r0,10435c <_dtoa_r+0x110>
  1045c0:	78 01 00 10 	mvhi r1,0x10
  1045c4:	38 21 c9 09 	ori r1,r1,0xc909
  1045c8:	78 05 00 10 	mvhi r5,0x10
  1045cc:	58 81 00 00 	sw (r4+0),r1
  1045d0:	38 a5 c9 08 	ori r5,r5,0xc908
  1045d4:	e3 ff ff 62 	bi 10435c <_dtoa_r+0x110>
  1045d8:	34 a1 00 08 	addi r1,r5,8
  1045dc:	e3 ff ff 5e 	bi 104354 <_dtoa_r+0x108>
  1045e0:	2b 8d 00 80 	lw r13,(sp+128)
  1045e4:	2b 8a 00 7c 	lw r10,(sp+124)
  1045e8:	34 09 00 20 	mvi r9,32
  1045ec:	b5 aa 50 00 	add r10,r13,r10
  1045f0:	35 4c 04 32 	addi r12,r10,1074
  1045f4:	c9 2c 38 00 	sub r7,r9,r12
  1045f8:	be a7 38 00 	sl r7,r21,r7
  1045fc:	4d 2c 00 06 	bge r9,r12,104614 <_dtoa_r+0x3c8>
  104600:	c8 0c 38 00 	sub r7,r0,r12
  104604:	35 4a 04 12 	addi r10,r10,1042
  104608:	bd 67 38 00 	sl r7,r11,r7
  10460c:	82 aa 50 00 	sru r10,r21,r10
  104610:	b8 ea 38 00 	or r7,r7,r10
  104614:	b8 e0 08 00 	mv r1,r7
  104618:	fb ff f5 6f 	calli 101bd4 <__floatunsidf>
  10461c:	78 09 fe 10 	mvhi r9,0xfe10
  104620:	b4 29 48 00 	add r9,r1,r9
  104624:	34 01 00 01 	mvi r1,1
  104628:	b8 40 38 00 	mv r7,r2
  10462c:	35 8c fb cd 	addi r12,r12,-1075
  104630:	5b 81 00 70 	sw (sp+112),r1
  104634:	e3 ff ff 7c 	bi 104424 <_dtoa_r+0x1d8>
  104638:	34 03 00 01 	mvi r3,1
  10463c:	34 04 ff ff 	mvi r4,-1
  104640:	34 0d 00 00 	mvi r13,0
  104644:	34 17 00 00 	mvi r23,0
  104648:	5b 83 00 68 	sw (sp+104),r3
  10464c:	5b 84 00 6c 	sw (sp+108),r4
  104650:	34 1b ff ff 	mvi fp,-1
  104654:	5b 80 00 50 	sw (sp+80),r0
  104658:	5a 80 00 44 	sw (r20+68),r0
  10465c:	34 09 00 00 	mvi r9,0
  104660:	ba 80 08 00 	mv r1,r20
  104664:	b9 20 10 00 	mv r2,r9
  104668:	f8 00 09 70 	calli 106c28 <_Balloc>
  10466c:	5a 81 00 40 	sw (r20+64),r1
  104670:	b8 20 c0 00 	mv r24,r1
  104674:	ba a0 60 00 	mv r12,r21
  104678:	45 a0 00 71 	be r13,r0,10483c <_dtoa_r+0x5f0>
  10467c:	5b 8b 00 74 	sw (sp+116),r11
  104680:	4c 16 02 aa 	bge r0,r22,105128 <_dtoa_r+0xedc>
  104684:	22 c7 00 0f 	andi r7,r22,0xf
  104688:	3c e7 00 03 	sli r7,r7,3
  10468c:	78 09 00 10 	mvhi r9,0x10
  104690:	16 ce 00 04 	sri r14,r22,4
  104694:	39 29 cb 08 	ori r9,r9,0xcb08
  104698:	b5 27 48 00 	add r9,r9,r7
  10469c:	21 c7 00 10 	andi r7,r14,0x10
  1046a0:	29 30 00 00 	lw r16,(r9+0)
  1046a4:	29 2f 00 04 	lw r15,(r9+4)
  1046a8:	ba a0 98 00 	mv r19,r21
  1046ac:	34 12 00 02 	mvi r18,2
  1046b0:	5c e0 01 68 	bne r7,r0,104c50 <_dtoa_r+0xa04>
  1046b4:	45 c0 00 10 	be r14,r0,1046f4 <_dtoa_r+0x4a8>
  1046b8:	78 11 00 10 	mvhi r17,0x10
  1046bc:	3a 31 cb d0 	ori r17,r17,0xcbd0
  1046c0:	21 c3 00 01 	andi r3,r14,0x1
  1046c4:	ba 00 08 00 	mv r1,r16
  1046c8:	15 ce 00 01 	sri r14,r14,1
  1046cc:	b9 e0 10 00 	mv r2,r15
  1046d0:	44 60 00 07 	be r3,r0,1046ec <_dtoa_r+0x4a0>
  1046d4:	2a 23 00 00 	lw r3,(r17+0)
  1046d8:	2a 24 00 04 	lw r4,(r17+4)
  1046dc:	36 52 00 01 	addi r18,r18,1
  1046e0:	f8 00 1a d8 	calli 10b240 <__muldf3>
  1046e4:	b8 20 80 00 	mv r16,r1
  1046e8:	b8 40 78 00 	mv r15,r2
  1046ec:	36 31 00 08 	addi r17,r17,8
  1046f0:	5d c0 ff f4 	bne r14,r0,1046c0 <_dtoa_r+0x474>
  1046f4:	b9 60 08 00 	mv r1,r11
  1046f8:	ba 00 18 00 	mv r3,r16
  1046fc:	ba 60 10 00 	mv r2,r19
  104700:	b9 e0 20 00 	mv r4,r15
  104704:	fb ff f3 3b 	calli 1013f0 <__divdf3>
  104708:	b8 40 80 00 	mv r16,r2
  10470c:	b8 20 58 00 	mv r11,r1
  104710:	2b 81 00 5c 	lw r1,(sp+92)
  104714:	44 20 00 26 	be r1,r0,1047ac <_dtoa_r+0x560>
  104718:	b9 60 08 00 	mv r1,r11
  10471c:	ba 00 10 00 	mv r2,r16
  104720:	78 03 3f f0 	mvhi r3,0x3ff0
  104724:	34 04 00 00 	mvi r4,0
  104728:	f8 00 1a 71 	calli 10b0ec <__ledf2>
  10472c:	6b 69 00 00 	cmpgi r9,fp,0
  104730:	00 27 00 1f 	srui r7,r1,31
  104734:	a1 27 38 00 	and r7,r9,r7
  104738:	44 e0 00 1d 	be r7,r0,1047ac <_dtoa_r+0x560>
  10473c:	2b 82 00 6c 	lw r2,(sp+108)
  104740:	4c 02 00 3d 	bge r0,r2,104834 <_dtoa_r+0x5e8>
  104744:	78 03 40 24 	mvhi r3,0x4024
  104748:	34 04 00 00 	mvi r4,0
  10474c:	b9 60 08 00 	mv r1,r11
  104750:	ba 00 10 00 	mv r2,r16
  104754:	f8 00 1a bb 	calli 10b240 <__muldf3>
  104758:	b8 20 58 00 	mv r11,r1
  10475c:	36 41 00 01 	addi r1,r18,1
  104760:	b8 40 80 00 	mv r16,r2
  104764:	f8 00 1e e5 	calli 10c2f8 <__floatsidf>
  104768:	b8 40 38 00 	mv r7,r2
  10476c:	b8 20 48 00 	mv r9,r1
  104770:	b8 e0 20 00 	mv r4,r7
  104774:	b9 20 18 00 	mv r3,r9
  104778:	b9 60 08 00 	mv r1,r11
  10477c:	ba 00 10 00 	mv r2,r16
  104780:	f8 00 1a b0 	calli 10b240 <__muldf3>
  104784:	78 03 40 1c 	mvhi r3,0x401c
  104788:	34 04 00 00 	mvi r4,0
  10478c:	f8 00 17 8b 	calli 10a5b8 <__adddf3>
  104790:	36 c3 ff ff 	addi r3,r22,-1
  104794:	78 07 fc c0 	mvhi r7,0xfcc0
  104798:	b8 40 88 00 	mv r17,r2
  10479c:	5b 83 00 78 	sw (sp+120),r3
  1047a0:	b4 27 90 00 	add r18,r1,r7
  1047a4:	2b 8c 00 6c 	lw r12,(sp+108)
  1047a8:	e0 00 01 52 	bi 104cf0 <_dtoa_r+0xaa4>
  1047ac:	ba 40 08 00 	mv r1,r18
  1047b0:	f8 00 1e d2 	calli 10c2f8 <__floatsidf>
  1047b4:	b9 60 18 00 	mv r3,r11
  1047b8:	ba 00 20 00 	mv r4,r16
  1047bc:	f8 00 1a a1 	calli 10b240 <__muldf3>
  1047c0:	78 03 40 1c 	mvhi r3,0x401c
  1047c4:	34 04 00 00 	mvi r4,0
  1047c8:	f8 00 17 7c 	calli 10a5b8 <__adddf3>
  1047cc:	78 07 fc c0 	mvhi r7,0xfcc0
  1047d0:	b8 40 88 00 	mv r17,r2
  1047d4:	b4 27 90 00 	add r18,r1,r7
  1047d8:	5f 60 01 44 	bne fp,r0,104ce8 <_dtoa_r+0xa9c>
  1047dc:	b9 60 08 00 	mv r1,r11
  1047e0:	ba 00 10 00 	mv r2,r16
  1047e4:	78 03 40 14 	mvhi r3,0x4014
  1047e8:	34 04 00 00 	mvi r4,0
  1047ec:	f8 00 1c 3f 	calli 10b8e8 <__subdf3>
  1047f0:	ba 40 18 00 	mv r3,r18
  1047f4:	ba 20 20 00 	mv r4,r17
  1047f8:	b8 20 80 00 	mv r16,r1
  1047fc:	b8 40 58 00 	mv r11,r2
  104800:	f8 00 19 ea 	calli 10afa8 <__gedf2>
  104804:	34 0c 00 00 	mvi r12,0
  104808:	34 0e 00 00 	mvi r14,0
  10480c:	48 3b 00 2a 	bg r1,fp,1048b4 <_dtoa_r+0x668>
  104810:	78 09 80 00 	mvhi r9,0x8000
  104814:	9a 49 08 00 	xor r1,r18,r9
  104818:	ba 20 10 00 	mv r2,r17
  10481c:	ba 00 18 00 	mv r3,r16
  104820:	b9 60 20 00 	mv r4,r11
  104824:	f8 00 19 e1 	calli 10afa8 <__gedf2>
  104828:	bb 60 60 00 	mv r12,fp
  10482c:	bb 60 70 00 	mv r14,fp
  104830:	48 20 00 f9 	bg r1,r0,104c14 <_dtoa_r+0x9c8>
  104834:	2b 8b 00 74 	lw r11,(sp+116)
  104838:	ba a0 60 00 	mv r12,r21
  10483c:	2b 89 00 7c 	lw r9,(sp+124)
  104840:	34 0a 00 0e 	mvi r10,14
  104844:	ed 56 50 00 	cmpge r10,r10,r22
  104848:	6d 27 00 00 	cmpgei r7,r9,0
  10484c:	a1 47 38 00 	and r7,r10,r7
  104850:	44 e0 00 5d 	be r7,r0,1049c4 <_dtoa_r+0x778>
  104854:	2b 85 00 50 	lw r5,(sp+80)
  104858:	3e cd 00 03 	sli r13,r22,3
  10485c:	78 09 00 10 	mvhi r9,0x10
  104860:	ec 1b 50 00 	cmpge r10,r0,fp
  104864:	00 a7 00 1f 	srui r7,r5,31
  104868:	39 29 cb 08 	ori r9,r9,0xcb08
  10486c:	b5 2d 48 00 	add r9,r9,r13
  104870:	a1 47 38 00 	and r7,r10,r7
  104874:	29 2e 00 00 	lw r14,(r9+0)
  104878:	29 2d 00 04 	lw r13,(r9+4)
  10487c:	bb 00 98 00 	mv r19,r24
  104880:	44 e0 00 29 	be r7,r0,104924 <_dtoa_r+0x6d8>
  104884:	5f 60 02 f2 	bne fp,r0,10544c <_dtoa_r+0x1200>
  104888:	b9 c0 08 00 	mv r1,r14
  10488c:	78 03 40 14 	mvhi r3,0x4014
  104890:	34 04 00 00 	mvi r4,0
  104894:	b9 a0 10 00 	mv r2,r13
  104898:	f8 00 1a 6a 	calli 10b240 <__muldf3>
  10489c:	b9 60 18 00 	mv r3,r11
  1048a0:	ba a0 20 00 	mv r4,r21
  1048a4:	f8 00 19 c1 	calli 10afa8 <__gedf2>
  1048a8:	34 0c 00 00 	mvi r12,0
  1048ac:	34 0e 00 00 	mvi r14,0
  1048b0:	4c 20 00 d9 	bge r1,r0,104c14 <_dtoa_r+0x9c8>
  1048b4:	34 04 00 31 	mvi r4,49
  1048b8:	33 04 00 00 	sb (r24+0),r4
  1048bc:	37 13 00 01 	addi r19,r24,1
  1048c0:	36 d6 00 01 	addi r22,r22,1
  1048c4:	34 0b 00 00 	mvi r11,0
  1048c8:	ba 80 08 00 	mv r1,r20
  1048cc:	b9 80 10 00 	mv r2,r12
  1048d0:	f8 00 09 00 	calli 106cd0 <_Bfree>
  1048d4:	45 c0 00 08 	be r14,r0,1048f4 <_dtoa_r+0x6a8>
  1048d8:	fd 6e 38 00 	cmpne r7,r11,r14
  1048dc:	7d 64 00 00 	cmpnei r4,r11,0
  1048e0:	a0 e4 20 00 	and r4,r7,r4
  1048e4:	5c 80 01 71 	bne r4,r0,104ea8 <_dtoa_r+0xc5c>
  1048e8:	ba 80 08 00 	mv r1,r20
  1048ec:	b9 c0 10 00 	mv r2,r14
  1048f0:	f8 00 08 f8 	calli 106cd0 <_Bfree>
  1048f4:	ba 80 08 00 	mv r1,r20
  1048f8:	bb 20 10 00 	mv r2,r25
  1048fc:	f8 00 08 f5 	calli 106cd0 <_Bfree>
  104900:	32 60 00 00 	sb (r19+0),r0
  104904:	2b 81 00 4c 	lw r1,(sp+76)
  104908:	36 c2 00 01 	addi r2,r22,1
  10490c:	bb 00 28 00 	mv r5,r24
  104910:	58 22 00 00 	sw (r1+0),r2
  104914:	2b 82 00 48 	lw r2,(sp+72)
  104918:	44 40 fe 91 	be r2,r0,10435c <_dtoa_r+0x110>
  10491c:	58 53 00 00 	sw (r2+0),r19
  104920:	e3 ff fe 8f 	bi 10435c <_dtoa_r+0x110>
  104924:	b9 c0 18 00 	mv r3,r14
  104928:	b9 a0 20 00 	mv r4,r13
  10492c:	b9 60 08 00 	mv r1,r11
  104930:	b9 80 10 00 	mv r2,r12
  104934:	fb ff f2 af 	calli 1013f0 <__divdf3>
  104938:	f8 00 1e 4e 	calli 10c270 <__fixdfsi>
  10493c:	b8 20 78 00 	mv r15,r1
  104940:	f8 00 1e 6e 	calli 10c2f8 <__floatsidf>
  104944:	b9 c0 18 00 	mv r3,r14
  104948:	b9 a0 20 00 	mv r4,r13
  10494c:	f8 00 1a 3d 	calli 10b240 <__muldf3>
  104950:	b8 20 18 00 	mv r3,r1
  104954:	b8 40 20 00 	mv r4,r2
  104958:	b9 60 08 00 	mv r1,r11
  10495c:	b9 80 10 00 	mv r2,r12
  104960:	f8 00 1b e2 	calli 10b8e8 <__subdf3>
  104964:	35 e5 00 30 	addi r5,r15,48
  104968:	32 65 00 00 	sb (r19+0),r5
  10496c:	36 73 00 01 	addi r19,r19,1
  104970:	ca 78 28 00 	sub r5,r19,r24
  104974:	b8 20 50 00 	mv r10,r1
  104978:	78 03 40 24 	mvhi r3,0x4024
  10497c:	34 04 00 00 	mvi r4,0
  104980:	44 bb 01 bf 	be r5,fp,10507c <_dtoa_r+0xe30>
  104984:	f8 00 1a 2f 	calli 10b240 <__muldf3>
  104988:	34 03 00 00 	mvi r3,0
  10498c:	34 04 00 00 	mvi r4,0
  104990:	b8 20 58 00 	mv r11,r1
  104994:	b8 40 60 00 	mv r12,r2
  104998:	f8 00 19 5e 	calli 10af10 <__eqdf2>
  10499c:	5c 20 ff e2 	bne r1,r0,104924 <_dtoa_r+0x6d8>
  1049a0:	e3 ff ff d5 	bi 1048f4 <_dtoa_r+0x6a8>
  1049a4:	ba c0 08 00 	mv r1,r22
  1049a8:	f8 00 1e 54 	calli 10c2f8 <__floatsidf>
  1049ac:	b9 e0 18 00 	mv r3,r15
  1049b0:	b9 c0 20 00 	mv r4,r14
  1049b4:	f8 00 19 57 	calli 10af10 <__eqdf2>
  1049b8:	7c 27 00 00 	cmpnei r7,r1,0
  1049bc:	ca c7 b0 00 	sub r22,r22,r7
  1049c0:	e3 ff fe c8 	bi 1044e0 <_dtoa_r+0x294>
  1049c4:	2b 82 00 68 	lw r2,(sp+104)
  1049c8:	2b 8f 00 60 	lw r15,(sp+96)
  1049cc:	2b 8d 00 58 	lw r13,(sp+88)
  1049d0:	34 0e 00 00 	mvi r14,0
  1049d4:	44 47 00 15 	be r2,r7,104a28 <_dtoa_r+0x7dc>
  1049d8:	34 07 00 01 	mvi r7,1
  1049dc:	4a e7 01 f6 	bg r23,r7,1051b4 <_dtoa_r+0xf68>
  1049e0:	2b 83 00 70 	lw r3,(sp+112)
  1049e4:	35 29 04 33 	addi r9,r9,1075
  1049e8:	5c 60 00 06 	bne r3,r0,104a00 <_dtoa_r+0x7b4>
  1049ec:	2b 89 00 80 	lw r9,(sp+128)
  1049f0:	2b 8f 00 60 	lw r15,(sp+96)
  1049f4:	2b 8d 00 58 	lw r13,(sp+88)
  1049f8:	34 01 00 36 	mvi r1,54
  1049fc:	c8 29 48 00 	sub r9,r1,r9
  104a00:	2b 83 00 58 	lw r3,(sp+88)
  104a04:	2b 84 00 54 	lw r4,(sp+84)
  104a08:	ba 80 08 00 	mv r1,r20
  104a0c:	b4 69 18 00 	add r3,r3,r9
  104a10:	b4 89 20 00 	add r4,r4,r9
  104a14:	34 02 00 01 	mvi r2,1
  104a18:	5b 83 00 58 	sw (sp+88),r3
  104a1c:	5b 84 00 54 	sw (sp+84),r4
  104a20:	f8 00 09 85 	calli 107034 <__i2b>
  104a24:	b8 20 70 00 	mv r14,r1
  104a28:	2b 85 00 54 	lw r5,(sp+84)
  104a2c:	69 a7 00 00 	cmpgi r7,r13,0
  104a30:	68 a9 00 00 	cmpgi r9,r5,0
  104a34:	a1 27 38 00 	and r7,r9,r7
  104a38:	44 e0 00 0b 	be r7,r0,104a64 <_dtoa_r+0x818>
  104a3c:	b8 a0 38 00 	mv r7,r5
  104a40:	4d a5 00 02 	bge r13,r5,104a48 <_dtoa_r+0x7fc>
  104a44:	b9 a0 38 00 	mv r7,r13
  104a48:	2b 81 00 58 	lw r1,(sp+88)
  104a4c:	2b 82 00 54 	lw r2,(sp+84)
  104a50:	c9 a7 68 00 	sub r13,r13,r7
  104a54:	c8 27 08 00 	sub r1,r1,r7
  104a58:	c8 47 10 00 	sub r2,r2,r7
  104a5c:	5b 81 00 58 	sw (sp+88),r1
  104a60:	5b 82 00 54 	sw (sp+84),r2
  104a64:	2b 83 00 60 	lw r3,(sp+96)
  104a68:	4c 03 00 1a 	bge r0,r3,104ad0 <_dtoa_r+0x884>
  104a6c:	2b 84 00 68 	lw r4,(sp+104)
  104a70:	44 80 00 ed 	be r4,r0,104e24 <_dtoa_r+0xbd8>
  104a74:	4c 0f 00 0f 	bge r0,r15,104ab0 <_dtoa_r+0x864>
  104a78:	b9 c0 10 00 	mv r2,r14
  104a7c:	b9 e0 18 00 	mv r3,r15
  104a80:	ba 80 08 00 	mv r1,r20
  104a84:	f8 00 09 f8 	calli 107264 <__pow5mult>
  104a88:	b8 20 70 00 	mv r14,r1
  104a8c:	bb 20 18 00 	mv r3,r25
  104a90:	b9 c0 10 00 	mv r2,r14
  104a94:	ba 80 08 00 	mv r1,r20
  104a98:	f8 00 09 74 	calli 107068 <__multiply>
  104a9c:	b8 20 80 00 	mv r16,r1
  104aa0:	bb 20 10 00 	mv r2,r25
  104aa4:	ba 80 08 00 	mv r1,r20
  104aa8:	f8 00 08 8a 	calli 106cd0 <_Bfree>
  104aac:	ba 00 c8 00 	mv r25,r16
  104ab0:	2b 85 00 60 	lw r5,(sp+96)
  104ab4:	c8 af 78 00 	sub r15,r5,r15
  104ab8:	45 e0 00 06 	be r15,r0,104ad0 <_dtoa_r+0x884>
  104abc:	bb 20 10 00 	mv r2,r25
  104ac0:	ba 80 08 00 	mv r1,r20
  104ac4:	b9 e0 18 00 	mv r3,r15
  104ac8:	f8 00 09 e7 	calli 107264 <__pow5mult>
  104acc:	b8 20 c8 00 	mv r25,r1
  104ad0:	ba 80 08 00 	mv r1,r20
  104ad4:	34 02 00 01 	mvi r2,1
  104ad8:	f8 00 09 57 	calli 107034 <__i2b>
  104adc:	b8 20 60 00 	mv r12,r1
  104ae0:	2b 81 00 64 	lw r1,(sp+100)
  104ae4:	4c 01 00 06 	bge r0,r1,104afc <_dtoa_r+0x8b0>
  104ae8:	2b 83 00 64 	lw r3,(sp+100)
  104aec:	b9 80 10 00 	mv r2,r12
  104af0:	ba 80 08 00 	mv r1,r20
  104af4:	f8 00 09 dc 	calli 107264 <__pow5mult>
  104af8:	b8 20 60 00 	mv r12,r1
  104afc:	34 07 00 01 	mvi r7,1
  104b00:	34 10 00 00 	mvi r16,0
  104b04:	4a e7 00 12 	bg r23,r7,104b4c <_dtoa_r+0x900>
  104b08:	5e a0 00 11 	bne r21,r0,104b4c <_dtoa_r+0x900>
  104b0c:	78 02 00 10 	mvhi r2,0x10
  104b10:	38 42 c7 74 	ori r2,r2,0xc774
  104b14:	28 41 00 00 	lw r1,(r2+0)
  104b18:	ba a0 80 00 	mv r16,r21
  104b1c:	a1 61 08 00 	and r1,r11,r1
  104b20:	5c 35 00 0b 	bne r1,r21,104b4c <_dtoa_r+0x900>
  104b24:	78 01 7f f0 	mvhi r1,0x7ff0
  104b28:	a1 61 58 00 	and r11,r11,r1
  104b2c:	45 60 00 08 	be r11,r0,104b4c <_dtoa_r+0x900>
  104b30:	2b 83 00 58 	lw r3,(sp+88)
  104b34:	2b 84 00 54 	lw r4,(sp+84)
  104b38:	34 10 00 01 	mvi r16,1
  104b3c:	34 63 00 01 	addi r3,r3,1
  104b40:	34 84 00 01 	addi r4,r4,1
  104b44:	5b 83 00 58 	sw (sp+88),r3
  104b48:	5b 84 00 54 	sw (sp+84),r4
  104b4c:	2b 85 00 64 	lw r5,(sp+100)
  104b50:	34 09 00 01 	mvi r9,1
  104b54:	5c a0 00 ab 	bne r5,r0,104e00 <_dtoa_r+0xbb4>
  104b58:	2b 81 00 54 	lw r1,(sp+84)
  104b5c:	34 07 00 1c 	mvi r7,28
  104b60:	b5 21 48 00 	add r9,r9,r1
  104b64:	21 29 00 1f 	andi r9,r9,0x1f
  104b68:	45 20 00 58 	be r9,r0,104cc8 <_dtoa_r+0xa7c>
  104b6c:	34 07 00 20 	mvi r7,32
  104b70:	c8 e9 38 00 	sub r7,r7,r9
  104b74:	34 09 00 04 	mvi r9,4
  104b78:	4d 27 00 52 	bge r9,r7,104cc0 <_dtoa_r+0xa74>
  104b7c:	2b 82 00 58 	lw r2,(sp+88)
  104b80:	34 e7 ff fc 	addi r7,r7,-4
  104b84:	b4 27 08 00 	add r1,r1,r7
  104b88:	b4 47 10 00 	add r2,r2,r7
  104b8c:	5b 82 00 58 	sw (sp+88),r2
  104b90:	b5 a7 68 00 	add r13,r13,r7
  104b94:	5b 81 00 54 	sw (sp+84),r1
  104b98:	2b 85 00 58 	lw r5,(sp+88)
  104b9c:	4c 05 00 06 	bge r0,r5,104bb4 <_dtoa_r+0x968>
  104ba0:	bb 20 10 00 	mv r2,r25
  104ba4:	ba 80 08 00 	mv r1,r20
  104ba8:	b8 a0 18 00 	mv r3,r5
  104bac:	f8 00 09 f7 	calli 107388 <__lshift>
  104bb0:	b8 20 c8 00 	mv r25,r1
  104bb4:	2b 81 00 54 	lw r1,(sp+84)
  104bb8:	4c 01 00 06 	bge r0,r1,104bd0 <_dtoa_r+0x984>
  104bbc:	2b 83 00 54 	lw r3,(sp+84)
  104bc0:	b9 80 10 00 	mv r2,r12
  104bc4:	ba 80 08 00 	mv r1,r20
  104bc8:	f8 00 09 f0 	calli 107388 <__lshift>
  104bcc:	b8 20 60 00 	mv r12,r1
  104bd0:	2b 82 00 5c 	lw r2,(sp+92)
  104bd4:	5c 40 01 dc 	bne r2,r0,105344 <_dtoa_r+0x10f8>
  104bd8:	ec 1b 48 00 	cmpge r9,r0,fp
  104bdc:	6a e7 00 02 	cmpgi r7,r23,2
  104be0:	a1 27 38 00 	and r7,r9,r7
  104be4:	44 e0 00 b5 	be r7,r0,104eb8 <_dtoa_r+0xc6c>
  104be8:	5f 60 00 0b 	bne fp,r0,104c14 <_dtoa_r+0x9c8>
  104bec:	b9 80 10 00 	mv r2,r12
  104bf0:	ba 80 08 00 	mv r1,r20
  104bf4:	34 03 00 05 	mvi r3,5
  104bf8:	34 04 00 00 	mvi r4,0
  104bfc:	f8 00 08 3e 	calli 106cf4 <__multadd>
  104c00:	b8 20 60 00 	mv r12,r1
  104c04:	b9 80 10 00 	mv r2,r12
  104c08:	bb 20 08 00 	mv r1,r25
  104c0c:	f8 00 0a 2e 	calli 1074c4 <__mcmp>
  104c10:	48 3b ff 29 	bg r1,fp,1048b4 <_dtoa_r+0x668>
  104c14:	2b 84 00 50 	lw r4,(sp+80)
  104c18:	bb 00 98 00 	mv r19,r24
  104c1c:	34 0b 00 00 	mvi r11,0
  104c20:	a4 80 b0 00 	not r22,r4
  104c24:	e3 ff ff 29 	bi 1048c8 <_dtoa_r+0x67c>
  104c28:	2b 84 00 58 	lw r4,(sp+88)
  104c2c:	c8 16 28 00 	sub r5,r0,r22
  104c30:	5b 85 00 60 	sw (sp+96),r5
  104c34:	c8 96 20 00 	sub r4,r4,r22
  104c38:	5b 84 00 58 	sw (sp+88),r4
  104c3c:	5b 80 00 64 	sw (sp+100),r0
  104c40:	e3 ff fe 45 	bi 104554 <_dtoa_r+0x308>
  104c44:	36 d6 ff ff 	addi r22,r22,-1
  104c48:	5b 80 00 5c 	sw (sp+92),r0
  104c4c:	e3 ff fe 34 	bi 10451c <_dtoa_r+0x2d0>
  104c50:	78 07 00 10 	mvhi r7,0x10
  104c54:	38 e7 cb d0 	ori r7,r7,0xcbd0
  104c58:	28 e3 00 20 	lw r3,(r7+32)
  104c5c:	28 e4 00 24 	lw r4,(r7+36)
  104c60:	b9 60 08 00 	mv r1,r11
  104c64:	ba a0 10 00 	mv r2,r21
  104c68:	fb ff f1 e2 	calli 1013f0 <__divdf3>
  104c6c:	b8 40 98 00 	mv r19,r2
  104c70:	b8 20 58 00 	mv r11,r1
  104c74:	21 ce 00 0f 	andi r14,r14,0xf
  104c78:	34 12 00 03 	mvi r18,3
  104c7c:	e3 ff fe 8e 	bi 1046b4 <_dtoa_r+0x468>
  104c80:	34 07 00 04 	mvi r7,4
  104c84:	46 e7 00 6e 	be r23,r7,104e3c <_dtoa_r+0xbf0>
  104c88:	34 07 00 05 	mvi r7,5
  104c8c:	5e e7 fe 3e 	bne r23,r7,104584 <_dtoa_r+0x338>
  104c90:	34 01 00 01 	mvi r1,1
  104c94:	5b 81 00 68 	sw (sp+104),r1
  104c98:	2b 85 00 50 	lw r5,(sp+80)
  104c9c:	b6 c5 28 00 	add r5,r22,r5
  104ca0:	34 ad 00 01 	addi r13,r5,1
  104ca4:	5b 85 00 6c 	sw (sp+108),r5
  104ca8:	b9 a0 d8 00 	mv fp,r13
  104cac:	49 a0 00 6b 	bg r13,r0,104e58 <_dtoa_r+0xc0c>
  104cb0:	34 07 00 0e 	mvi r7,14
  104cb4:	f0 ed 38 00 	cmpgeu r7,r7,r13
  104cb8:	a1 c7 68 00 	and r13,r14,r7
  104cbc:	e3 ff fe 67 	bi 104658 <_dtoa_r+0x40c>
  104cc0:	44 e9 ff b6 	be r7,r9,104b98 <_dtoa_r+0x94c>
  104cc4:	34 e7 00 1c 	addi r7,r7,28
  104cc8:	2b 83 00 58 	lw r3,(sp+88)
  104ccc:	2b 84 00 54 	lw r4,(sp+84)
  104cd0:	b5 a7 68 00 	add r13,r13,r7
  104cd4:	b4 67 18 00 	add r3,r3,r7
  104cd8:	b4 87 20 00 	add r4,r4,r7
  104cdc:	5b 83 00 58 	sw (sp+88),r3
  104ce0:	5b 84 00 54 	sw (sp+84),r4
  104ce4:	e3 ff ff ad 	bi 104b98 <_dtoa_r+0x94c>
  104ce8:	5b 96 00 78 	sw (sp+120),r22
  104cec:	bb 60 60 00 	mv r12,fp
  104cf0:	2b 84 00 68 	lw r4,(sp+104)
  104cf4:	44 80 01 3a 	be r4,r0,1051dc <_dtoa_r+0xf90>
  104cf8:	35 8a ff ff 	addi r10,r12,-1
  104cfc:	3d 4a 00 03 	sli r10,r10,3
  104d00:	78 09 00 10 	mvhi r9,0x10
  104d04:	39 29 cb 08 	ori r9,r9,0xcb08
  104d08:	b5 2a 48 00 	add r9,r9,r10
  104d0c:	29 23 00 00 	lw r3,(r9+0)
  104d10:	29 24 00 04 	lw r4,(r9+4)
  104d14:	78 01 3f e0 	mvhi r1,0x3fe0
  104d18:	34 02 00 00 	mvi r2,0
  104d1c:	fb ff f1 b5 	calli 1013f0 <__divdf3>
  104d20:	ba 40 18 00 	mv r3,r18
  104d24:	ba 20 20 00 	mv r4,r17
  104d28:	f8 00 1a f0 	calli 10b8e8 <__subdf3>
  104d2c:	b8 40 88 00 	mv r17,r2
  104d30:	b8 20 90 00 	mv r18,r1
  104d34:	bb 00 98 00 	mv r19,r24
  104d38:	ba 00 10 00 	mv r2,r16
  104d3c:	b9 60 08 00 	mv r1,r11
  104d40:	f8 00 1d 4c 	calli 10c270 <__fixdfsi>
  104d44:	b8 20 68 00 	mv r13,r1
  104d48:	f8 00 1d 6c 	calli 10c2f8 <__floatsidf>
  104d4c:	b8 20 18 00 	mv r3,r1
  104d50:	b8 40 20 00 	mv r4,r2
  104d54:	b9 60 08 00 	mv r1,r11
  104d58:	ba 00 10 00 	mv r2,r16
  104d5c:	f8 00 1a e3 	calli 10b8e8 <__subdf3>
  104d60:	35 a5 00 30 	addi r5,r13,48
  104d64:	32 65 00 00 	sb (r19+0),r5
  104d68:	ba 40 18 00 	mv r3,r18
  104d6c:	ba 20 20 00 	mv r4,r17
  104d70:	b8 40 58 00 	mv r11,r2
  104d74:	b8 20 70 00 	mv r14,r1
  104d78:	f8 00 18 dd 	calli 10b0ec <__ledf2>
  104d7c:	b8 20 28 00 	mv r5,r1
  104d80:	b9 c0 18 00 	mv r3,r14
  104d84:	b9 60 20 00 	mv r4,r11
  104d88:	78 01 3f f0 	mvhi r1,0x3ff0
  104d8c:	34 02 00 00 	mvi r2,0
  104d90:	36 73 00 01 	addi r19,r19,1
  104d94:	48 05 01 66 	bg r0,r5,10532c <_dtoa_r+0x10e0>
  104d98:	f8 00 1a d4 	calli 10b8e8 <__subdf3>
  104d9c:	b8 40 28 00 	mv r5,r2
  104da0:	b8 20 30 00 	mv r6,r1
  104da4:	b8 a0 20 00 	mv r4,r5
  104da8:	ba 20 10 00 	mv r2,r17
  104dac:	b8 c0 18 00 	mv r3,r6
  104db0:	ba 40 08 00 	mv r1,r18
  104db4:	f8 00 18 7d 	calli 10afa8 <__gedf2>
  104db8:	78 03 40 24 	mvhi r3,0x4024
  104dbc:	34 04 00 00 	mvi r4,0
  104dc0:	ba 20 10 00 	mv r2,r17
  104dc4:	ca 78 28 00 	sub r5,r19,r24
  104dc8:	48 20 00 c2 	bg r1,r0,1050d0 <_dtoa_r+0xe84>
  104dcc:	ba 40 08 00 	mv r1,r18
  104dd0:	4c ac fe 99 	bge r5,r12,104834 <_dtoa_r+0x5e8>
  104dd4:	f8 00 19 1b 	calli 10b240 <__muldf3>
  104dd8:	b8 20 90 00 	mv r18,r1
  104ddc:	b8 40 88 00 	mv r17,r2
  104de0:	b9 c0 08 00 	mv r1,r14
  104de4:	b9 60 10 00 	mv r2,r11
  104de8:	78 03 40 24 	mvhi r3,0x4024
  104dec:	34 04 00 00 	mvi r4,0
  104df0:	f8 00 19 14 	calli 10b240 <__muldf3>
  104df4:	b8 20 58 00 	mv r11,r1
  104df8:	b8 40 80 00 	mv r16,r2
  104dfc:	e3 ff ff cf 	bi 104d38 <_dtoa_r+0xaec>
  104e00:	29 87 00 10 	lw r7,(r12+16)
  104e04:	34 e7 00 03 	addi r7,r7,3
  104e08:	3c e7 00 02 	sli r7,r7,2
  104e0c:	b5 87 38 00 	add r7,r12,r7
  104e10:	28 e1 00 04 	lw r1,(r7+4)
  104e14:	f8 00 08 40 	calli 106f14 <__hi0bits>
  104e18:	34 09 00 20 	mvi r9,32
  104e1c:	c9 21 48 00 	sub r9,r9,r1
  104e20:	e3 ff ff 4e 	bi 104b58 <_dtoa_r+0x90c>
  104e24:	2b 83 00 60 	lw r3,(sp+96)
  104e28:	bb 20 10 00 	mv r2,r25
  104e2c:	ba 80 08 00 	mv r1,r20
  104e30:	f8 00 09 0d 	calli 107264 <__pow5mult>
  104e34:	b8 20 c8 00 	mv r25,r1
  104e38:	e3 ff ff 26 	bi 104ad0 <_dtoa_r+0x884>
  104e3c:	34 02 00 01 	mvi r2,1
  104e40:	5b 82 00 68 	sw (sp+104),r2
  104e44:	2b 83 00 50 	lw r3,(sp+80)
  104e48:	4c 03 01 54 	bge r0,r3,105398 <_dtoa_r+0x114c>
  104e4c:	b8 60 68 00 	mv r13,r3
  104e50:	5b 83 00 6c 	sw (sp+108),r3
  104e54:	b8 60 d8 00 	mv fp,r3
  104e58:	5a 80 00 44 	sw (r20+68),r0
  104e5c:	34 09 00 17 	mvi r9,23
  104e60:	34 0a 00 01 	mvi r10,1
  104e64:	34 07 00 04 	mvi r7,4
  104e68:	55 a9 00 06 	bgu r13,r9,104e80 <_dtoa_r+0xc34>
  104e6c:	34 0d 00 0e 	mvi r13,14
  104e70:	f1 bb 68 00 	cmpgeu r13,r13,fp
  104e74:	34 09 00 00 	mvi r9,0
  104e78:	a1 ae 68 00 	and r13,r13,r14
  104e7c:	e3 ff fd f9 	bi 104660 <_dtoa_r+0x414>
  104e80:	3c e7 00 01 	sli r7,r7,1
  104e84:	b9 40 48 00 	mv r9,r10
  104e88:	34 e1 00 14 	addi r1,r7,20
  104e8c:	35 4a 00 01 	addi r10,r10,1
  104e90:	51 a1 ff fc 	bgeu r13,r1,104e80 <_dtoa_r+0xc34>
  104e94:	34 07 00 0e 	mvi r7,14
  104e98:	f0 fb 38 00 	cmpgeu r7,r7,fp
  104e9c:	5a 89 00 44 	sw (r20+68),r9
  104ea0:	a0 ee 68 00 	and r13,r7,r14
  104ea4:	e3 ff fd ef 	bi 104660 <_dtoa_r+0x414>
  104ea8:	ba 80 08 00 	mv r1,r20
  104eac:	b9 60 10 00 	mv r2,r11
  104eb0:	f8 00 07 88 	calli 106cd0 <_Bfree>
  104eb4:	e3 ff fe 8d 	bi 1048e8 <_dtoa_r+0x69c>
  104eb8:	2b 85 00 68 	lw r5,(sp+104)
  104ebc:	bb 00 98 00 	mv r19,r24
  104ec0:	44 a7 00 2e 	be r5,r7,104f78 <_dtoa_r+0xd2c>
  104ec4:	4c 0d 00 06 	bge r0,r13,104edc <_dtoa_r+0xc90>
  104ec8:	b9 c0 10 00 	mv r2,r14
  104ecc:	ba 80 08 00 	mv r1,r20
  104ed0:	b9 a0 18 00 	mv r3,r13
  104ed4:	f8 00 09 2d 	calli 107388 <__lshift>
  104ed8:	b8 20 70 00 	mv r14,r1
  104edc:	b9 c0 78 00 	mv r15,r14
  104ee0:	5e 00 01 66 	bne r16,r0,105478 <_dtoa_r+0x122c>
  104ee4:	bb 00 98 00 	mv r19,r24
  104ee8:	b9 c0 58 00 	mv r11,r14
  104eec:	22 b2 00 01 	andi r18,r21,0x1
  104ef0:	b9 80 10 00 	mv r2,r12
  104ef4:	bb 20 08 00 	mv r1,r25
  104ef8:	fb ff fc 5a 	calli 104060 <quorem>
  104efc:	b9 60 10 00 	mv r2,r11
  104f00:	34 2d 00 30 	addi r13,r1,48
  104f04:	bb 20 08 00 	mv r1,r25
  104f08:	f8 00 09 6f 	calli 1074c4 <__mcmp>
  104f0c:	b8 20 88 00 	mv r17,r1
  104f10:	b9 80 10 00 	mv r2,r12
  104f14:	ba 80 08 00 	mv r1,r20
  104f18:	b9 e0 18 00 	mv r3,r15
  104f1c:	f8 00 09 81 	calli 107520 <__mdiff>
  104f20:	b8 20 70 00 	mv r14,r1
  104f24:	28 21 00 0c 	lw r1,(r1+12)
  104f28:	34 10 00 01 	mvi r16,1
  104f2c:	44 20 00 4f 	be r1,r0,105068 <_dtoa_r+0xe1c>
  104f30:	ba 80 08 00 	mv r1,r20
  104f34:	b9 c0 10 00 	mv r2,r14
  104f38:	f8 00 07 66 	calli 106cd0 <_Bfree>
  104f3c:	ba 17 18 00 	or r3,r16,r23
  104f40:	5c 60 00 02 	bne r3,r0,104f48 <_dtoa_r+0xcfc>
  104f44:	46 43 00 1c 	be r18,r3,104fb4 <_dtoa_r+0xd68>
  104f48:	48 11 00 23 	bg r0,r17,104fd4 <_dtoa_r+0xd88>
  104f4c:	ba 37 88 00 	or r17,r17,r23
  104f50:	5e 20 00 02 	bne r17,r0,104f58 <_dtoa_r+0xd0c>
  104f54:	46 51 00 20 	be r18,r17,104fd4 <_dtoa_r+0xd88>
  104f58:	4c 10 00 2c 	bge r0,r16,105008 <_dtoa_r+0xdbc>
  104f5c:	34 01 00 39 	mvi r1,57
  104f60:	45 a1 01 58 	be r13,r1,1054c0 <_dtoa_r+0x1274>
  104f64:	35 ad 00 01 	addi r13,r13,1
  104f68:	32 6d 00 00 	sb (r19+0),r13
  104f6c:	b9 e0 70 00 	mv r14,r15
  104f70:	36 73 00 01 	addi r19,r19,1
  104f74:	e3 ff fe 55 	bi 1048c8 <_dtoa_r+0x67c>
  104f78:	b9 80 10 00 	mv r2,r12
  104f7c:	bb 20 08 00 	mv r1,r25
  104f80:	fb ff fc 38 	calli 104060 <quorem>
  104f84:	34 2d 00 30 	addi r13,r1,48
  104f88:	32 6d 00 00 	sb (r19+0),r13
  104f8c:	36 73 00 01 	addi r19,r19,1
  104f90:	ca 78 28 00 	sub r5,r19,r24
  104f94:	ba 80 08 00 	mv r1,r20
  104f98:	bb 20 10 00 	mv r2,r25
  104f9c:	34 03 00 0a 	mvi r3,10
  104fa0:	34 04 00 00 	mvi r4,0
  104fa4:	4c bb 01 03 	bge r5,fp,1053b0 <_dtoa_r+0x1164>
  104fa8:	f8 00 07 53 	calli 106cf4 <__multadd>
  104fac:	b8 20 c8 00 	mv r25,r1
  104fb0:	e3 ff ff f2 	bi 104f78 <_dtoa_r+0xd2c>
  104fb4:	34 01 00 39 	mvi r1,57
  104fb8:	45 a1 01 42 	be r13,r1,1054c0 <_dtoa_r+0x1274>
  104fbc:	ea 32 88 00 	cmpg r17,r17,r18
  104fc0:	b9 e0 70 00 	mv r14,r15
  104fc4:	b5 b1 68 00 	add r13,r13,r17
  104fc8:	32 6d 00 00 	sb (r19+0),r13
  104fcc:	36 73 00 01 	addi r19,r19,1
  104fd0:	e3 ff fe 3e 	bi 1048c8 <_dtoa_r+0x67c>
  104fd4:	4c 10 ff e5 	bge r0,r16,104f68 <_dtoa_r+0xd1c>
  104fd8:	bb 20 10 00 	mv r2,r25
  104fdc:	34 03 00 01 	mvi r3,1
  104fe0:	ba 80 08 00 	mv r1,r20
  104fe4:	f8 00 08 e9 	calli 107388 <__lshift>
  104fe8:	b9 80 10 00 	mv r2,r12
  104fec:	b8 20 c8 00 	mv r25,r1
  104ff0:	f8 00 09 35 	calli 1074c4 <__mcmp>
  104ff4:	48 20 ff da 	bg r1,r0,104f5c <_dtoa_r+0xd10>
  104ff8:	5c 20 ff dc 	bne r1,r0,104f68 <_dtoa_r+0xd1c>
  104ffc:	21 a2 00 01 	andi r2,r13,0x1
  105000:	44 41 ff da 	be r2,r1,104f68 <_dtoa_r+0xd1c>
  105004:	e3 ff ff d6 	bi 104f5c <_dtoa_r+0xd10>
  105008:	32 6d 00 00 	sb (r19+0),r13
  10500c:	36 73 00 01 	addi r19,r19,1
  105010:	ca 78 08 00 	sub r1,r19,r24
  105014:	44 3b 01 29 	be r1,fp,1054b8 <_dtoa_r+0x126c>
  105018:	bb 20 10 00 	mv r2,r25
  10501c:	ba 80 08 00 	mv r1,r20
  105020:	34 03 00 0a 	mvi r3,10
  105024:	34 04 00 00 	mvi r4,0
  105028:	f8 00 07 33 	calli 106cf4 <__multadd>
  10502c:	b8 20 c8 00 	mv r25,r1
  105030:	45 6f 00 36 	be r11,r15,105108 <_dtoa_r+0xebc>
  105034:	b9 60 10 00 	mv r2,r11
  105038:	34 03 00 0a 	mvi r3,10
  10503c:	34 04 00 00 	mvi r4,0
  105040:	ba 80 08 00 	mv r1,r20
  105044:	f8 00 07 2c 	calli 106cf4 <__multadd>
  105048:	b9 e0 10 00 	mv r2,r15
  10504c:	b8 20 58 00 	mv r11,r1
  105050:	34 03 00 0a 	mvi r3,10
  105054:	ba 80 08 00 	mv r1,r20
  105058:	34 04 00 00 	mvi r4,0
  10505c:	f8 00 07 26 	calli 106cf4 <__multadd>
  105060:	b8 20 78 00 	mv r15,r1
  105064:	e3 ff ff a3 	bi 104ef0 <_dtoa_r+0xca4>
  105068:	bb 20 08 00 	mv r1,r25
  10506c:	b9 c0 10 00 	mv r2,r14
  105070:	f8 00 09 15 	calli 1074c4 <__mcmp>
  105074:	b8 20 80 00 	mv r16,r1
  105078:	e3 ff ff ae 	bi 104f30 <_dtoa_r+0xce4>
  10507c:	b9 40 18 00 	mv r3,r10
  105080:	b8 40 20 00 	mv r4,r2
  105084:	f8 00 15 4d 	calli 10a5b8 <__adddf3>
  105088:	b8 20 60 00 	mv r12,r1
  10508c:	b8 40 58 00 	mv r11,r2
  105090:	b9 c0 08 00 	mv r1,r14
  105094:	b9 a0 10 00 	mv r2,r13
  105098:	b9 80 18 00 	mv r3,r12
  10509c:	b9 60 20 00 	mv r4,r11
  1050a0:	f8 00 18 13 	calli 10b0ec <__ledf2>
  1050a4:	5b 96 00 78 	sw (sp+120),r22
  1050a8:	48 01 00 0a 	bg r0,r1,1050d0 <_dtoa_r+0xe84>
  1050ac:	b9 c0 08 00 	mv r1,r14
  1050b0:	b9 a0 10 00 	mv r2,r13
  1050b4:	b9 80 18 00 	mv r3,r12
  1050b8:	b9 60 20 00 	mv r4,r11
  1050bc:	f8 00 17 95 	calli 10af10 <__eqdf2>
  1050c0:	5c 20 fe 0d 	bne r1,r0,1048f4 <_dtoa_r+0x6a8>
  1050c4:	21 ef 00 01 	andi r15,r15,0x1
  1050c8:	5b 96 00 78 	sw (sp+120),r22
  1050cc:	45 e1 fe 0a 	be r15,r1,1048f4 <_dtoa_r+0x6a8>
  1050d0:	34 09 00 39 	mvi r9,57
  1050d4:	e0 00 00 02 	bi 1050dc <_dtoa_r+0xe90>
  1050d8:	b8 80 98 00 	mv r19,r4
  1050dc:	42 67 ff ff 	lbu r7,(r19+-1)
  1050e0:	36 64 ff ff 	addi r4,r19,-1
  1050e4:	5c e9 00 dd 	bne r7,r9,105458 <_dtoa_r+0x120c>
  1050e8:	5c 98 ff fc 	bne r4,r24,1050d8 <_dtoa_r+0xe8c>
  1050ec:	2b 81 00 78 	lw r1,(sp+120)
  1050f0:	34 07 00 30 	mvi r7,48
  1050f4:	33 07 00 00 	sb (r24+0),r7
  1050f8:	34 07 00 31 	mvi r7,49
  1050fc:	34 36 00 01 	addi r22,r1,1
  105100:	30 87 00 00 	sb (r4+0),r7
  105104:	e3 ff fd fc 	bi 1048f4 <_dtoa_r+0x6a8>
  105108:	b9 60 10 00 	mv r2,r11
  10510c:	ba 80 08 00 	mv r1,r20
  105110:	34 03 00 0a 	mvi r3,10
  105114:	34 04 00 00 	mvi r4,0
  105118:	f8 00 06 f7 	calli 106cf4 <__multadd>
  10511c:	b8 20 58 00 	mv r11,r1
  105120:	b8 20 78 00 	mv r15,r1
  105124:	e3 ff ff 73 	bi 104ef0 <_dtoa_r+0xca4>
  105128:	c8 16 38 00 	sub r7,r0,r22
  10512c:	ba a0 80 00 	mv r16,r21
  105130:	34 12 00 02 	mvi r18,2
  105134:	44 e0 fd 77 	be r7,r0,104710 <_dtoa_r+0x4c4>
  105138:	20 e4 00 0f 	andi r4,r7,0xf
  10513c:	3c 84 00 03 	sli r4,r4,3
  105140:	78 09 00 10 	mvhi r9,0x10
  105144:	39 29 cb 08 	ori r9,r9,0xcb08
  105148:	b5 24 48 00 	add r9,r9,r4
  10514c:	29 21 00 00 	lw r1,(r9+0)
  105150:	29 22 00 04 	lw r2,(r9+4)
  105154:	b9 60 18 00 	mv r3,r11
  105158:	ba a0 20 00 	mv r4,r21
  10515c:	14 ed 00 04 	sri r13,r7,4
  105160:	f8 00 18 38 	calli 10b240 <__muldf3>
  105164:	b8 40 80 00 	mv r16,r2
  105168:	b8 20 58 00 	mv r11,r1
  10516c:	45 a0 fd 69 	be r13,r0,104710 <_dtoa_r+0x4c4>
  105170:	78 0e 00 10 	mvhi r14,0x10
  105174:	39 ce cb d0 	ori r14,r14,0xcbd0
  105178:	b9 60 08 00 	mv r1,r11
  10517c:	21 a5 00 01 	andi r5,r13,0x1
  105180:	b8 20 18 00 	mv r3,r1
  105184:	15 ad 00 01 	sri r13,r13,1
  105188:	b8 40 20 00 	mv r4,r2
  10518c:	44 a0 00 05 	be r5,r0,1051a0 <_dtoa_r+0xf54>
  105190:	29 c1 00 00 	lw r1,(r14+0)
  105194:	29 c2 00 04 	lw r2,(r14+4)
  105198:	36 52 00 01 	addi r18,r18,1
  10519c:	f8 00 18 29 	calli 10b240 <__muldf3>
  1051a0:	35 ce 00 08 	addi r14,r14,8
  1051a4:	5d a0 ff f6 	bne r13,r0,10517c <_dtoa_r+0xf30>
  1051a8:	b8 20 58 00 	mv r11,r1
  1051ac:	b8 40 80 00 	mv r16,r2
  1051b0:	e3 ff fd 58 	bi 104710 <_dtoa_r+0x4c4>
  1051b4:	2b 84 00 60 	lw r4,(sp+96)
  1051b8:	37 6f ff ff 	addi r15,fp,-1
  1051bc:	49 e4 00 9b 	bg r15,r4,105428 <_dtoa_r+0x11dc>
  1051c0:	c8 8f 78 00 	sub r15,r4,r15
  1051c4:	2b 8d 00 58 	lw r13,(sp+88)
  1051c8:	bb 60 48 00 	mv r9,fp
  1051cc:	4f 60 fe 0d 	bge fp,r0,104a00 <_dtoa_r+0x7b4>
  1051d0:	c9 bb 68 00 	sub r13,r13,fp
  1051d4:	34 09 00 00 	mvi r9,0
  1051d8:	e3 ff fe 0a 	bi 104a00 <_dtoa_r+0x7b4>
  1051dc:	35 8f ff ff 	addi r15,r12,-1
  1051e0:	3d e1 00 03 	sli r1,r15,3
  1051e4:	78 09 00 10 	mvhi r9,0x10
  1051e8:	39 29 cb 08 	ori r9,r9,0xcb08
  1051ec:	b5 21 48 00 	add r9,r9,r1
  1051f0:	29 21 00 00 	lw r1,(r9+0)
  1051f4:	29 22 00 04 	lw r2,(r9+4)
  1051f8:	ba 40 18 00 	mv r3,r18
  1051fc:	ba 20 20 00 	mv r4,r17
  105200:	f8 00 18 10 	calli 10b240 <__muldf3>
  105204:	b8 20 88 00 	mv r17,r1
  105208:	b8 40 90 00 	mv r18,r2
  10520c:	b9 60 08 00 	mv r1,r11
  105210:	ba 00 10 00 	mv r2,r16
  105214:	f8 00 1c 17 	calli 10c270 <__fixdfsi>
  105218:	b8 20 68 00 	mv r13,r1
  10521c:	f8 00 1c 37 	calli 10c2f8 <__floatsidf>
  105220:	b8 20 28 00 	mv r5,r1
  105224:	b8 40 20 00 	mv r4,r2
  105228:	b9 60 08 00 	mv r1,r11
  10522c:	ba 00 10 00 	mv r2,r16
  105230:	b8 a0 18 00 	mv r3,r5
  105234:	f8 00 19 ad 	calli 10b8e8 <__subdf3>
  105238:	35 aa 00 30 	addi r10,r13,48
  10523c:	33 0a 00 00 	sb (r24+0),r10
  105240:	34 0a 00 01 	mvi r10,1
  105244:	b8 20 38 00 	mv r7,r1
  105248:	37 13 00 01 	addi r19,r24,1
  10524c:	45 8a 00 a2 	be r12,r10,1054d4 <_dtoa_r+0x1288>
  105250:	b7 0c 60 00 	add r12,r24,r12
  105254:	ba 60 80 00 	mv r16,r19
  105258:	b8 e0 08 00 	mv r1,r7
  10525c:	78 03 40 24 	mvhi r3,0x4024
  105260:	34 04 00 00 	mvi r4,0
  105264:	f8 00 17 f7 	calli 10b240 <__muldf3>
  105268:	b8 40 58 00 	mv r11,r2
  10526c:	b8 20 68 00 	mv r13,r1
  105270:	f8 00 1c 00 	calli 10c270 <__fixdfsi>
  105274:	b8 20 70 00 	mv r14,r1
  105278:	f8 00 1c 20 	calli 10c2f8 <__floatsidf>
  10527c:	b8 20 18 00 	mv r3,r1
  105280:	b8 40 20 00 	mv r4,r2
  105284:	b9 a0 08 00 	mv r1,r13
  105288:	b9 60 10 00 	mv r2,r11
  10528c:	f8 00 19 97 	calli 10b8e8 <__subdf3>
  105290:	35 c3 00 30 	addi r3,r14,48
  105294:	32 03 00 00 	sb (r16+0),r3
  105298:	36 10 00 01 	addi r16,r16,1
  10529c:	5e 0c ff f0 	bne r16,r12,10525c <_dtoa_r+0x1010>
  1052a0:	b8 20 50 00 	mv r10,r1
  1052a4:	b6 6f 98 00 	add r19,r19,r15
  1052a8:	b8 40 68 00 	mv r13,r2
  1052ac:	b9 40 60 00 	mv r12,r10
  1052b0:	78 03 3f e0 	mvhi r3,0x3fe0
  1052b4:	34 04 00 00 	mvi r4,0
  1052b8:	ba 20 08 00 	mv r1,r17
  1052bc:	ba 40 10 00 	mv r2,r18
  1052c0:	f8 00 14 be 	calli 10a5b8 <__adddf3>
  1052c4:	b8 20 40 00 	mv r8,r1
  1052c8:	b8 40 20 00 	mv r4,r2
  1052cc:	b9 80 08 00 	mv r1,r12
  1052d0:	b9 a0 10 00 	mv r2,r13
  1052d4:	b9 00 18 00 	mv r3,r8
  1052d8:	f8 00 17 34 	calli 10afa8 <__gedf2>
  1052dc:	48 20 ff 7d 	bg r1,r0,1050d0 <_dtoa_r+0xe84>
  1052e0:	ba 20 18 00 	mv r3,r17
  1052e4:	ba 40 20 00 	mv r4,r18
  1052e8:	78 01 3f e0 	mvhi r1,0x3fe0
  1052ec:	34 02 00 00 	mvi r2,0
  1052f0:	f8 00 19 7e 	calli 10b8e8 <__subdf3>
  1052f4:	b8 20 70 00 	mv r14,r1
  1052f8:	b8 40 58 00 	mv r11,r2
  1052fc:	b9 80 08 00 	mv r1,r12
  105300:	b9 a0 10 00 	mv r2,r13
  105304:	b9 c0 18 00 	mv r3,r14
  105308:	b9 60 20 00 	mv r4,r11
  10530c:	f8 00 17 78 	calli 10b0ec <__ledf2>
  105310:	34 09 00 30 	mvi r9,48
  105314:	48 01 00 03 	bg r0,r1,105320 <_dtoa_r+0x10d4>
  105318:	e3 ff fd 47 	bi 104834 <_dtoa_r+0x5e8>
  10531c:	b8 40 98 00 	mv r19,r2
  105320:	42 61 ff ff 	lbu r1,(r19+-1)
  105324:	36 62 ff ff 	addi r2,r19,-1
  105328:	44 29 ff fd 	be r1,r9,10531c <_dtoa_r+0x10d0>
  10532c:	2b 96 00 78 	lw r22,(sp+120)
  105330:	e3 ff fd 71 	bi 1048f4 <_dtoa_r+0x6a8>
  105334:	5b 80 00 68 	sw (sp+104),r0
  105338:	e3 ff fe 58 	bi 104c98 <_dtoa_r+0xa4c>
  10533c:	5b 80 00 68 	sw (sp+104),r0
  105340:	e3 ff fe c1 	bi 104e44 <_dtoa_r+0xbf8>
  105344:	bb 20 08 00 	mv r1,r25
  105348:	b9 80 10 00 	mv r2,r12
  10534c:	f8 00 08 5e 	calli 1074c4 <__mcmp>
  105350:	4c 20 fe 22 	bge r1,r0,104bd8 <_dtoa_r+0x98c>
  105354:	bb 20 10 00 	mv r2,r25
  105358:	34 03 00 0a 	mvi r3,10
  10535c:	ba 80 08 00 	mv r1,r20
  105360:	34 04 00 00 	mvi r4,0
  105364:	f8 00 06 64 	calli 106cf4 <__multadd>
  105368:	2b 83 00 68 	lw r3,(sp+104)
  10536c:	b8 20 c8 00 	mv r25,r1
  105370:	36 d6 ff ff 	addi r22,r22,-1
  105374:	2b 9b 00 6c 	lw fp,(sp+108)
  105378:	44 60 fe 18 	be r3,r0,104bd8 <_dtoa_r+0x98c>
  10537c:	b9 c0 10 00 	mv r2,r14
  105380:	ba 80 08 00 	mv r1,r20
  105384:	34 03 00 0a 	mvi r3,10
  105388:	34 04 00 00 	mvi r4,0
  10538c:	f8 00 06 5a 	calli 106cf4 <__multadd>
  105390:	b8 20 70 00 	mv r14,r1
  105394:	e3 ff fe 11 	bi 104bd8 <_dtoa_r+0x98c>
  105398:	34 04 00 01 	mvi r4,1
  10539c:	34 1b 00 01 	mvi fp,1
  1053a0:	b9 c0 68 00 	mv r13,r14
  1053a4:	5b 84 00 6c 	sw (sp+108),r4
  1053a8:	5b 9b 00 50 	sw (sp+80),fp
  1053ac:	e3 ff fc ab 	bi 104658 <_dtoa_r+0x40c>
  1053b0:	34 0b 00 00 	mvi r11,0
  1053b4:	bb 20 10 00 	mv r2,r25
  1053b8:	34 03 00 01 	mvi r3,1
  1053bc:	ba 80 08 00 	mv r1,r20
  1053c0:	f8 00 07 f2 	calli 107388 <__lshift>
  1053c4:	b9 80 10 00 	mv r2,r12
  1053c8:	b8 20 c8 00 	mv r25,r1
  1053cc:	f8 00 08 3e 	calli 1074c4 <__mcmp>
  1053d0:	48 20 00 04 	bg r1,r0,1053e0 <_dtoa_r+0x1194>
  1053d4:	5c 20 00 0e 	bne r1,r0,10540c <_dtoa_r+0x11c0>
  1053d8:	21 ad 00 01 	andi r13,r13,0x1
  1053dc:	45 a1 00 0c 	be r13,r1,10540c <_dtoa_r+0x11c0>
  1053e0:	34 09 00 39 	mvi r9,57
  1053e4:	e0 00 00 02 	bi 1053ec <_dtoa_r+0x11a0>
  1053e8:	b8 80 98 00 	mv r19,r4
  1053ec:	42 67 ff ff 	lbu r7,(r19+-1)
  1053f0:	36 64 ff ff 	addi r4,r19,-1
  1053f4:	5c e9 00 1e 	bne r7,r9,10546c <_dtoa_r+0x1220>
  1053f8:	5c 98 ff fc 	bne r4,r24,1053e8 <_dtoa_r+0x119c>
  1053fc:	34 04 00 31 	mvi r4,49
  105400:	36 d6 00 01 	addi r22,r22,1
  105404:	33 04 00 00 	sb (r24+0),r4
  105408:	e3 ff fd 30 	bi 1048c8 <_dtoa_r+0x67c>
  10540c:	34 09 00 30 	mvi r9,48
  105410:	e0 00 00 02 	bi 105418 <_dtoa_r+0x11cc>
  105414:	b8 40 98 00 	mv r19,r2
  105418:	42 61 ff ff 	lbu r1,(r19+-1)
  10541c:	36 62 ff ff 	addi r2,r19,-1
  105420:	44 29 ff fd 	be r1,r9,105414 <_dtoa_r+0x11c8>
  105424:	e3 ff fd 29 	bi 1048c8 <_dtoa_r+0x67c>
  105428:	2b 85 00 60 	lw r5,(sp+96)
  10542c:	2b 81 00 64 	lw r1,(sp+100)
  105430:	c9 e5 38 00 	sub r7,r15,r5
  105434:	b4 27 08 00 	add r1,r1,r7
  105438:	b4 a7 28 00 	add r5,r5,r7
  10543c:	5b 81 00 64 	sw (sp+100),r1
  105440:	5b 85 00 60 	sw (sp+96),r5
  105444:	34 0f 00 00 	mvi r15,0
  105448:	e3 ff ff 5f 	bi 1051c4 <_dtoa_r+0xf78>
  10544c:	34 0c 00 00 	mvi r12,0
  105450:	34 0e 00 00 	mvi r14,0
  105454:	e3 ff fd f0 	bi 104c14 <_dtoa_r+0x9c8>
  105458:	34 e7 00 01 	addi r7,r7,1
  10545c:	20 e7 00 ff 	andi r7,r7,0xff
  105460:	2b 96 00 78 	lw r22,(sp+120)
  105464:	30 87 00 00 	sb (r4+0),r7
  105468:	e3 ff fd 23 	bi 1048f4 <_dtoa_r+0x6a8>
  10546c:	34 e7 00 01 	addi r7,r7,1
  105470:	30 87 00 00 	sb (r4+0),r7
  105474:	e3 ff fd 15 	bi 1048c8 <_dtoa_r+0x67c>
  105478:	29 c2 00 04 	lw r2,(r14+4)
  10547c:	ba 80 08 00 	mv r1,r20
  105480:	f8 00 05 ea 	calli 106c28 <_Balloc>
  105484:	29 c3 00 10 	lw r3,(r14+16)
  105488:	b8 20 58 00 	mv r11,r1
  10548c:	35 c2 00 0c 	addi r2,r14,12
  105490:	34 63 00 02 	addi r3,r3,2
  105494:	3c 63 00 02 	sli r3,r3,2
  105498:	34 21 00 0c 	addi r1,r1,12
  10549c:	f8 00 05 a3 	calli 106b28 <memcpy>
  1054a0:	ba 80 08 00 	mv r1,r20
  1054a4:	b9 60 10 00 	mv r2,r11
  1054a8:	34 03 00 01 	mvi r3,1
  1054ac:	f8 00 07 b7 	calli 107388 <__lshift>
  1054b0:	b8 20 78 00 	mv r15,r1
  1054b4:	e3 ff fe 8c 	bi 104ee4 <_dtoa_r+0xc98>
  1054b8:	b9 e0 70 00 	mv r14,r15
  1054bc:	e3 ff ff be 	bi 1053b4 <_dtoa_r+0x1168>
  1054c0:	34 01 00 39 	mvi r1,57
  1054c4:	32 61 00 00 	sb (r19+0),r1
  1054c8:	b9 e0 70 00 	mv r14,r15
  1054cc:	36 73 00 01 	addi r19,r19,1
  1054d0:	e3 ff ff c4 	bi 1053e0 <_dtoa_r+0x1194>
  1054d4:	b8 40 68 00 	mv r13,r2
  1054d8:	b8 e0 60 00 	mv r12,r7
  1054dc:	e3 ff ff 75 	bi 1052b0 <_dtoa_r+0x1064>

001054e0 <_fflush_r>:
  1054e0:	37 9c ff e8 	addi sp,sp,-24
  1054e4:	5b 8b 00 18 	sw (sp+24),r11
  1054e8:	5b 8c 00 14 	sw (sp+20),r12
  1054ec:	5b 8d 00 10 	sw (sp+16),r13
  1054f0:	5b 8e 00 0c 	sw (sp+12),r14
  1054f4:	5b 8f 00 08 	sw (sp+8),r15
  1054f8:	5b 9d 00 04 	sw (sp+4),ra
  1054fc:	b8 20 68 00 	mv r13,r1
  105500:	b8 40 58 00 	mv r11,r2
  105504:	44 20 00 03 	be r1,r0,105510 <_fflush_r+0x30>
  105508:	28 22 00 38 	lw r2,(r1+56)
  10550c:	44 40 00 5e 	be r2,r0,105684 <_fflush_r+0x1a4>
  105510:	1d 61 00 0c 	lh r1,(r11+12)
  105514:	34 0f 00 00 	mvi r15,0
  105518:	44 20 00 1a 	be r1,r0,105580 <_fflush_r+0xa0>
  10551c:	20 22 00 08 	andi r2,r1,0x8
  105520:	44 40 00 21 	be r2,r0,1055a4 <_fflush_r+0xc4>
  105524:	29 6e 00 10 	lw r14,(r11+16)
  105528:	45 c0 00 16 	be r14,r0,105580 <_fflush_r+0xa0>
  10552c:	29 6c 00 00 	lw r12,(r11+0)
  105530:	20 21 00 03 	andi r1,r1,0x3
  105534:	59 6e 00 00 	sw (r11+0),r14
  105538:	c9 8e 60 00 	sub r12,r12,r14
  10553c:	34 02 00 00 	mvi r2,0
  105540:	44 20 00 53 	be r1,r0,10568c <_fflush_r+0x1ac>
  105544:	59 62 00 08 	sw (r11+8),r2
  105548:	34 0f 00 00 	mvi r15,0
  10554c:	4c 0c 00 0d 	bge r0,r12,105580 <_fflush_r+0xa0>
  105550:	29 65 00 24 	lw r5,(r11+36)
  105554:	29 62 00 1c 	lw r2,(r11+28)
  105558:	b9 80 20 00 	mv r4,r12
  10555c:	b9 c0 18 00 	mv r3,r14
  105560:	b9 a0 08 00 	mv r1,r13
  105564:	d8 a0 00 00 	call r5
  105568:	c9 81 60 00 	sub r12,r12,r1
  10556c:	48 20 00 43 	bg r1,r0,105678 <_fflush_r+0x198>
  105570:	2d 61 00 0c 	lhu r1,(r11+12)
  105574:	34 0f ff ff 	mvi r15,-1
  105578:	38 21 00 40 	ori r1,r1,0x40
  10557c:	0d 61 00 0c 	sh (r11+12),r1
  105580:	b9 e0 08 00 	mv r1,r15
  105584:	2b 9d 00 04 	lw ra,(sp+4)
  105588:	2b 8b 00 18 	lw r11,(sp+24)
  10558c:	2b 8c 00 14 	lw r12,(sp+20)
  105590:	2b 8d 00 10 	lw r13,(sp+16)
  105594:	2b 8e 00 0c 	lw r14,(sp+12)
  105598:	2b 8f 00 08 	lw r15,(sp+8)
  10559c:	37 9c 00 18 	addi sp,sp,24
  1055a0:	c3 a0 00 00 	ret
  1055a4:	29 62 00 04 	lw r2,(r11+4)
  1055a8:	38 21 08 00 	ori r1,r1,0x800
  1055ac:	0d 61 00 0c 	sh (r11+12),r1
  1055b0:	48 4f 00 03 	bg r2,r15,1055bc <_fflush_r+0xdc>
  1055b4:	29 62 00 3c 	lw r2,(r11+60)
  1055b8:	4c 02 ff f2 	bge r0,r2,105580 <_fflush_r+0xa0>
  1055bc:	29 65 00 28 	lw r5,(r11+40)
  1055c0:	34 0f 00 00 	mvi r15,0
  1055c4:	44 a0 ff ef 	be r5,r0,105580 <_fflush_r+0xa0>
  1055c8:	20 21 ff ff 	andi r1,r1,0xffff
  1055cc:	29 ac 00 00 	lw r12,(r13+0)
  1055d0:	20 22 10 00 	andi r2,r1,0x1000
  1055d4:	59 a0 00 00 	sw (r13+0),r0
  1055d8:	44 40 00 2f 	be r2,r0,105694 <_fflush_r+0x1b4>
  1055dc:	29 63 00 50 	lw r3,(r11+80)
  1055e0:	20 21 00 04 	andi r1,r1,0x4
  1055e4:	44 20 00 07 	be r1,r0,105600 <_fflush_r+0x120>
  1055e8:	29 62 00 04 	lw r2,(r11+4)
  1055ec:	29 61 00 30 	lw r1,(r11+48)
  1055f0:	c8 62 18 00 	sub r3,r3,r2
  1055f4:	44 20 00 03 	be r1,r0,105600 <_fflush_r+0x120>
  1055f8:	29 61 00 3c 	lw r1,(r11+60)
  1055fc:	c8 61 18 00 	sub r3,r3,r1
  105600:	29 62 00 1c 	lw r2,(r11+28)
  105604:	b9 a0 08 00 	mv r1,r13
  105608:	34 04 00 00 	mvi r4,0
  10560c:	d8 a0 00 00 	call r5
  105610:	34 02 ff ff 	mvi r2,-1
  105614:	44 22 00 2d 	be r1,r2,1056c8 <_fflush_r+0x1e8>
  105618:	2d 64 00 0c 	lhu r4,(r11+12)
  10561c:	29 63 00 10 	lw r3,(r11+16)
  105620:	34 02 f7 ff 	mvi r2,-2049
  105624:	a0 82 10 00 	and r2,r4,r2
  105628:	dc 40 10 00 	sexth r2,r2
  10562c:	0d 62 00 0c 	sh (r11+12),r2
  105630:	59 60 00 04 	sw (r11+4),r0
  105634:	59 63 00 00 	sw (r11+0),r3
  105638:	20 42 10 00 	andi r2,r2,0x1000
  10563c:	44 40 00 04 	be r2,r0,10564c <_fflush_r+0x16c>
  105640:	34 02 ff ff 	mvi r2,-1
  105644:	44 22 00 28 	be r1,r2,1056e4 <_fflush_r+0x204>
  105648:	59 61 00 50 	sw (r11+80),r1
  10564c:	29 62 00 30 	lw r2,(r11+48)
  105650:	59 ac 00 00 	sw (r13+0),r12
  105654:	34 0f 00 00 	mvi r15,0
  105658:	44 40 ff ca 	be r2,r0,105580 <_fflush_r+0xa0>
  10565c:	35 61 00 40 	addi r1,r11,64
  105660:	44 41 00 03 	be r2,r1,10566c <_fflush_r+0x18c>
  105664:	b9 a0 08 00 	mv r1,r13
  105668:	f8 00 01 7c 	calli 105c58 <_free_r>
  10566c:	59 60 00 30 	sw (r11+48),r0
  105670:	34 0f 00 00 	mvi r15,0
  105674:	e3 ff ff c3 	bi 105580 <_fflush_r+0xa0>
  105678:	4c 0c 00 12 	bge r0,r12,1056c0 <_fflush_r+0x1e0>
  10567c:	b5 c1 70 00 	add r14,r14,r1
  105680:	e3 ff ff b4 	bi 105550 <_fflush_r+0x70>
  105684:	f8 00 00 65 	calli 105818 <__sinit>
  105688:	e3 ff ff a2 	bi 105510 <_fflush_r+0x30>
  10568c:	29 62 00 14 	lw r2,(r11+20)
  105690:	e3 ff ff ad 	bi 105544 <_fflush_r+0x64>
  105694:	29 62 00 1c 	lw r2,(r11+28)
  105698:	34 03 00 00 	mvi r3,0
  10569c:	b9 a0 08 00 	mv r1,r13
  1056a0:	34 04 00 01 	mvi r4,1
  1056a4:	d8 a0 00 00 	call r5
  1056a8:	b8 20 18 00 	mv r3,r1
  1056ac:	34 01 ff ff 	mvi r1,-1
  1056b0:	44 61 00 10 	be r3,r1,1056f0 <_fflush_r+0x210>
  1056b4:	2d 61 00 0c 	lhu r1,(r11+12)
  1056b8:	29 65 00 28 	lw r5,(r11+40)
  1056bc:	e3 ff ff c9 	bi 1055e0 <_fflush_r+0x100>
  1056c0:	34 0f 00 00 	mvi r15,0
  1056c4:	e3 ff ff af 	bi 105580 <_fflush_r+0xa0>
  1056c8:	29 a2 00 00 	lw r2,(r13+0)
  1056cc:	44 40 ff d3 	be r2,r0,105618 <_fflush_r+0x138>
  1056d0:	34 03 00 1d 	mvi r3,29
  1056d4:	44 43 ff d1 	be r2,r3,105618 <_fflush_r+0x138>
  1056d8:	34 03 00 16 	mvi r3,22
  1056dc:	44 43 ff cf 	be r2,r3,105618 <_fflush_r+0x138>
  1056e0:	e3 ff ff a4 	bi 105570 <_fflush_r+0x90>
  1056e4:	29 a2 00 00 	lw r2,(r13+0)
  1056e8:	5c 40 ff d9 	bne r2,r0,10564c <_fflush_r+0x16c>
  1056ec:	e3 ff ff d7 	bi 105648 <_fflush_r+0x168>
  1056f0:	29 a1 00 00 	lw r1,(r13+0)
  1056f4:	44 20 ff f0 	be r1,r0,1056b4 <_fflush_r+0x1d4>
  1056f8:	64 22 00 16 	cmpei r2,r1,22
  1056fc:	64 21 00 1d 	cmpei r1,r1,29
  105700:	b8 41 08 00 	or r1,r2,r1
  105704:	44 20 ff 9b 	be r1,r0,105570 <_fflush_r+0x90>
  105708:	59 ac 00 00 	sw (r13+0),r12
  10570c:	e3 ff ff 9d 	bi 105580 <_fflush_r+0xa0>

00105710 <fflush>:
  105710:	37 9c ff fc 	addi sp,sp,-4
  105714:	5b 9d 00 04 	sw (sp+4),ra
  105718:	b8 20 10 00 	mv r2,r1
  10571c:	44 20 00 08 	be r1,r0,10573c <fflush+0x2c>
  105720:	78 03 00 10 	mvhi r3,0x10
  105724:	38 63 cf 08 	ori r3,r3,0xcf08
  105728:	28 61 00 00 	lw r1,(r3+0)
  10572c:	fb ff ff 6d 	calli 1054e0 <_fflush_r>
  105730:	2b 9d 00 04 	lw ra,(sp+4)
  105734:	37 9c 00 04 	addi sp,sp,4
  105738:	c3 a0 00 00 	ret
  10573c:	78 01 00 10 	mvhi r1,0x10
  105740:	38 21 c8 c0 	ori r1,r1,0xc8c0
  105744:	28 21 00 00 	lw r1,(r1+0)
  105748:	78 02 00 10 	mvhi r2,0x10
  10574c:	38 42 54 e0 	ori r2,r2,0x54e0
  105750:	f8 00 02 13 	calli 105f9c <_fwalk_reent>
  105754:	2b 9d 00 04 	lw ra,(sp+4)
  105758:	37 9c 00 04 	addi sp,sp,4
  10575c:	c3 a0 00 00 	ret

00105760 <__fp_lock>:
  105760:	34 01 00 00 	mvi r1,0
  105764:	c3 a0 00 00 	ret

00105768 <__fp_unlock>:
  105768:	34 01 00 00 	mvi r1,0
  10576c:	c3 a0 00 00 	ret

00105770 <_cleanup_r>:
  105770:	37 9c ff fc 	addi sp,sp,-4
  105774:	5b 9d 00 04 	sw (sp+4),ra
  105778:	78 02 00 10 	mvhi r2,0x10
  10577c:	38 42 90 b0 	ori r2,r2,0x90b0
  105780:	f8 00 01 dd 	calli 105ef4 <_fwalk>
  105784:	2b 9d 00 04 	lw ra,(sp+4)
  105788:	37 9c 00 04 	addi sp,sp,4
  10578c:	c3 a0 00 00 	ret

00105790 <__sfmoreglue>:
  105790:	37 9c ff f0 	addi sp,sp,-16
  105794:	5b 8b 00 10 	sw (sp+16),r11
  105798:	5b 8c 00 0c 	sw (sp+12),r12
  10579c:	5b 8d 00 08 	sw (sp+8),r13
  1057a0:	5b 9d 00 04 	sw (sp+4),ra
  1057a4:	08 4c 00 68 	muli r12,r2,104
  1057a8:	b8 40 68 00 	mv r13,r2
  1057ac:	35 82 00 0c 	addi r2,r12,12
  1057b0:	f8 00 02 d2 	calli 1062f8 <_malloc_r>
  1057b4:	b8 20 58 00 	mv r11,r1
  1057b8:	44 20 00 08 	be r1,r0,1057d8 <__sfmoreglue+0x48>
  1057bc:	34 21 00 0c 	addi r1,r1,12
  1057c0:	59 60 00 00 	sw (r11+0),r0
  1057c4:	59 6d 00 04 	sw (r11+4),r13
  1057c8:	59 61 00 08 	sw (r11+8),r1
  1057cc:	34 02 00 00 	mvi r2,0
  1057d0:	b9 80 18 00 	mv r3,r12
  1057d4:	fb ff f2 34 	calli 1020a4 <memset>
  1057d8:	b9 60 08 00 	mv r1,r11
  1057dc:	2b 9d 00 04 	lw ra,(sp+4)
  1057e0:	2b 8b 00 10 	lw r11,(sp+16)
  1057e4:	2b 8c 00 0c 	lw r12,(sp+12)
  1057e8:	2b 8d 00 08 	lw r13,(sp+8)
  1057ec:	37 9c 00 10 	addi sp,sp,16
  1057f0:	c3 a0 00 00 	ret

001057f4 <_cleanup>:
  1057f4:	37 9c ff fc 	addi sp,sp,-4
  1057f8:	5b 9d 00 04 	sw (sp+4),ra
  1057fc:	78 01 00 10 	mvhi r1,0x10
  105800:	38 21 c8 c0 	ori r1,r1,0xc8c0
  105804:	28 21 00 00 	lw r1,(r1+0)
  105808:	fb ff ff da 	calli 105770 <_cleanup_r>
  10580c:	2b 9d 00 04 	lw ra,(sp+4)
  105810:	37 9c 00 04 	addi sp,sp,4
  105814:	c3 a0 00 00 	ret

00105818 <__sinit>:
  105818:	37 9c ff dc 	addi sp,sp,-36
  10581c:	5b 8b 00 24 	sw (sp+36),r11
  105820:	5b 8c 00 20 	sw (sp+32),r12
  105824:	5b 8d 00 1c 	sw (sp+28),r13
  105828:	5b 8e 00 18 	sw (sp+24),r14
  10582c:	5b 8f 00 14 	sw (sp+20),r15
  105830:	5b 90 00 10 	sw (sp+16),r16
  105834:	5b 91 00 0c 	sw (sp+12),r17
  105838:	5b 92 00 08 	sw (sp+8),r18
  10583c:	5b 9d 00 04 	sw (sp+4),ra
  105840:	b8 20 68 00 	mv r13,r1
  105844:	28 21 00 38 	lw r1,(r1+56)
  105848:	5c 20 00 50 	bne r1,r0,105988 <__sinit+0x170>
  10584c:	78 01 00 10 	mvhi r1,0x10
  105850:	29 ab 00 04 	lw r11,(r13+4)
  105854:	38 21 57 70 	ori r1,r1,0x5770
  105858:	59 a1 00 3c 	sw (r13+60),r1
  10585c:	34 12 00 01 	mvi r18,1
  105860:	35 a2 02 ec 	addi r2,r13,748
  105864:	34 01 00 03 	mvi r1,3
  105868:	59 a1 02 e4 	sw (r13+740),r1
  10586c:	59 a2 02 e8 	sw (r13+744),r2
  105870:	59 b2 00 38 	sw (r13+56),r18
  105874:	59 a0 02 e0 	sw (r13+736),r0
  105878:	34 01 00 04 	mvi r1,4
  10587c:	0d 61 00 0c 	sh (r11+12),r1
  105880:	34 02 00 00 	mvi r2,0
  105884:	34 03 00 08 	mvi r3,8
  105888:	59 60 00 00 	sw (r11+0),r0
  10588c:	59 60 00 04 	sw (r11+4),r0
  105890:	59 60 00 08 	sw (r11+8),r0
  105894:	59 60 00 64 	sw (r11+100),r0
  105898:	0d 60 00 0e 	sh (r11+14),r0
  10589c:	59 60 00 10 	sw (r11+16),r0
  1058a0:	59 60 00 14 	sw (r11+20),r0
  1058a4:	59 60 00 18 	sw (r11+24),r0
  1058a8:	35 61 00 5c 	addi r1,r11,92
  1058ac:	fb ff f1 fe 	calli 1020a4 <memset>
  1058b0:	29 ac 00 08 	lw r12,(r13+8)
  1058b4:	78 11 00 10 	mvhi r17,0x10
  1058b8:	78 10 00 10 	mvhi r16,0x10
  1058bc:	78 0f 00 10 	mvhi r15,0x10
  1058c0:	78 0e 00 10 	mvhi r14,0x10
  1058c4:	3a 31 7c bc 	ori r17,r17,0x7cbc
  1058c8:	3a 10 7d 18 	ori r16,r16,0x7d18
  1058cc:	39 ef 7d 9c 	ori r15,r15,0x7d9c
  1058d0:	39 ce 7d f8 	ori r14,r14,0x7df8
  1058d4:	34 01 00 09 	mvi r1,9
  1058d8:	34 02 00 00 	mvi r2,0
  1058dc:	34 03 00 08 	mvi r3,8
  1058e0:	59 6b 00 1c 	sw (r11+28),r11
  1058e4:	59 71 00 20 	sw (r11+32),r17
  1058e8:	59 70 00 24 	sw (r11+36),r16
  1058ec:	59 6f 00 28 	sw (r11+40),r15
  1058f0:	59 6e 00 2c 	sw (r11+44),r14
  1058f4:	0d 81 00 0c 	sh (r12+12),r1
  1058f8:	59 80 00 00 	sw (r12+0),r0
  1058fc:	59 80 00 04 	sw (r12+4),r0
  105900:	59 80 00 08 	sw (r12+8),r0
  105904:	59 80 00 64 	sw (r12+100),r0
  105908:	0d 92 00 0e 	sh (r12+14),r18
  10590c:	59 80 00 10 	sw (r12+16),r0
  105910:	59 80 00 14 	sw (r12+20),r0
  105914:	59 80 00 18 	sw (r12+24),r0
  105918:	35 81 00 5c 	addi r1,r12,92
  10591c:	fb ff f1 e2 	calli 1020a4 <memset>
  105920:	29 ab 00 0c 	lw r11,(r13+12)
  105924:	34 01 00 12 	mvi r1,18
  105928:	59 8c 00 1c 	sw (r12+28),r12
  10592c:	0d 61 00 0c 	sh (r11+12),r1
  105930:	34 01 00 02 	mvi r1,2
  105934:	0d 61 00 0e 	sh (r11+14),r1
  105938:	59 91 00 20 	sw (r12+32),r17
  10593c:	59 90 00 24 	sw (r12+36),r16
  105940:	59 8f 00 28 	sw (r12+40),r15
  105944:	59 8e 00 2c 	sw (r12+44),r14
  105948:	59 60 00 00 	sw (r11+0),r0
  10594c:	59 60 00 04 	sw (r11+4),r0
  105950:	59 60 00 08 	sw (r11+8),r0
  105954:	59 60 00 64 	sw (r11+100),r0
  105958:	59 60 00 10 	sw (r11+16),r0
  10595c:	59 60 00 14 	sw (r11+20),r0
  105960:	59 60 00 18 	sw (r11+24),r0
  105964:	35 61 00 5c 	addi r1,r11,92
  105968:	34 02 00 00 	mvi r2,0
  10596c:	34 03 00 08 	mvi r3,8
  105970:	fb ff f1 cd 	calli 1020a4 <memset>
  105974:	59 6b 00 1c 	sw (r11+28),r11
  105978:	59 71 00 20 	sw (r11+32),r17
  10597c:	59 70 00 24 	sw (r11+36),r16
  105980:	59 6f 00 28 	sw (r11+40),r15
  105984:	59 6e 00 2c 	sw (r11+44),r14
  105988:	2b 9d 00 04 	lw ra,(sp+4)
  10598c:	2b 8b 00 24 	lw r11,(sp+36)
  105990:	2b 8c 00 20 	lw r12,(sp+32)
  105994:	2b 8d 00 1c 	lw r13,(sp+28)
  105998:	2b 8e 00 18 	lw r14,(sp+24)
  10599c:	2b 8f 00 14 	lw r15,(sp+20)
  1059a0:	2b 90 00 10 	lw r16,(sp+16)
  1059a4:	2b 91 00 0c 	lw r17,(sp+12)
  1059a8:	2b 92 00 08 	lw r18,(sp+8)
  1059ac:	37 9c 00 24 	addi sp,sp,36
  1059b0:	c3 a0 00 00 	ret

001059b4 <__sfp>:
  1059b4:	37 9c ff f0 	addi sp,sp,-16
  1059b8:	5b 8b 00 10 	sw (sp+16),r11
  1059bc:	5b 8c 00 0c 	sw (sp+12),r12
  1059c0:	5b 8d 00 08 	sw (sp+8),r13
  1059c4:	5b 9d 00 04 	sw (sp+4),ra
  1059c8:	78 02 00 10 	mvhi r2,0x10
  1059cc:	38 42 c8 c0 	ori r2,r2,0xc8c0
  1059d0:	28 4c 00 00 	lw r12,(r2+0)
  1059d4:	b8 20 68 00 	mv r13,r1
  1059d8:	29 81 00 38 	lw r1,(r12+56)
  1059dc:	44 20 00 29 	be r1,r0,105a80 <__sfp+0xcc>
  1059e0:	35 8c 02 e0 	addi r12,r12,736
  1059e4:	29 82 00 04 	lw r2,(r12+4)
  1059e8:	29 8b 00 08 	lw r11,(r12+8)
  1059ec:	34 42 ff ff 	addi r2,r2,-1
  1059f0:	48 02 00 06 	bg r0,r2,105a08 <__sfp+0x54>
  1059f4:	1d 63 00 0c 	lh r3,(r11+12)
  1059f8:	44 60 00 08 	be r3,r0,105a18 <__sfp+0x64>
  1059fc:	34 42 ff ff 	addi r2,r2,-1
  105a00:	35 6b 00 68 	addi r11,r11,104
  105a04:	4c 40 ff fc 	bge r2,r0,1059f4 <__sfp+0x40>
  105a08:	29 82 00 00 	lw r2,(r12+0)
  105a0c:	44 40 00 20 	be r2,r0,105a8c <__sfp+0xd8>
  105a10:	b8 40 60 00 	mv r12,r2
  105a14:	e3 ff ff f4 	bi 1059e4 <__sfp+0x30>
  105a18:	34 01 ff ff 	mvi r1,-1
  105a1c:	0d 61 00 0e 	sh (r11+14),r1
  105a20:	34 01 00 01 	mvi r1,1
  105a24:	0d 61 00 0c 	sh (r11+12),r1
  105a28:	59 60 00 64 	sw (r11+100),r0
  105a2c:	59 60 00 00 	sw (r11+0),r0
  105a30:	59 60 00 08 	sw (r11+8),r0
  105a34:	59 60 00 04 	sw (r11+4),r0
  105a38:	59 60 00 10 	sw (r11+16),r0
  105a3c:	59 60 00 14 	sw (r11+20),r0
  105a40:	59 60 00 18 	sw (r11+24),r0
  105a44:	35 61 00 5c 	addi r1,r11,92
  105a48:	34 02 00 00 	mvi r2,0
  105a4c:	34 03 00 08 	mvi r3,8
  105a50:	fb ff f1 95 	calli 1020a4 <memset>
  105a54:	59 60 00 30 	sw (r11+48),r0
  105a58:	59 60 00 34 	sw (r11+52),r0
  105a5c:	59 60 00 44 	sw (r11+68),r0
  105a60:	59 60 00 48 	sw (r11+72),r0
  105a64:	b9 60 08 00 	mv r1,r11
  105a68:	2b 9d 00 04 	lw ra,(sp+4)
  105a6c:	2b 8b 00 10 	lw r11,(sp+16)
  105a70:	2b 8c 00 0c 	lw r12,(sp+12)
  105a74:	2b 8d 00 08 	lw r13,(sp+8)
  105a78:	37 9c 00 10 	addi sp,sp,16
  105a7c:	c3 a0 00 00 	ret
  105a80:	b9 80 08 00 	mv r1,r12
  105a84:	fb ff ff 65 	calli 105818 <__sinit>
  105a88:	e3 ff ff d6 	bi 1059e0 <__sfp+0x2c>
  105a8c:	34 02 00 04 	mvi r2,4
  105a90:	b9 a0 08 00 	mv r1,r13
  105a94:	fb ff ff 3f 	calli 105790 <__sfmoreglue>
  105a98:	59 81 00 00 	sw (r12+0),r1
  105a9c:	b8 20 10 00 	mv r2,r1
  105aa0:	5c 20 ff dc 	bne r1,r0,105a10 <__sfp+0x5c>
  105aa4:	34 01 00 0c 	mvi r1,12
  105aa8:	59 a1 00 00 	sw (r13+0),r1
  105aac:	34 0b 00 00 	mvi r11,0
  105ab0:	e3 ff ff ed 	bi 105a64 <__sfp+0xb0>

00105ab4 <__sfp_lock_acquire>:
  105ab4:	c3 a0 00 00 	ret

00105ab8 <__sfp_lock_release>:
  105ab8:	c3 a0 00 00 	ret

00105abc <__sinit_lock_acquire>:
  105abc:	c3 a0 00 00 	ret

00105ac0 <__sinit_lock_release>:
  105ac0:	c3 a0 00 00 	ret

00105ac4 <__fp_lock_all>:
  105ac4:	37 9c ff fc 	addi sp,sp,-4
  105ac8:	5b 9d 00 04 	sw (sp+4),ra
  105acc:	78 01 00 10 	mvhi r1,0x10
  105ad0:	38 21 cf 08 	ori r1,r1,0xcf08
  105ad4:	28 21 00 00 	lw r1,(r1+0)
  105ad8:	78 02 00 10 	mvhi r2,0x10
  105adc:	38 42 57 60 	ori r2,r2,0x5760
  105ae0:	f8 00 01 05 	calli 105ef4 <_fwalk>
  105ae4:	2b 9d 00 04 	lw ra,(sp+4)
  105ae8:	37 9c 00 04 	addi sp,sp,4
  105aec:	c3 a0 00 00 	ret

00105af0 <__fp_unlock_all>:
  105af0:	37 9c ff fc 	addi sp,sp,-4
  105af4:	5b 9d 00 04 	sw (sp+4),ra
  105af8:	78 01 00 10 	mvhi r1,0x10
  105afc:	38 21 cf 08 	ori r1,r1,0xcf08
  105b00:	28 21 00 00 	lw r1,(r1+0)
  105b04:	78 02 00 10 	mvhi r2,0x10
  105b08:	38 42 57 68 	ori r2,r2,0x5768
  105b0c:	f8 00 00 fa 	calli 105ef4 <_fwalk>
  105b10:	2b 9d 00 04 	lw ra,(sp+4)
  105b14:	37 9c 00 04 	addi sp,sp,4
  105b18:	c3 a0 00 00 	ret

00105b1c <_malloc_trim_r>:
  105b1c:	37 9c ff ec 	addi sp,sp,-20
  105b20:	5b 8b 00 14 	sw (sp+20),r11
  105b24:	5b 8c 00 10 	sw (sp+16),r12
  105b28:	5b 8d 00 0c 	sw (sp+12),r13
  105b2c:	5b 8e 00 08 	sw (sp+8),r14
  105b30:	5b 9d 00 04 	sw (sp+4),ra
  105b34:	78 0b 00 10 	mvhi r11,0x10
  105b38:	b8 40 70 00 	mv r14,r2
  105b3c:	b8 20 60 00 	mv r12,r1
  105b40:	39 6b d3 7c 	ori r11,r11,0xd37c
  105b44:	f8 00 04 37 	calli 106c20 <__malloc_lock>
  105b48:	29 61 00 08 	lw r1,(r11+8)
  105b4c:	34 0d ff fc 	mvi r13,-4
  105b50:	28 21 00 04 	lw r1,(r1+4)
  105b54:	a1 a1 68 00 	and r13,r13,r1
  105b58:	35 a1 0f ef 	addi r1,r13,4079
  105b5c:	c8 2e 70 00 	sub r14,r1,r14
  105b60:	01 ce 00 0c 	srui r14,r14,12
  105b64:	34 01 0f ff 	mvi r1,4095
  105b68:	35 ce ff ff 	addi r14,r14,-1
  105b6c:	3d ce 00 0c 	sli r14,r14,12
  105b70:	49 c1 00 0b 	bg r14,r1,105b9c <_malloc_trim_r+0x80>
  105b74:	b9 80 08 00 	mv r1,r12
  105b78:	f8 00 04 2b 	calli 106c24 <__malloc_unlock>
  105b7c:	34 01 00 00 	mvi r1,0
  105b80:	2b 9d 00 04 	lw ra,(sp+4)
  105b84:	2b 8b 00 14 	lw r11,(sp+20)
  105b88:	2b 8c 00 10 	lw r12,(sp+16)
  105b8c:	2b 8d 00 0c 	lw r13,(sp+12)
  105b90:	2b 8e 00 08 	lw r14,(sp+8)
  105b94:	37 9c 00 14 	addi sp,sp,20
  105b98:	c3 a0 00 00 	ret
  105b9c:	34 02 00 00 	mvi r2,0
  105ba0:	b9 80 08 00 	mv r1,r12
  105ba4:	f8 00 08 0a 	calli 107bcc <_sbrk_r>
  105ba8:	29 62 00 08 	lw r2,(r11+8)
  105bac:	b4 4d 10 00 	add r2,r2,r13
  105bb0:	5c 22 ff f1 	bne r1,r2,105b74 <_malloc_trim_r+0x58>
  105bb4:	c8 0e 10 00 	sub r2,r0,r14
  105bb8:	b9 80 08 00 	mv r1,r12
  105bbc:	f8 00 08 04 	calli 107bcc <_sbrk_r>
  105bc0:	34 02 ff ff 	mvi r2,-1
  105bc4:	44 22 00 14 	be r1,r2,105c14 <_malloc_trim_r+0xf8>
  105bc8:	78 02 00 10 	mvhi r2,0x10
  105bcc:	38 42 d7 b0 	ori r2,r2,0xd7b0
  105bd0:	28 43 00 00 	lw r3,(r2+0)
  105bd4:	29 61 00 08 	lw r1,(r11+8)
  105bd8:	c9 ae 68 00 	sub r13,r13,r14
  105bdc:	39 ad 00 01 	ori r13,r13,0x1
  105be0:	c8 6e 70 00 	sub r14,r3,r14
  105be4:	58 2d 00 04 	sw (r1+4),r13
  105be8:	58 4e 00 00 	sw (r2+0),r14
  105bec:	b9 80 08 00 	mv r1,r12
  105bf0:	f8 00 04 0d 	calli 106c24 <__malloc_unlock>
  105bf4:	34 01 00 01 	mvi r1,1
  105bf8:	2b 9d 00 04 	lw ra,(sp+4)
  105bfc:	2b 8b 00 14 	lw r11,(sp+20)
  105c00:	2b 8c 00 10 	lw r12,(sp+16)
  105c04:	2b 8d 00 0c 	lw r13,(sp+12)
  105c08:	2b 8e 00 08 	lw r14,(sp+8)
  105c0c:	37 9c 00 14 	addi sp,sp,20
  105c10:	c3 a0 00 00 	ret
  105c14:	34 02 00 00 	mvi r2,0
  105c18:	b9 80 08 00 	mv r1,r12
  105c1c:	f8 00 07 ec 	calli 107bcc <_sbrk_r>
  105c20:	29 63 00 08 	lw r3,(r11+8)
  105c24:	34 02 00 0f 	mvi r2,15
  105c28:	c8 23 20 00 	sub r4,r1,r3
  105c2c:	4c 44 ff d2 	bge r2,r4,105b74 <_malloc_trim_r+0x58>
  105c30:	78 02 00 10 	mvhi r2,0x10
  105c34:	38 42 d7 88 	ori r2,r2,0xd788
  105c38:	28 45 00 00 	lw r5,(r2+0)
  105c3c:	78 02 00 10 	mvhi r2,0x10
  105c40:	38 42 d7 b0 	ori r2,r2,0xd7b0
  105c44:	c8 25 08 00 	sub r1,r1,r5
  105c48:	38 84 00 01 	ori r4,r4,0x1
  105c4c:	58 41 00 00 	sw (r2+0),r1
  105c50:	58 64 00 04 	sw (r3+4),r4
  105c54:	e3 ff ff c8 	bi 105b74 <_malloc_trim_r+0x58>

00105c58 <_free_r>:
  105c58:	37 9c ff f4 	addi sp,sp,-12
  105c5c:	5b 8b 00 0c 	sw (sp+12),r11
  105c60:	5b 8c 00 08 	sw (sp+8),r12
  105c64:	5b 9d 00 04 	sw (sp+4),ra
  105c68:	b8 40 58 00 	mv r11,r2
  105c6c:	b8 20 60 00 	mv r12,r1
  105c70:	44 40 00 3e 	be r2,r0,105d68 <_free_r+0x110>
  105c74:	f8 00 03 eb 	calli 106c20 <__malloc_lock>
  105c78:	35 64 ff f8 	addi r4,r11,-8
  105c7c:	28 87 00 04 	lw r7,(r4+4)
  105c80:	34 03 ff fe 	mvi r3,-2
  105c84:	78 05 00 10 	mvhi r5,0x10
  105c88:	a0 e3 18 00 	and r3,r7,r3
  105c8c:	b4 83 30 00 	add r6,r4,r3
  105c90:	38 a5 d3 7c 	ori r5,r5,0xd37c
  105c94:	28 c2 00 04 	lw r2,(r6+4)
  105c98:	28 a8 00 08 	lw r8,(r5+8)
  105c9c:	34 01 ff fc 	mvi r1,-4
  105ca0:	a0 22 10 00 	and r2,r1,r2
  105ca4:	45 06 00 5c 	be r8,r6,105e14 <_free_r+0x1bc>
  105ca8:	58 c2 00 04 	sw (r6+4),r2
  105cac:	20 e7 00 01 	andi r7,r7,0x1
  105cb0:	34 08 00 00 	mvi r8,0
  105cb4:	5c e0 00 0c 	bne r7,r0,105ce4 <_free_r+0x8c>
  105cb8:	29 67 ff f8 	lw r7,(r11+-8)
  105cbc:	34 a9 00 08 	addi r9,r5,8
  105cc0:	34 08 00 01 	mvi r8,1
  105cc4:	c8 87 20 00 	sub r4,r4,r7
  105cc8:	28 81 00 08 	lw r1,(r4+8)
  105ccc:	b4 67 18 00 	add r3,r3,r7
  105cd0:	44 29 00 05 	be r1,r9,105ce4 <_free_r+0x8c>
  105cd4:	28 87 00 0c 	lw r7,(r4+12)
  105cd8:	34 08 00 00 	mvi r8,0
  105cdc:	58 27 00 0c 	sw (r1+12),r7
  105ce0:	58 e1 00 08 	sw (r7+8),r1
  105ce4:	b4 c2 08 00 	add r1,r6,r2
  105ce8:	28 21 00 04 	lw r1,(r1+4)
  105cec:	20 21 00 01 	andi r1,r1,0x1
  105cf0:	5c 20 00 07 	bne r1,r0,105d0c <_free_r+0xb4>
  105cf4:	b4 62 18 00 	add r3,r3,r2
  105cf8:	45 01 00 21 	be r8,r1,105d7c <_free_r+0x124>
  105cfc:	28 c1 00 08 	lw r1,(r6+8)
  105d00:	28 c2 00 0c 	lw r2,(r6+12)
  105d04:	58 22 00 0c 	sw (r1+12),r2
  105d08:	58 41 00 08 	sw (r2+8),r1
  105d0c:	38 62 00 01 	ori r2,r3,0x1
  105d10:	b4 83 08 00 	add r1,r4,r3
  105d14:	58 82 00 04 	sw (r4+4),r2
  105d18:	58 23 00 00 	sw (r1+0),r3
  105d1c:	5d 00 00 11 	bne r8,r0,105d60 <_free_r+0x108>
  105d20:	34 01 01 ff 	mvi r1,511
  105d24:	54 61 00 22 	bgu r3,r1,105dac <_free_r+0x154>
  105d28:	00 63 00 03 	srui r3,r3,3
  105d2c:	28 a7 00 04 	lw r7,(r5+4)
  105d30:	3c 61 00 03 	sli r1,r3,3
  105d34:	14 63 00 02 	sri r3,r3,2
  105d38:	b4 a1 08 00 	add r1,r5,r1
  105d3c:	34 06 00 01 	mvi r6,1
  105d40:	28 22 00 08 	lw r2,(r1+8)
  105d44:	bc c3 18 00 	sl r3,r6,r3
  105d48:	58 81 00 0c 	sw (r4+12),r1
  105d4c:	b8 e3 18 00 	or r3,r7,r3
  105d50:	58 82 00 08 	sw (r4+8),r2
  105d54:	58 a3 00 04 	sw (r5+4),r3
  105d58:	58 24 00 08 	sw (r1+8),r4
  105d5c:	58 44 00 0c 	sw (r2+12),r4
  105d60:	b9 80 08 00 	mv r1,r12
  105d64:	f8 00 03 b0 	calli 106c24 <__malloc_unlock>
  105d68:	2b 9d 00 04 	lw ra,(sp+4)
  105d6c:	2b 8b 00 0c 	lw r11,(sp+12)
  105d70:	2b 8c 00 08 	lw r12,(sp+8)
  105d74:	37 9c 00 0c 	addi sp,sp,12
  105d78:	c3 a0 00 00 	ret
  105d7c:	28 c1 00 08 	lw r1,(r6+8)
  105d80:	34 a2 00 08 	addi r2,r5,8
  105d84:	5c 22 ff df 	bne r1,r2,105d00 <_free_r+0xa8>
  105d88:	58 24 00 0c 	sw (r1+12),r4
  105d8c:	58 24 00 08 	sw (r1+8),r4
  105d90:	38 65 00 01 	ori r5,r3,0x1
  105d94:	b4 83 10 00 	add r2,r4,r3
  105d98:	58 81 00 0c 	sw (r4+12),r1
  105d9c:	58 81 00 08 	sw (r4+8),r1
  105da0:	58 85 00 04 	sw (r4+4),r5
  105da4:	58 43 00 00 	sw (r2+0),r3
  105da8:	e3 ff ff ee 	bi 105d60 <_free_r+0x108>
  105dac:	00 61 00 09 	srui r1,r3,9
  105db0:	34 02 00 04 	mvi r2,4
  105db4:	54 22 00 2f 	bgu r1,r2,105e70 <_free_r+0x218>
  105db8:	00 67 00 06 	srui r7,r3,6
  105dbc:	34 e7 00 38 	addi r7,r7,56
  105dc0:	3c e6 00 03 	sli r6,r7,3
  105dc4:	b4 a6 30 00 	add r6,r5,r6
  105dc8:	28 c2 00 08 	lw r2,(r6+8)
  105dcc:	44 46 00 2e 	be r2,r6,105e84 <_free_r+0x22c>
  105dd0:	28 47 00 04 	lw r7,(r2+4)
  105dd4:	34 05 ff fc 	mvi r5,-4
  105dd8:	34 01 ff fc 	mvi r1,-4
  105ddc:	a0 a7 28 00 	and r5,r5,r7
  105de0:	54 a3 00 07 	bgu r5,r3,105dfc <_free_r+0x1a4>
  105de4:	28 41 00 0c 	lw r1,(r2+12)
  105de8:	58 81 00 0c 	sw (r4+12),r1
  105dec:	58 82 00 08 	sw (r4+8),r2
  105df0:	58 24 00 08 	sw (r1+8),r4
  105df4:	58 44 00 0c 	sw (r2+12),r4
  105df8:	e3 ff ff da 	bi 105d60 <_free_r+0x108>
  105dfc:	28 42 00 08 	lw r2,(r2+8)
  105e00:	44 c2 ff f9 	be r6,r2,105de4 <_free_r+0x18c>
  105e04:	28 45 00 04 	lw r5,(r2+4)
  105e08:	a0 25 28 00 	and r5,r1,r5
  105e0c:	54 a3 ff fc 	bgu r5,r3,105dfc <_free_r+0x1a4>
  105e10:	e3 ff ff f5 	bi 105de4 <_free_r+0x18c>
  105e14:	20 e7 00 01 	andi r7,r7,0x1
  105e18:	b4 43 18 00 	add r3,r2,r3
  105e1c:	5c e0 00 08 	bne r7,r0,105e3c <_free_r+0x1e4>
  105e20:	29 62 ff f8 	lw r2,(r11+-8)
  105e24:	c8 82 20 00 	sub r4,r4,r2
  105e28:	28 81 00 0c 	lw r1,(r4+12)
  105e2c:	28 86 00 08 	lw r6,(r4+8)
  105e30:	b4 62 18 00 	add r3,r3,r2
  105e34:	58 c1 00 0c 	sw (r6+12),r1
  105e38:	58 26 00 08 	sw (r1+8),r6
  105e3c:	78 01 00 10 	mvhi r1,0x10
  105e40:	38 21 d7 84 	ori r1,r1,0xd784
  105e44:	28 21 00 00 	lw r1,(r1+0)
  105e48:	38 62 00 01 	ori r2,r3,0x1
  105e4c:	58 82 00 04 	sw (r4+4),r2
  105e50:	58 a4 00 08 	sw (r5+8),r4
  105e54:	54 23 ff c3 	bgu r1,r3,105d60 <_free_r+0x108>
  105e58:	78 01 00 10 	mvhi r1,0x10
  105e5c:	38 21 d7 a4 	ori r1,r1,0xd7a4
  105e60:	28 22 00 00 	lw r2,(r1+0)
  105e64:	b9 80 08 00 	mv r1,r12
  105e68:	fb ff ff 2d 	calli 105b1c <_malloc_trim_r>
  105e6c:	e3 ff ff bd 	bi 105d60 <_free_r+0x108>
  105e70:	34 02 00 14 	mvi r2,20
  105e74:	54 22 00 0c 	bgu r1,r2,105ea4 <_free_r+0x24c>
  105e78:	34 27 00 5b 	addi r7,r1,91
  105e7c:	3c e6 00 03 	sli r6,r7,3
  105e80:	e3 ff ff d1 	bi 105dc4 <_free_r+0x16c>
  105e84:	14 e7 00 02 	sri r7,r7,2
  105e88:	28 a6 00 04 	lw r6,(r5+4)
  105e8c:	34 01 00 01 	mvi r1,1
  105e90:	bc 27 18 00 	sl r3,r1,r7
  105e94:	b8 40 08 00 	mv r1,r2
  105e98:	b8 c3 18 00 	or r3,r6,r3
  105e9c:	58 a3 00 04 	sw (r5+4),r3
  105ea0:	e3 ff ff d2 	bi 105de8 <_free_r+0x190>
  105ea4:	34 02 00 54 	mvi r2,84
  105ea8:	54 22 00 05 	bgu r1,r2,105ebc <_free_r+0x264>
  105eac:	00 67 00 0c 	srui r7,r3,12
  105eb0:	34 e7 00 6e 	addi r7,r7,110
  105eb4:	3c e6 00 03 	sli r6,r7,3
  105eb8:	e3 ff ff c3 	bi 105dc4 <_free_r+0x16c>
  105ebc:	34 02 01 54 	mvi r2,340
  105ec0:	54 22 00 05 	bgu r1,r2,105ed4 <_free_r+0x27c>
  105ec4:	00 67 00 0f 	srui r7,r3,15
  105ec8:	34 e7 00 77 	addi r7,r7,119
  105ecc:	3c e6 00 03 	sli r6,r7,3
  105ed0:	e3 ff ff bd 	bi 105dc4 <_free_r+0x16c>
  105ed4:	34 02 05 54 	mvi r2,1364
  105ed8:	34 06 03 f0 	mvi r6,1008
  105edc:	34 07 00 7e 	mvi r7,126
  105ee0:	54 22 ff b9 	bgu r1,r2,105dc4 <_free_r+0x16c>
  105ee4:	00 67 00 12 	srui r7,r3,18
  105ee8:	34 e7 00 7c 	addi r7,r7,124
  105eec:	3c e6 00 03 	sli r6,r7,3
  105ef0:	e3 ff ff b5 	bi 105dc4 <_free_r+0x16c>

00105ef4 <_fwalk>:
  105ef4:	37 9c ff e4 	addi sp,sp,-28
  105ef8:	5b 8b 00 1c 	sw (sp+28),r11
  105efc:	5b 8c 00 18 	sw (sp+24),r12
  105f00:	5b 8d 00 14 	sw (sp+20),r13
  105f04:	5b 8e 00 10 	sw (sp+16),r14
  105f08:	5b 8f 00 0c 	sw (sp+12),r15
  105f0c:	5b 90 00 08 	sw (sp+8),r16
  105f10:	5b 9d 00 04 	sw (sp+4),ra
  105f14:	34 2d 02 e0 	addi r13,r1,736
  105f18:	b8 40 80 00 	mv r16,r2
  105f1c:	34 0e 00 00 	mvi r14,0
  105f20:	fb ff fe e5 	calli 105ab4 <__sfp_lock_acquire>
  105f24:	45 a0 00 13 	be r13,r0,105f70 <_fwalk+0x7c>
  105f28:	34 0f ff ff 	mvi r15,-1
  105f2c:	29 ac 00 04 	lw r12,(r13+4)
  105f30:	29 ab 00 08 	lw r11,(r13+8)
  105f34:	35 8c ff ff 	addi r12,r12,-1
  105f38:	48 0c 00 0c 	bg r0,r12,105f68 <_fwalk+0x74>
  105f3c:	1d 63 00 0c 	lh r3,(r11+12)
  105f40:	35 8c ff ff 	addi r12,r12,-1
  105f44:	44 60 00 06 	be r3,r0,105f5c <_fwalk+0x68>
  105f48:	1d 63 00 0e 	lh r3,(r11+14)
  105f4c:	b9 60 08 00 	mv r1,r11
  105f50:	44 6f 00 03 	be r3,r15,105f5c <_fwalk+0x68>
  105f54:	da 00 00 00 	call r16
  105f58:	b9 c1 70 00 	or r14,r14,r1
  105f5c:	48 0c 00 03 	bg r0,r12,105f68 <_fwalk+0x74>
  105f60:	35 6b 00 68 	addi r11,r11,104
  105f64:	e3 ff ff f6 	bi 105f3c <_fwalk+0x48>
  105f68:	29 ad 00 00 	lw r13,(r13+0)
  105f6c:	5d a0 ff f0 	bne r13,r0,105f2c <_fwalk+0x38>
  105f70:	fb ff fe d2 	calli 105ab8 <__sfp_lock_release>
  105f74:	b9 c0 08 00 	mv r1,r14
  105f78:	2b 9d 00 04 	lw ra,(sp+4)
  105f7c:	2b 8b 00 1c 	lw r11,(sp+28)
  105f80:	2b 8c 00 18 	lw r12,(sp+24)
  105f84:	2b 8d 00 14 	lw r13,(sp+20)
  105f88:	2b 8e 00 10 	lw r14,(sp+16)
  105f8c:	2b 8f 00 0c 	lw r15,(sp+12)
  105f90:	2b 90 00 08 	lw r16,(sp+8)
  105f94:	37 9c 00 1c 	addi sp,sp,28
  105f98:	c3 a0 00 00 	ret

00105f9c <_fwalk_reent>:
  105f9c:	37 9c ff e0 	addi sp,sp,-32
  105fa0:	5b 8b 00 20 	sw (sp+32),r11
  105fa4:	5b 8c 00 1c 	sw (sp+28),r12
  105fa8:	5b 8d 00 18 	sw (sp+24),r13
  105fac:	5b 8e 00 14 	sw (sp+20),r14
  105fb0:	5b 8f 00 10 	sw (sp+16),r15
  105fb4:	5b 90 00 0c 	sw (sp+12),r16
  105fb8:	5b 91 00 08 	sw (sp+8),r17
  105fbc:	5b 9d 00 04 	sw (sp+4),ra
  105fc0:	34 2d 02 e0 	addi r13,r1,736
  105fc4:	b8 20 78 00 	mv r15,r1
  105fc8:	b8 40 88 00 	mv r17,r2
  105fcc:	34 0e 00 00 	mvi r14,0
  105fd0:	fb ff fe b9 	calli 105ab4 <__sfp_lock_acquire>
  105fd4:	45 a0 00 14 	be r13,r0,106024 <_fwalk_reent+0x88>
  105fd8:	34 10 ff ff 	mvi r16,-1
  105fdc:	29 ac 00 04 	lw r12,(r13+4)
  105fe0:	29 ab 00 08 	lw r11,(r13+8)
  105fe4:	35 8c ff ff 	addi r12,r12,-1
  105fe8:	48 0c 00 0d 	bg r0,r12,10601c <_fwalk_reent+0x80>
  105fec:	1d 63 00 0c 	lh r3,(r11+12)
  105ff0:	35 8c ff ff 	addi r12,r12,-1
  105ff4:	44 60 00 07 	be r3,r0,106010 <_fwalk_reent+0x74>
  105ff8:	1d 63 00 0e 	lh r3,(r11+14)
  105ffc:	b9 60 10 00 	mv r2,r11
  106000:	b9 e0 08 00 	mv r1,r15
  106004:	44 70 00 03 	be r3,r16,106010 <_fwalk_reent+0x74>
  106008:	da 20 00 00 	call r17
  10600c:	b9 c1 70 00 	or r14,r14,r1
  106010:	48 0c 00 03 	bg r0,r12,10601c <_fwalk_reent+0x80>
  106014:	35 6b 00 68 	addi r11,r11,104
  106018:	e3 ff ff f5 	bi 105fec <_fwalk_reent+0x50>
  10601c:	29 ad 00 00 	lw r13,(r13+0)
  106020:	5d a0 ff ef 	bne r13,r0,105fdc <_fwalk_reent+0x40>
  106024:	fb ff fe a5 	calli 105ab8 <__sfp_lock_release>
  106028:	b9 c0 08 00 	mv r1,r14
  10602c:	2b 9d 00 04 	lw ra,(sp+4)
  106030:	2b 8b 00 20 	lw r11,(sp+32)
  106034:	2b 8c 00 1c 	lw r12,(sp+28)
  106038:	2b 8d 00 18 	lw r13,(sp+24)
  10603c:	2b 8e 00 14 	lw r14,(sp+20)
  106040:	2b 8f 00 10 	lw r15,(sp+16)
  106044:	2b 90 00 0c 	lw r16,(sp+12)
  106048:	2b 91 00 08 	lw r17,(sp+8)
  10604c:	37 9c 00 20 	addi sp,sp,32
  106050:	c3 a0 00 00 	ret

00106054 <_setlocale_r>:
  106054:	37 9c ff f0 	addi sp,sp,-16
  106058:	5b 8b 00 10 	sw (sp+16),r11
  10605c:	5b 8c 00 0c 	sw (sp+12),r12
  106060:	5b 8d 00 08 	sw (sp+8),r13
  106064:	5b 9d 00 04 	sw (sp+4),ra
  106068:	78 0b 00 10 	mvhi r11,0x10
  10606c:	b8 60 60 00 	mv r12,r3
  106070:	39 6b c8 c4 	ori r11,r11,0xc8c4
  106074:	44 60 00 08 	be r3,r0,106094 <_setlocale_r+0x40>
  106078:	78 02 00 10 	mvhi r2,0x10
  10607c:	b8 60 08 00 	mv r1,r3
  106080:	38 42 ca bc 	ori r2,r2,0xcabc
  106084:	78 0b 00 10 	mvhi r11,0x10
  106088:	f8 00 07 63 	calli 107e14 <strcmp>
  10608c:	39 6b c8 c4 	ori r11,r11,0xc8c4
  106090:	5c 20 00 08 	bne r1,r0,1060b0 <_setlocale_r+0x5c>
  106094:	b9 60 08 00 	mv r1,r11
  106098:	2b 9d 00 04 	lw ra,(sp+4)
  10609c:	2b 8b 00 10 	lw r11,(sp+16)
  1060a0:	2b 8c 00 0c 	lw r12,(sp+12)
  1060a4:	2b 8d 00 08 	lw r13,(sp+8)
  1060a8:	37 9c 00 10 	addi sp,sp,16
  1060ac:	c3 a0 00 00 	ret
  1060b0:	b9 80 08 00 	mv r1,r12
  1060b4:	b9 60 10 00 	mv r2,r11
  1060b8:	b9 60 68 00 	mv r13,r11
  1060bc:	f8 00 07 56 	calli 107e14 <strcmp>
  1060c0:	44 20 ff f5 	be r1,r0,106094 <_setlocale_r+0x40>
  1060c4:	78 02 00 10 	mvhi r2,0x10
  1060c8:	b9 80 08 00 	mv r1,r12
  1060cc:	38 42 c8 e8 	ori r2,r2,0xc8e8
  1060d0:	f8 00 07 51 	calli 107e14 <strcmp>
  1060d4:	34 0b 00 00 	mvi r11,0
  1060d8:	5c 20 ff ef 	bne r1,r0,106094 <_setlocale_r+0x40>
  1060dc:	b9 a0 58 00 	mv r11,r13
  1060e0:	e3 ff ff ed 	bi 106094 <_setlocale_r+0x40>

001060e4 <__locale_charset>:
  1060e4:	78 01 00 10 	mvhi r1,0x10
  1060e8:	38 21 d3 5c 	ori r1,r1,0xd35c
  1060ec:	c3 a0 00 00 	ret

001060f0 <__locale_msgcharset>:
  1060f0:	78 01 00 10 	mvhi r1,0x10
  1060f4:	38 21 d3 3c 	ori r1,r1,0xd33c
  1060f8:	c3 a0 00 00 	ret

001060fc <__locale_cjk_lang>:
  1060fc:	34 01 00 00 	mvi r1,0
  106100:	c3 a0 00 00 	ret

00106104 <_localeconv_r>:
  106104:	78 01 00 10 	mvhi r1,0x10
  106108:	38 21 ca c8 	ori r1,r1,0xcac8
  10610c:	c3 a0 00 00 	ret

00106110 <setlocale>:
  106110:	37 9c ff fc 	addi sp,sp,-4
  106114:	5b 9d 00 04 	sw (sp+4),ra
  106118:	78 03 00 10 	mvhi r3,0x10
  10611c:	38 63 cf 08 	ori r3,r3,0xcf08
  106120:	b8 20 20 00 	mv r4,r1
  106124:	28 61 00 00 	lw r1,(r3+0)
  106128:	b8 40 18 00 	mv r3,r2
  10612c:	b8 80 10 00 	mv r2,r4
  106130:	fb ff ff c9 	calli 106054 <_setlocale_r>
  106134:	2b 9d 00 04 	lw ra,(sp+4)
  106138:	37 9c 00 04 	addi sp,sp,4
  10613c:	c3 a0 00 00 	ret

00106140 <localeconv>:
  106140:	78 01 00 10 	mvhi r1,0x10
  106144:	38 21 ca c8 	ori r1,r1,0xcac8
  106148:	c3 a0 00 00 	ret

0010614c <__smakebuf_r>:
  10614c:	37 9c ff b0 	addi sp,sp,-80
  106150:	5b 8b 00 14 	sw (sp+20),r11
  106154:	5b 8c 00 10 	sw (sp+16),r12
  106158:	5b 8d 00 0c 	sw (sp+12),r13
  10615c:	5b 8e 00 08 	sw (sp+8),r14
  106160:	5b 9d 00 04 	sw (sp+4),ra
  106164:	1c 43 00 0c 	lh r3,(r2+12)
  106168:	b8 40 58 00 	mv r11,r2
  10616c:	b8 20 68 00 	mv r13,r1
  106170:	20 6c ff ff 	andi r12,r3,0xffff
  106174:	21 84 00 02 	andi r4,r12,0x2
  106178:	5c 80 00 30 	bne r4,r0,106238 <__smakebuf_r+0xec>
  10617c:	1c 42 00 0e 	lh r2,(r2+14)
  106180:	48 82 00 06 	bg r4,r2,106198 <__smakebuf_r+0x4c>
  106184:	37 83 00 18 	addi r3,sp,24
  106188:	f8 00 0c 4e 	calli 1092c0 <_fstat_r>
  10618c:	4c 20 00 21 	bge r1,r0,106210 <__smakebuf_r+0xc4>
  106190:	1d 63 00 0c 	lh r3,(r11+12)
  106194:	20 6c ff ff 	andi r12,r3,0xffff
  106198:	3d 8c 00 18 	sli r12,r12,24
  10619c:	34 01 fc 40 	mvi r1,-960
  1061a0:	15 8c 00 1f 	sri r12,r12,31
  1061a4:	38 63 08 00 	ori r3,r3,0x800
  1061a8:	a1 81 60 00 	and r12,r12,r1
  1061ac:	35 8c 04 00 	addi r12,r12,1024
  1061b0:	0d 63 00 0c 	sh (r11+12),r3
  1061b4:	34 0e 00 00 	mvi r14,0
  1061b8:	b9 a0 08 00 	mv r1,r13
  1061bc:	b9 80 10 00 	mv r2,r12
  1061c0:	f8 00 00 4e 	calli 1062f8 <_malloc_r>
  1061c4:	b8 20 18 00 	mv r3,r1
  1061c8:	44 20 00 41 	be r1,r0,1062cc <__smakebuf_r+0x180>
  1061cc:	2d 62 00 0c 	lhu r2,(r11+12)
  1061d0:	78 01 00 10 	mvhi r1,0x10
  1061d4:	38 21 57 70 	ori r1,r1,0x5770
  1061d8:	59 a1 00 3c 	sw (r13+60),r1
  1061dc:	38 41 00 80 	ori r1,r2,0x80
  1061e0:	0d 61 00 0c 	sh (r11+12),r1
  1061e4:	59 63 00 00 	sw (r11+0),r3
  1061e8:	59 63 00 10 	sw (r11+16),r3
  1061ec:	59 6c 00 14 	sw (r11+20),r12
  1061f0:	5d c0 00 1e 	bne r14,r0,106268 <__smakebuf_r+0x11c>
  1061f4:	2b 9d 00 04 	lw ra,(sp+4)
  1061f8:	2b 8b 00 14 	lw r11,(sp+20)
  1061fc:	2b 8c 00 10 	lw r12,(sp+16)
  106200:	2b 8d 00 0c 	lw r13,(sp+12)
  106204:	2b 8e 00 08 	lw r14,(sp+8)
  106208:	37 9c 00 50 	addi sp,sp,80
  10620c:	c3 a0 00 00 	ret
  106210:	2b 81 00 1c 	lw r1,(sp+28)
  106214:	38 02 80 00 	mvu r2,0x8000
  106218:	20 21 f0 00 	andi r1,r1,0xf000
  10621c:	64 2e 20 00 	cmpei r14,r1,8192
  106220:	44 22 00 20 	be r1,r2,1062a0 <__smakebuf_r+0x154>
  106224:	2d 61 00 0c 	lhu r1,(r11+12)
  106228:	34 0c 04 00 	mvi r12,1024
  10622c:	38 21 08 00 	ori r1,r1,0x800
  106230:	0d 61 00 0c 	sh (r11+12),r1
  106234:	e3 ff ff e1 	bi 1061b8 <__smakebuf_r+0x6c>
  106238:	34 41 00 43 	addi r1,r2,67
  10623c:	58 41 00 00 	sw (r2+0),r1
  106240:	58 41 00 10 	sw (r2+16),r1
  106244:	34 01 00 01 	mvi r1,1
  106248:	58 41 00 14 	sw (r2+20),r1
  10624c:	2b 9d 00 04 	lw ra,(sp+4)
  106250:	2b 8b 00 14 	lw r11,(sp+20)
  106254:	2b 8c 00 10 	lw r12,(sp+16)
  106258:	2b 8d 00 0c 	lw r13,(sp+12)
  10625c:	2b 8e 00 08 	lw r14,(sp+8)
  106260:	37 9c 00 50 	addi sp,sp,80
  106264:	c3 a0 00 00 	ret
  106268:	1d 62 00 0e 	lh r2,(r11+14)
  10626c:	b9 a0 08 00 	mv r1,r13
  106270:	f8 00 0d 5f 	calli 1097ec <_isatty_r>
  106274:	44 20 ff e0 	be r1,r0,1061f4 <__smakebuf_r+0xa8>
  106278:	2d 61 00 0c 	lhu r1,(r11+12)
  10627c:	38 21 00 01 	ori r1,r1,0x1
  106280:	0d 61 00 0c 	sh (r11+12),r1
  106284:	2b 9d 00 04 	lw ra,(sp+4)
  106288:	2b 8b 00 14 	lw r11,(sp+20)
  10628c:	2b 8c 00 10 	lw r12,(sp+16)
  106290:	2b 8d 00 0c 	lw r13,(sp+12)
  106294:	2b 8e 00 08 	lw r14,(sp+8)
  106298:	37 9c 00 50 	addi sp,sp,80
  10629c:	c3 a0 00 00 	ret
  1062a0:	29 62 00 28 	lw r2,(r11+40)
  1062a4:	78 01 00 10 	mvhi r1,0x10
  1062a8:	38 21 7d 9c 	ori r1,r1,0x7d9c
  1062ac:	5c 41 ff de 	bne r2,r1,106224 <__smakebuf_r+0xd8>
  1062b0:	2d 61 00 0c 	lhu r1,(r11+12)
  1062b4:	34 02 04 00 	mvi r2,1024
  1062b8:	59 62 00 4c 	sw (r11+76),r2
  1062bc:	38 21 04 00 	ori r1,r1,0x400
  1062c0:	0d 61 00 0c 	sh (r11+12),r1
  1062c4:	34 0c 04 00 	mvi r12,1024
  1062c8:	e3 ff ff bc 	bi 1061b8 <__smakebuf_r+0x6c>
  1062cc:	1d 61 00 0c 	lh r1,(r11+12)
  1062d0:	20 22 02 00 	andi r2,r1,0x200
  1062d4:	5c 43 ff c8 	bne r2,r3,1061f4 <__smakebuf_r+0xa8>
  1062d8:	38 21 00 02 	ori r1,r1,0x2
  1062dc:	35 62 00 43 	addi r2,r11,67
  1062e0:	0d 61 00 0c 	sh (r11+12),r1
  1062e4:	34 01 00 01 	mvi r1,1
  1062e8:	59 62 00 00 	sw (r11+0),r2
  1062ec:	59 62 00 10 	sw (r11+16),r2
  1062f0:	59 61 00 14 	sw (r11+20),r1
  1062f4:	e3 ff ff c0 	bi 1061f4 <__smakebuf_r+0xa8>

001062f8 <_malloc_r>:
  1062f8:	37 9c ff d8 	addi sp,sp,-40
  1062fc:	5b 8b 00 28 	sw (sp+40),r11
  106300:	5b 8c 00 24 	sw (sp+36),r12
  106304:	5b 8d 00 20 	sw (sp+32),r13
  106308:	5b 8e 00 1c 	sw (sp+28),r14
  10630c:	5b 8f 00 18 	sw (sp+24),r15
  106310:	5b 90 00 14 	sw (sp+20),r16
  106314:	5b 91 00 10 	sw (sp+16),r17
  106318:	5b 92 00 0c 	sw (sp+12),r18
  10631c:	5b 93 00 08 	sw (sp+8),r19
  106320:	5b 9d 00 04 	sw (sp+4),ra
  106324:	34 04 00 16 	mvi r4,22
  106328:	34 43 00 0b 	addi r3,r2,11
  10632c:	b8 20 70 00 	mv r14,r1
  106330:	34 0c 00 10 	mvi r12,16
  106334:	34 01 00 00 	mvi r1,0
  106338:	50 83 00 04 	bgeu r4,r3,106348 <_malloc_r+0x50>
  10633c:	34 0c ff f8 	mvi r12,-8
  106340:	a0 6c 60 00 	and r12,r3,r12
  106344:	01 81 00 1f 	srui r1,r12,31
  106348:	f4 4c 10 00 	cmpgu r2,r2,r12
  10634c:	b8 22 08 00 	or r1,r1,r2
  106350:	5c 20 00 6f 	bne r1,r0,10650c <_malloc_r+0x214>
  106354:	b9 c0 08 00 	mv r1,r14
  106358:	f8 00 02 32 	calli 106c20 <__malloc_lock>
  10635c:	34 01 01 f7 	mvi r1,503
  106360:	55 81 00 21 	bgu r12,r1,1063e4 <_malloc_r+0xec>
  106364:	78 0d 00 10 	mvhi r13,0x10
  106368:	39 ad d3 7c 	ori r13,r13,0xd37c
  10636c:	b5 ac 08 00 	add r1,r13,r12
  106370:	28 2b 00 0c 	lw r11,(r1+12)
  106374:	01 85 00 03 	srui r5,r12,3
  106378:	45 61 01 01 	be r11,r1,10677c <_malloc_r+0x484>
  10637c:	29 62 00 04 	lw r2,(r11+4)
  106380:	34 01 ff fc 	mvi r1,-4
  106384:	29 63 00 0c 	lw r3,(r11+12)
  106388:	a0 22 10 00 	and r2,r1,r2
  10638c:	b5 62 10 00 	add r2,r11,r2
  106390:	28 44 00 04 	lw r4,(r2+4)
  106394:	29 65 00 08 	lw r5,(r11+8)
  106398:	b9 c0 08 00 	mv r1,r14
  10639c:	38 84 00 01 	ori r4,r4,0x1
  1063a0:	58 a3 00 0c 	sw (r5+12),r3
  1063a4:	58 65 00 08 	sw (r3+8),r5
  1063a8:	58 44 00 04 	sw (r2+4),r4
  1063ac:	f8 00 02 1e 	calli 106c24 <__malloc_unlock>
  1063b0:	35 61 00 08 	addi r1,r11,8
  1063b4:	2b 9d 00 04 	lw ra,(sp+4)
  1063b8:	2b 8b 00 28 	lw r11,(sp+40)
  1063bc:	2b 8c 00 24 	lw r12,(sp+36)
  1063c0:	2b 8d 00 20 	lw r13,(sp+32)
  1063c4:	2b 8e 00 1c 	lw r14,(sp+28)
  1063c8:	2b 8f 00 18 	lw r15,(sp+24)
  1063cc:	2b 90 00 14 	lw r16,(sp+20)
  1063d0:	2b 91 00 10 	lw r17,(sp+16)
  1063d4:	2b 92 00 0c 	lw r18,(sp+12)
  1063d8:	2b 93 00 08 	lw r19,(sp+8)
  1063dc:	37 9c 00 28 	addi sp,sp,40
  1063e0:	c3 a0 00 00 	ret
  1063e4:	01 86 00 03 	srui r6,r12,3
  1063e8:	01 81 00 09 	srui r1,r12,9
  1063ec:	3c c4 00 03 	sli r4,r6,3
  1063f0:	5c 20 00 4b 	bne r1,r0,10651c <_malloc_r+0x224>
  1063f4:	78 0d 00 10 	mvhi r13,0x10
  1063f8:	39 ad d3 7c 	ori r13,r13,0xd37c
  1063fc:	b5 a4 20 00 	add r4,r13,r4
  106400:	28 8b 00 0c 	lw r11,(r4+12)
  106404:	44 8b 00 11 	be r4,r11,106448 <_malloc_r+0x150>
  106408:	29 62 00 04 	lw r2,(r11+4)
  10640c:	34 01 ff fc 	mvi r1,-4
  106410:	34 03 00 0f 	mvi r3,15
  106414:	a0 22 10 00 	and r2,r1,r2
  106418:	c8 4c 08 00 	sub r1,r2,r12
  10641c:	48 23 00 0a 	bg r1,r3,106444 <_malloc_r+0x14c>
  106420:	4c 20 00 24 	bge r1,r0,1064b0 <_malloc_r+0x1b8>
  106424:	34 05 ff fc 	mvi r5,-4
  106428:	34 01 00 0f 	mvi r1,15
  10642c:	29 6b 00 0c 	lw r11,(r11+12)
  106430:	44 8b 00 06 	be r4,r11,106448 <_malloc_r+0x150>
  106434:	29 62 00 04 	lw r2,(r11+4)
  106438:	a0 a2 10 00 	and r2,r5,r2
  10643c:	c8 4c 18 00 	sub r3,r2,r12
  106440:	4c 23 00 1b 	bge r1,r3,1064ac <_malloc_r+0x1b4>
  106444:	34 c6 ff ff 	addi r6,r6,-1
  106448:	34 c5 00 01 	addi r5,r6,1
  10644c:	35 a4 00 08 	addi r4,r13,8
  106450:	28 8b 00 08 	lw r11,(r4+8)
  106454:	44 8b 00 c8 	be r4,r11,106774 <_malloc_r+0x47c>
  106458:	29 62 00 04 	lw r2,(r11+4)
  10645c:	34 01 ff fc 	mvi r1,-4
  106460:	34 03 00 0f 	mvi r3,15
  106464:	a0 22 08 00 	and r1,r1,r2
  106468:	c8 2c 10 00 	sub r2,r1,r12
  10646c:	4c 62 00 1d 	bge r3,r2,1064e0 <_malloc_r+0x1e8>
  106470:	b5 6c 08 00 	add r1,r11,r12
  106474:	39 8c 00 01 	ori r12,r12,0x1
  106478:	59 6c 00 04 	sw (r11+4),r12
  10647c:	58 81 00 0c 	sw (r4+12),r1
  106480:	58 81 00 08 	sw (r4+8),r1
  106484:	38 45 00 01 	ori r5,r2,0x1
  106488:	b4 22 18 00 	add r3,r1,r2
  10648c:	58 24 00 0c 	sw (r1+12),r4
  106490:	58 24 00 08 	sw (r1+8),r4
  106494:	58 25 00 04 	sw (r1+4),r5
  106498:	58 62 00 00 	sw (r3+0),r2
  10649c:	b9 c0 08 00 	mv r1,r14
  1064a0:	f8 00 01 e1 	calli 106c24 <__malloc_unlock>
  1064a4:	35 61 00 08 	addi r1,r11,8
  1064a8:	e3 ff ff c3 	bi 1063b4 <_malloc_r+0xbc>
  1064ac:	48 03 ff e0 	bg r0,r3,10642c <_malloc_r+0x134>
  1064b0:	b5 62 10 00 	add r2,r11,r2
  1064b4:	28 44 00 04 	lw r4,(r2+4)
  1064b8:	29 61 00 0c 	lw r1,(r11+12)
  1064bc:	29 63 00 08 	lw r3,(r11+8)
  1064c0:	38 84 00 01 	ori r4,r4,0x1
  1064c4:	58 44 00 04 	sw (r2+4),r4
  1064c8:	58 61 00 0c 	sw (r3+12),r1
  1064cc:	58 23 00 08 	sw (r1+8),r3
  1064d0:	b9 c0 08 00 	mv r1,r14
  1064d4:	f8 00 01 d4 	calli 106c24 <__malloc_unlock>
  1064d8:	35 61 00 08 	addi r1,r11,8
  1064dc:	e3 ff ff b6 	bi 1063b4 <_malloc_r+0xbc>
  1064e0:	58 84 00 0c 	sw (r4+12),r4
  1064e4:	58 84 00 08 	sw (r4+8),r4
  1064e8:	48 02 00 13 	bg r0,r2,106534 <_malloc_r+0x23c>
  1064ec:	b5 61 10 00 	add r2,r11,r1
  1064f0:	28 43 00 04 	lw r3,(r2+4)
  1064f4:	b9 c0 08 00 	mv r1,r14
  1064f8:	38 63 00 01 	ori r3,r3,0x1
  1064fc:	58 43 00 04 	sw (r2+4),r3
  106500:	f8 00 01 c9 	calli 106c24 <__malloc_unlock>
  106504:	35 61 00 08 	addi r1,r11,8
  106508:	e3 ff ff ab 	bi 1063b4 <_malloc_r+0xbc>
  10650c:	34 01 00 0c 	mvi r1,12
  106510:	59 c1 00 00 	sw (r14+0),r1
  106514:	34 01 00 00 	mvi r1,0
  106518:	e3 ff ff a7 	bi 1063b4 <_malloc_r+0xbc>
  10651c:	34 02 00 04 	mvi r2,4
  106520:	54 22 00 7b 	bgu r1,r2,10670c <_malloc_r+0x414>
  106524:	01 86 00 06 	srui r6,r12,6
  106528:	34 c6 00 38 	addi r6,r6,56
  10652c:	3c c4 00 03 	sli r4,r6,3
  106530:	e3 ff ff b1 	bi 1063f4 <_malloc_r+0xfc>
  106534:	34 02 01 ff 	mvi r2,511
  106538:	54 22 00 7a 	bgu r1,r2,106720 <_malloc_r+0x428>
  10653c:	00 21 00 03 	srui r1,r1,3
  106540:	29 a3 00 04 	lw r3,(r13+4)
  106544:	3c 22 00 03 	sli r2,r1,3
  106548:	14 21 00 02 	sri r1,r1,2
  10654c:	b5 a2 10 00 	add r2,r13,r2
  106550:	28 46 00 08 	lw r6,(r2+8)
  106554:	34 07 00 01 	mvi r7,1
  106558:	bc e1 08 00 	sl r1,r7,r1
  10655c:	59 62 00 0c 	sw (r11+12),r2
  106560:	b8 23 18 00 	or r3,r1,r3
  106564:	59 66 00 08 	sw (r11+8),r6
  106568:	59 a3 00 04 	sw (r13+4),r3
  10656c:	58 4b 00 08 	sw (r2+8),r11
  106570:	58 cb 00 0c 	sw (r6+12),r11
  106574:	14 a1 00 02 	sri r1,r5,2
  106578:	34 02 00 01 	mvi r2,1
  10657c:	bc 41 08 00 	sl r1,r2,r1
  106580:	54 23 00 34 	bgu r1,r3,106650 <_malloc_r+0x358>
  106584:	a0 61 10 00 	and r2,r3,r1
  106588:	5c 40 00 0b 	bne r2,r0,1065b4 <_malloc_r+0x2bc>
  10658c:	3c 21 00 01 	sli r1,r1,1
  106590:	34 06 ff fc 	mvi r6,-4
  106594:	a0 a6 28 00 	and r5,r5,r6
  106598:	a0 61 30 00 	and r6,r3,r1
  10659c:	34 a5 00 04 	addi r5,r5,4
  1065a0:	5c c2 00 05 	bne r6,r2,1065b4 <_malloc_r+0x2bc>
  1065a4:	3c 21 00 01 	sli r1,r1,1
  1065a8:	34 a5 00 04 	addi r5,r5,4
  1065ac:	a0 23 10 00 	and r2,r1,r3
  1065b0:	44 40 ff fd 	be r2,r0,1065a4 <_malloc_r+0x2ac>
  1065b4:	34 08 ff fc 	mvi r8,-4
  1065b8:	34 07 00 0f 	mvi r7,15
  1065bc:	3c aa 00 03 	sli r10,r5,3
  1065c0:	b8 a0 48 00 	mv r9,r5
  1065c4:	b5 aa 50 00 	add r10,r13,r10
  1065c8:	b9 40 30 00 	mv r6,r10
  1065cc:	28 cb 00 0c 	lw r11,(r6+12)
  1065d0:	44 cb 00 1b 	be r6,r11,10663c <_malloc_r+0x344>
  1065d4:	29 63 00 04 	lw r3,(r11+4)
  1065d8:	a1 03 18 00 	and r3,r8,r3
  1065dc:	c8 6c 10 00 	sub r2,r3,r12
  1065e0:	4c e2 00 08 	bge r7,r2,106600 <_malloc_r+0x308>
  1065e4:	29 63 00 0c 	lw r3,(r11+12)
  1065e8:	29 65 00 08 	lw r5,(r11+8)
  1065ec:	b5 6c 08 00 	add r1,r11,r12
  1065f0:	39 8c 00 01 	ori r12,r12,0x1
  1065f4:	58 a3 00 0c 	sw (r5+12),r3
  1065f8:	58 65 00 08 	sw (r3+8),r5
  1065fc:	e3 ff ff 9f 	bi 106478 <_malloc_r+0x180>
  106600:	48 02 00 0d 	bg r0,r2,106634 <_malloc_r+0x33c>
  106604:	b5 63 18 00 	add r3,r11,r3
  106608:	28 64 00 04 	lw r4,(r3+4)
  10660c:	29 61 00 0c 	lw r1,(r11+12)
  106610:	29 62 00 08 	lw r2,(r11+8)
  106614:	38 84 00 01 	ori r4,r4,0x1
  106618:	58 64 00 04 	sw (r3+4),r4
  10661c:	58 41 00 0c 	sw (r2+12),r1
  106620:	58 22 00 08 	sw (r1+8),r2
  106624:	b9 c0 08 00 	mv r1,r14
  106628:	f8 00 01 7f 	calli 106c24 <__malloc_unlock>
  10662c:	35 61 00 08 	addi r1,r11,8
  106630:	e3 ff ff 61 	bi 1063b4 <_malloc_r+0xbc>
  106634:	29 6b 00 0c 	lw r11,(r11+12)
  106638:	5c cb ff e7 	bne r6,r11,1065d4 <_malloc_r+0x2dc>
  10663c:	35 29 00 01 	addi r9,r9,1
  106640:	21 22 00 03 	andi r2,r9,0x3
  106644:	44 40 00 63 	be r2,r0,1067d0 <_malloc_r+0x4d8>
  106648:	34 c6 00 08 	addi r6,r6,8
  10664c:	e3 ff ff e0 	bi 1065cc <_malloc_r+0x2d4>
  106650:	29 ab 00 08 	lw r11,(r13+8)
  106654:	34 01 ff fc 	mvi r1,-4
  106658:	34 03 00 0f 	mvi r3,15
  10665c:	29 6f 00 04 	lw r15,(r11+4)
  106660:	a0 2f 78 00 	and r15,r1,r15
  106664:	c9 ec 08 00 	sub r1,r15,r12
  106668:	ec 61 18 00 	cmpge r3,r3,r1
  10666c:	f5 8f 10 00 	cmpgu r2,r12,r15
  106670:	b8 62 10 00 	or r2,r3,r2
  106674:	44 40 00 1c 	be r2,r0,1066e4 <_malloc_r+0x3ec>
  106678:	78 01 00 10 	mvhi r1,0x10
  10667c:	38 21 d7 a4 	ori r1,r1,0xd7a4
  106680:	78 11 00 10 	mvhi r17,0x10
  106684:	28 32 00 00 	lw r18,(r1+0)
  106688:	3a 31 d7 88 	ori r17,r17,0xd788
  10668c:	2a 22 00 00 	lw r2,(r17+0)
  106690:	36 52 00 10 	addi r18,r18,16
  106694:	34 01 ff ff 	mvi r1,-1
  106698:	b6 4c 90 00 	add r18,r18,r12
  10669c:	44 41 00 04 	be r2,r1,1066ac <_malloc_r+0x3b4>
  1066a0:	36 52 0f ff 	addi r18,r18,4095
  1066a4:	34 01 f0 00 	mvi r1,-4096
  1066a8:	a2 41 90 00 	and r18,r18,r1
  1066ac:	ba 40 10 00 	mv r2,r18
  1066b0:	b9 c0 08 00 	mv r1,r14
  1066b4:	f8 00 05 46 	calli 107bcc <_sbrk_r>
  1066b8:	34 02 ff ff 	mvi r2,-1
  1066bc:	b8 20 98 00 	mv r19,r1
  1066c0:	44 22 00 04 	be r1,r2,1066d0 <_malloc_r+0x3d8>
  1066c4:	b5 6f 10 00 	add r2,r11,r15
  1066c8:	50 22 00 50 	bgeu r1,r2,106808 <_malloc_r+0x510>
  1066cc:	45 6d 00 4f 	be r11,r13,106808 <_malloc_r+0x510>
  1066d0:	29 ab 00 08 	lw r11,(r13+8)
  1066d4:	34 01 ff fc 	mvi r1,-4
  1066d8:	29 62 00 04 	lw r2,(r11+4)
  1066dc:	a0 22 10 00 	and r2,r1,r2
  1066e0:	e0 00 00 74 	bi 1068b0 <_malloc_r+0x5b8>
  1066e4:	39 82 00 01 	ori r2,r12,0x1
  1066e8:	59 62 00 04 	sw (r11+4),r2
  1066ec:	b5 6c 60 00 	add r12,r11,r12
  1066f0:	38 21 00 01 	ori r1,r1,0x1
  1066f4:	59 81 00 04 	sw (r12+4),r1
  1066f8:	b9 c0 08 00 	mv r1,r14
  1066fc:	59 ac 00 08 	sw (r13+8),r12
  106700:	f8 00 01 49 	calli 106c24 <__malloc_unlock>
  106704:	35 61 00 08 	addi r1,r11,8
  106708:	e3 ff ff 2b 	bi 1063b4 <_malloc_r+0xbc>
  10670c:	34 02 00 14 	mvi r2,20
  106710:	54 22 00 20 	bgu r1,r2,106790 <_malloc_r+0x498>
  106714:	34 26 00 5b 	addi r6,r1,91
  106718:	3c c4 00 03 	sli r4,r6,3
  10671c:	e3 ff ff 36 	bi 1063f4 <_malloc_r+0xfc>
  106720:	00 22 00 09 	srui r2,r1,9
  106724:	34 03 00 04 	mvi r3,4
  106728:	54 43 00 26 	bgu r2,r3,1067c0 <_malloc_r+0x4c8>
  10672c:	00 26 00 06 	srui r6,r1,6
  106730:	34 c6 00 38 	addi r6,r6,56
  106734:	3c c3 00 03 	sli r3,r6,3
  106738:	b5 a3 18 00 	add r3,r13,r3
  10673c:	28 62 00 08 	lw r2,(r3+8)
  106740:	44 43 00 8c 	be r2,r3,106970 <_malloc_r+0x678>
  106744:	28 48 00 04 	lw r8,(r2+4)
  106748:	34 06 ff fc 	mvi r6,-4
  10674c:	34 07 ff fc 	mvi r7,-4
  106750:	a0 c8 30 00 	and r6,r6,r8
  106754:	54 c1 00 15 	bgu r6,r1,1067a8 <_malloc_r+0x4b0>
  106758:	28 41 00 0c 	lw r1,(r2+12)
  10675c:	59 61 00 0c 	sw (r11+12),r1
  106760:	59 62 00 08 	sw (r11+8),r2
  106764:	29 a3 00 04 	lw r3,(r13+4)
  106768:	58 2b 00 08 	sw (r1+8),r11
  10676c:	58 4b 00 0c 	sw (r2+12),r11
  106770:	e3 ff ff 81 	bi 106574 <_malloc_r+0x27c>
  106774:	29 a3 00 04 	lw r3,(r13+4)
  106778:	e3 ff ff 7f 	bi 106574 <_malloc_r+0x27c>
  10677c:	35 61 00 08 	addi r1,r11,8
  106780:	28 2b 00 0c 	lw r11,(r1+12)
  106784:	34 a5 00 02 	addi r5,r5,2
  106788:	44 2b ff 31 	be r1,r11,10644c <_malloc_r+0x154>
  10678c:	e3 ff fe fc 	bi 10637c <_malloc_r+0x84>
  106790:	34 02 00 54 	mvi r2,84
  106794:	54 22 00 51 	bgu r1,r2,1068d8 <_malloc_r+0x5e0>
  106798:	01 86 00 0c 	srui r6,r12,12
  10679c:	34 c6 00 6e 	addi r6,r6,110
  1067a0:	3c c4 00 03 	sli r4,r6,3
  1067a4:	e3 ff ff 14 	bi 1063f4 <_malloc_r+0xfc>
  1067a8:	28 42 00 08 	lw r2,(r2+8)
  1067ac:	44 62 ff eb 	be r3,r2,106758 <_malloc_r+0x460>
  1067b0:	28 46 00 04 	lw r6,(r2+4)
  1067b4:	a0 e6 30 00 	and r6,r7,r6
  1067b8:	54 c1 ff fc 	bgu r6,r1,1067a8 <_malloc_r+0x4b0>
  1067bc:	e3 ff ff e7 	bi 106758 <_malloc_r+0x460>
  1067c0:	34 03 00 14 	mvi r3,20
  1067c4:	54 43 00 7b 	bgu r2,r3,1069b0 <_malloc_r+0x6b8>
  1067c8:	34 46 00 5b 	addi r6,r2,91
  1067cc:	e3 ff ff da 	bi 106734 <_malloc_r+0x43c>
  1067d0:	20 a3 00 03 	andi r3,r5,0x3
  1067d4:	35 42 ff f8 	addi r2,r10,-8
  1067d8:	44 60 00 92 	be r3,r0,106a20 <_malloc_r+0x728>
  1067dc:	28 4a 00 08 	lw r10,(r2+8)
  1067e0:	34 a5 ff ff 	addi r5,r5,-1
  1067e4:	45 42 ff fb 	be r10,r2,1067d0 <_malloc_r+0x4d8>
  1067e8:	29 a2 00 04 	lw r2,(r13+4)
  1067ec:	3c 21 00 01 	sli r1,r1,1
  1067f0:	54 22 ff 98 	bgu r1,r2,106650 <_malloc_r+0x358>
  1067f4:	44 20 ff 97 	be r1,r0,106650 <_malloc_r+0x358>
  1067f8:	a0 22 18 00 	and r3,r1,r2
  1067fc:	44 60 00 8e 	be r3,r0,106a34 <_malloc_r+0x73c>
  106800:	b9 20 28 00 	mv r5,r9
  106804:	e3 ff ff 6e 	bi 1065bc <_malloc_r+0x2c4>
  106808:	78 10 00 10 	mvhi r16,0x10
  10680c:	3a 10 d7 b0 	ori r16,r16,0xd7b0
  106810:	2a 03 00 00 	lw r3,(r16+0)
  106814:	b6 43 18 00 	add r3,r18,r3
  106818:	5a 03 00 00 	sw (r16+0),r3
  10681c:	44 41 00 6f 	be r2,r1,1069d8 <_malloc_r+0x6e0>
  106820:	2a 25 00 00 	lw r5,(r17+0)
  106824:	34 04 ff ff 	mvi r4,-1
  106828:	44 a4 00 76 	be r5,r4,106a00 <_malloc_r+0x708>
  10682c:	b4 23 18 00 	add r3,r1,r3
  106830:	c8 62 10 00 	sub r2,r3,r2
  106834:	5a 02 00 00 	sw (r16+0),r2
  106838:	20 23 00 07 	andi r3,r1,0x7
  10683c:	34 02 10 00 	mvi r2,4096
  106840:	44 60 00 05 	be r3,r0,106854 <_malloc_r+0x55c>
  106844:	34 02 00 08 	mvi r2,8
  106848:	c8 43 10 00 	sub r2,r2,r3
  10684c:	b4 22 98 00 	add r19,r1,r2
  106850:	34 42 10 00 	addi r2,r2,4096
  106854:	b6 72 88 00 	add r17,r19,r18
  106858:	22 31 0f ff 	andi r17,r17,0xfff
  10685c:	c8 51 88 00 	sub r17,r2,r17
  106860:	ba 20 10 00 	mv r2,r17
  106864:	b9 c0 08 00 	mv r1,r14
  106868:	f8 00 04 d9 	calli 107bcc <_sbrk_r>
  10686c:	34 02 ff ff 	mvi r2,-1
  106870:	44 22 00 61 	be r1,r2,1069f4 <_malloc_r+0x6fc>
  106874:	c8 33 08 00 	sub r1,r1,r19
  106878:	b4 31 08 00 	add r1,r1,r17
  10687c:	38 21 00 01 	ori r1,r1,0x1
  106880:	2a 03 00 00 	lw r3,(r16+0)
  106884:	59 b3 00 08 	sw (r13+8),r19
  106888:	5a 61 00 04 	sw (r19+4),r1
  10688c:	b6 23 18 00 	add r3,r17,r3
  106890:	5a 03 00 00 	sw (r16+0),r3
  106894:	45 6d 00 27 	be r11,r13,106930 <_malloc_r+0x638>
  106898:	34 02 00 0f 	mvi r2,15
  10689c:	55 e2 00 15 	bgu r15,r2,1068f0 <_malloc_r+0x5f8>
  1068a0:	34 01 00 01 	mvi r1,1
  1068a4:	5a 61 00 04 	sw (r19+4),r1
  1068a8:	ba 60 58 00 	mv r11,r19
  1068ac:	34 02 00 00 	mvi r2,0
  1068b0:	c8 4c 08 00 	sub r1,r2,r12
  1068b4:	34 03 00 0f 	mvi r3,15
  1068b8:	ec 61 18 00 	cmpge r3,r3,r1
  1068bc:	f5 82 10 00 	cmpgu r2,r12,r2
  1068c0:	b8 62 10 00 	or r2,r3,r2
  1068c4:	44 40 ff 88 	be r2,r0,1066e4 <_malloc_r+0x3ec>
  1068c8:	b9 c0 08 00 	mv r1,r14
  1068cc:	f8 00 00 d6 	calli 106c24 <__malloc_unlock>
  1068d0:	34 01 00 00 	mvi r1,0
  1068d4:	e3 ff fe b8 	bi 1063b4 <_malloc_r+0xbc>
  1068d8:	34 02 01 54 	mvi r2,340
  1068dc:	54 22 00 2d 	bgu r1,r2,106990 <_malloc_r+0x698>
  1068e0:	01 86 00 0f 	srui r6,r12,15
  1068e4:	34 c6 00 77 	addi r6,r6,119
  1068e8:	3c c4 00 03 	sli r4,r6,3
  1068ec:	e3 ff fe c2 	bi 1063f4 <_malloc_r+0xfc>
  1068f0:	35 ef ff f4 	addi r15,r15,-12
  1068f4:	34 01 ff f8 	mvi r1,-8
  1068f8:	a1 e1 08 00 	and r1,r15,r1
  1068fc:	b5 61 20 00 	add r4,r11,r1
  106900:	34 05 00 05 	mvi r5,5
  106904:	58 85 00 04 	sw (r4+4),r5
  106908:	58 85 00 08 	sw (r4+8),r5
  10690c:	29 64 00 04 	lw r4,(r11+4)
  106910:	20 84 00 01 	andi r4,r4,0x1
  106914:	b8 24 20 00 	or r4,r1,r4
  106918:	59 64 00 04 	sw (r11+4),r4
  10691c:	50 41 00 05 	bgeu r2,r1,106930 <_malloc_r+0x638>
  106920:	b9 c0 08 00 	mv r1,r14
  106924:	35 62 00 08 	addi r2,r11,8
  106928:	fb ff fc cc 	calli 105c58 <_free_r>
  10692c:	2a 03 00 00 	lw r3,(r16+0)
  106930:	78 01 00 10 	mvhi r1,0x10
  106934:	38 21 d7 a8 	ori r1,r1,0xd7a8
  106938:	28 22 00 00 	lw r2,(r1+0)
  10693c:	50 43 00 02 	bgeu r2,r3,106944 <_malloc_r+0x64c>
  106940:	58 23 00 00 	sw (r1+0),r3
  106944:	78 01 00 10 	mvhi r1,0x10
  106948:	38 21 d7 ac 	ori r1,r1,0xd7ac
  10694c:	28 22 00 00 	lw r2,(r1+0)
  106950:	54 62 00 02 	bgu r3,r2,106958 <_malloc_r+0x660>
  106954:	e3 ff ff 5f 	bi 1066d0 <_malloc_r+0x3d8>
  106958:	29 ab 00 08 	lw r11,(r13+8)
  10695c:	58 23 00 00 	sw (r1+0),r3
  106960:	34 01 ff fc 	mvi r1,-4
  106964:	29 62 00 04 	lw r2,(r11+4)
  106968:	a0 22 10 00 	and r2,r1,r2
  10696c:	e3 ff ff d1 	bi 1068b0 <_malloc_r+0x5b8>
  106970:	14 c6 00 02 	sri r6,r6,2
  106974:	29 a7 00 04 	lw r7,(r13+4)
  106978:	34 01 00 01 	mvi r1,1
  10697c:	bc 26 18 00 	sl r3,r1,r6
  106980:	b8 40 08 00 	mv r1,r2
  106984:	b8 e3 18 00 	or r3,r7,r3
  106988:	59 a3 00 04 	sw (r13+4),r3
  10698c:	e3 ff ff 74 	bi 10675c <_malloc_r+0x464>
  106990:	34 02 05 54 	mvi r2,1364
  106994:	34 04 03 f0 	mvi r4,1008
  106998:	34 06 00 7e 	mvi r6,126
  10699c:	54 22 fe 96 	bgu r1,r2,1063f4 <_malloc_r+0xfc>
  1069a0:	01 86 00 12 	srui r6,r12,18
  1069a4:	34 c6 00 7c 	addi r6,r6,124
  1069a8:	3c c4 00 03 	sli r4,r6,3
  1069ac:	e3 ff fe 92 	bi 1063f4 <_malloc_r+0xfc>
  1069b0:	34 03 00 54 	mvi r3,84
  1069b4:	54 43 00 04 	bgu r2,r3,1069c4 <_malloc_r+0x6cc>
  1069b8:	00 26 00 0c 	srui r6,r1,12
  1069bc:	34 c6 00 6e 	addi r6,r6,110
  1069c0:	e3 ff ff 5d 	bi 106734 <_malloc_r+0x43c>
  1069c4:	34 03 01 54 	mvi r3,340
  1069c8:	54 43 00 10 	bgu r2,r3,106a08 <_malloc_r+0x710>
  1069cc:	00 26 00 0f 	srui r6,r1,15
  1069d0:	34 c6 00 77 	addi r6,r6,119
  1069d4:	e3 ff ff 58 	bi 106734 <_malloc_r+0x43c>
  1069d8:	20 44 0f ff 	andi r4,r2,0xfff
  1069dc:	5c 80 ff 91 	bne r4,r0,106820 <_malloc_r+0x528>
  1069e0:	29 a2 00 08 	lw r2,(r13+8)
  1069e4:	b6 4f 08 00 	add r1,r18,r15
  1069e8:	38 21 00 01 	ori r1,r1,0x1
  1069ec:	58 41 00 04 	sw (r2+4),r1
  1069f0:	e3 ff ff d0 	bi 106930 <_malloc_r+0x638>
  1069f4:	34 01 00 01 	mvi r1,1
  1069f8:	34 11 00 00 	mvi r17,0
  1069fc:	e3 ff ff a1 	bi 106880 <_malloc_r+0x588>
  106a00:	5a 21 00 00 	sw (r17+0),r1
  106a04:	e3 ff ff 8d 	bi 106838 <_malloc_r+0x540>
  106a08:	34 03 05 54 	mvi r3,1364
  106a0c:	34 06 00 7e 	mvi r6,126
  106a10:	54 43 ff 49 	bgu r2,r3,106734 <_malloc_r+0x43c>
  106a14:	00 26 00 12 	srui r6,r1,18
  106a18:	34 c6 00 7c 	addi r6,r6,124
  106a1c:	e3 ff ff 46 	bi 106734 <_malloc_r+0x43c>
  106a20:	29 a3 00 04 	lw r3,(r13+4)
  106a24:	a4 20 10 00 	not r2,r1
  106a28:	a0 62 10 00 	and r2,r3,r2
  106a2c:	59 a2 00 04 	sw (r13+4),r2
  106a30:	e3 ff ff 6e 	bi 1067e8 <_malloc_r+0x4f0>
  106a34:	3c 21 00 01 	sli r1,r1,1
  106a38:	35 29 00 04 	addi r9,r9,4
  106a3c:	e3 ff ff 6f 	bi 1067f8 <_malloc_r+0x500>

00106a40 <memchr>:
  106a40:	20 24 00 03 	andi r4,r1,0x3
  106a44:	20 42 00 ff 	andi r2,r2,0xff
  106a48:	44 80 00 0f 	be r4,r0,106a84 <memchr+0x44>
  106a4c:	34 04 00 00 	mvi r4,0
  106a50:	44 60 00 31 	be r3,r0,106b14 <memchr+0xd4>
  106a54:	40 25 00 00 	lbu r5,(r1+0)
  106a58:	b8 20 20 00 	mv r4,r1
  106a5c:	34 63 ff ff 	addi r3,r3,-1
  106a60:	5c a2 00 06 	bne r5,r2,106a78 <memchr+0x38>
  106a64:	e0 00 00 2c 	bi 106b14 <memchr+0xd4>
  106a68:	44 60 00 2a 	be r3,r0,106b10 <memchr+0xd0>
  106a6c:	40 24 00 00 	lbu r4,(r1+0)
  106a70:	34 63 ff ff 	addi r3,r3,-1
  106a74:	44 82 00 2a 	be r4,r2,106b1c <memchr+0xdc>
  106a78:	34 21 00 01 	addi r1,r1,1
  106a7c:	20 24 00 03 	andi r4,r1,0x3
  106a80:	5c 80 ff fa 	bne r4,r0,106a68 <memchr+0x28>
  106a84:	34 04 00 03 	mvi r4,3
  106a88:	50 83 00 16 	bgeu r4,r3,106ae0 <memchr+0xa0>
  106a8c:	78 05 00 10 	mvhi r5,0x10
  106a90:	38 a5 cb 00 	ori r5,r5,0xcb00
  106a94:	3c 44 00 08 	sli r4,r2,8
  106a98:	28 a8 00 00 	lw r8,(r5+0)
  106a9c:	78 05 00 10 	mvhi r5,0x10
  106aa0:	b8 82 20 00 	or r4,r4,r2
  106aa4:	38 a5 cb 04 	ori r5,r5,0xcb04
  106aa8:	3c 86 00 10 	sli r6,r4,16
  106aac:	28 a7 00 00 	lw r7,(r5+0)
  106ab0:	b8 c4 30 00 	or r6,r6,r4
  106ab4:	34 09 00 03 	mvi r9,3
  106ab8:	28 24 00 00 	lw r4,(r1+0)
  106abc:	98 c4 20 00 	xor r4,r6,r4
  106ac0:	b4 88 28 00 	add r5,r4,r8
  106ac4:	a4 80 20 00 	not r4,r4
  106ac8:	a0 a4 20 00 	and r4,r5,r4
  106acc:	a0 87 20 00 	and r4,r4,r7
  106ad0:	5c 80 00 04 	bne r4,r0,106ae0 <memchr+0xa0>
  106ad4:	34 63 ff fc 	addi r3,r3,-4
  106ad8:	34 21 00 04 	addi r1,r1,4
  106adc:	54 69 ff f7 	bgu r3,r9,106ab8 <memchr+0x78>
  106ae0:	34 04 00 00 	mvi r4,0
  106ae4:	44 60 00 0c 	be r3,r0,106b14 <memchr+0xd4>
  106ae8:	40 25 00 00 	lbu r5,(r1+0)
  106aec:	b8 20 20 00 	mv r4,r1
  106af0:	34 63 ff ff 	addi r3,r3,-1
  106af4:	5c a2 00 05 	bne r5,r2,106b08 <memchr+0xc8>
  106af8:	e0 00 00 07 	bi 106b14 <memchr+0xd4>
  106afc:	40 24 00 00 	lbu r4,(r1+0)
  106b00:	34 63 ff ff 	addi r3,r3,-1
  106b04:	44 82 00 06 	be r4,r2,106b1c <memchr+0xdc>
  106b08:	34 21 00 01 	addi r1,r1,1
  106b0c:	5c 60 ff fc 	bne r3,r0,106afc <memchr+0xbc>
  106b10:	34 04 00 00 	mvi r4,0
  106b14:	b8 80 08 00 	mv r1,r4
  106b18:	c3 a0 00 00 	ret
  106b1c:	b8 20 20 00 	mv r4,r1
  106b20:	b8 80 08 00 	mv r1,r4
  106b24:	c3 a0 00 00 	ret

00106b28 <memcpy>:
  106b28:	34 04 00 0f 	mvi r4,15
  106b2c:	b8 20 30 00 	mv r6,r1
  106b30:	b8 40 38 00 	mv r7,r2
  106b34:	b8 60 28 00 	mv r5,r3
  106b38:	50 83 00 04 	bgeu r4,r3,106b48 <memcpy+0x20>
  106b3c:	b8 41 20 00 	or r4,r2,r1
  106b40:	20 84 00 03 	andi r4,r4,0x3
  106b44:	44 80 00 0a 	be r4,r0,106b6c <memcpy+0x44>
  106b48:	44 a0 00 08 	be r5,r0,106b68 <memcpy+0x40>
  106b4c:	34 02 00 00 	mvi r2,0
  106b50:	b4 e2 18 00 	add r3,r7,r2
  106b54:	40 64 00 00 	lbu r4,(r3+0)
  106b58:	b4 c2 18 00 	add r3,r6,r2
  106b5c:	34 42 00 01 	addi r2,r2,1
  106b60:	30 64 00 00 	sb (r3+0),r4
  106b64:	5c 45 ff fb 	bne r2,r5,106b50 <memcpy+0x28>
  106b68:	c3 a0 00 00 	ret
  106b6c:	b8 60 30 00 	mv r6,r3
  106b70:	b8 40 20 00 	mv r4,r2
  106b74:	b8 20 28 00 	mv r5,r1
  106b78:	34 07 00 0f 	mvi r7,15
  106b7c:	28 88 00 00 	lw r8,(r4+0)
  106b80:	34 c6 ff f0 	addi r6,r6,-16
  106b84:	58 a8 00 00 	sw (r5+0),r8
  106b88:	28 88 00 04 	lw r8,(r4+4)
  106b8c:	58 a8 00 04 	sw (r5+4),r8
  106b90:	28 88 00 08 	lw r8,(r4+8)
  106b94:	58 a8 00 08 	sw (r5+8),r8
  106b98:	28 88 00 0c 	lw r8,(r4+12)
  106b9c:	34 84 00 10 	addi r4,r4,16
  106ba0:	58 a8 00 0c 	sw (r5+12),r8
  106ba4:	34 a5 00 10 	addi r5,r5,16
  106ba8:	54 c7 ff f5 	bgu r6,r7,106b7c <memcpy+0x54>
  106bac:	34 63 ff f0 	addi r3,r3,-16
  106bb0:	00 64 00 04 	srui r4,r3,4
  106bb4:	34 87 00 01 	addi r7,r4,1
  106bb8:	3c e7 00 04 	sli r7,r7,4
  106bbc:	3c 84 00 04 	sli r4,r4,4
  106bc0:	b4 27 30 00 	add r6,r1,r7
  106bc4:	c8 64 18 00 	sub r3,r3,r4
  106bc8:	b4 47 38 00 	add r7,r2,r7
  106bcc:	34 02 00 03 	mvi r2,3
  106bd0:	b8 60 28 00 	mv r5,r3
  106bd4:	50 43 ff dd 	bgeu r2,r3,106b48 <memcpy+0x20>
  106bd8:	34 02 00 00 	mvi r2,0
  106bdc:	34 08 00 03 	mvi r8,3
  106be0:	b4 e2 20 00 	add r4,r7,r2
  106be4:	28 85 00 00 	lw r5,(r4+0)
  106be8:	b4 c2 20 00 	add r4,r6,r2
  106bec:	34 42 00 04 	addi r2,r2,4
  106bf0:	58 85 00 00 	sw (r4+0),r5
  106bf4:	c8 62 20 00 	sub r4,r3,r2
  106bf8:	54 88 ff fa 	bgu r4,r8,106be0 <memcpy+0xb8>
  106bfc:	34 63 ff fc 	addi r3,r3,-4
  106c00:	00 65 00 02 	srui r5,r3,2
  106c04:	34 a2 00 01 	addi r2,r5,1
  106c08:	3c 42 00 02 	sli r2,r2,2
  106c0c:	3c a5 00 02 	sli r5,r5,2
  106c10:	b4 c2 30 00 	add r6,r6,r2
  106c14:	b4 e2 38 00 	add r7,r7,r2
  106c18:	c8 65 28 00 	sub r5,r3,r5
  106c1c:	e3 ff ff cb 	bi 106b48 <memcpy+0x20>

00106c20 <__malloc_lock>:
  106c20:	c3 a0 00 00 	ret

00106c24 <__malloc_unlock>:
  106c24:	c3 a0 00 00 	ret

00106c28 <_Balloc>:
  106c28:	37 9c ff f0 	addi sp,sp,-16
  106c2c:	5b 8b 00 10 	sw (sp+16),r11
  106c30:	5b 8c 00 0c 	sw (sp+12),r12
  106c34:	5b 8d 00 08 	sw (sp+8),r13
  106c38:	5b 9d 00 04 	sw (sp+4),ra
  106c3c:	28 23 00 4c 	lw r3,(r1+76)
  106c40:	b8 20 60 00 	mv r12,r1
  106c44:	b8 40 58 00 	mv r11,r2
  106c48:	44 60 00 0f 	be r3,r0,106c84 <_Balloc+0x5c>
  106c4c:	3d 61 00 02 	sli r1,r11,2
  106c50:	b4 61 18 00 	add r3,r3,r1
  106c54:	28 61 00 00 	lw r1,(r3+0)
  106c58:	44 20 00 13 	be r1,r0,106ca4 <_Balloc+0x7c>
  106c5c:	28 22 00 00 	lw r2,(r1+0)
  106c60:	58 62 00 00 	sw (r3+0),r2
  106c64:	58 20 00 10 	sw (r1+16),r0
  106c68:	58 20 00 0c 	sw (r1+12),r0
  106c6c:	2b 9d 00 04 	lw ra,(sp+4)
  106c70:	2b 8b 00 10 	lw r11,(sp+16)
  106c74:	2b 8c 00 0c 	lw r12,(sp+12)
  106c78:	2b 8d 00 08 	lw r13,(sp+8)
  106c7c:	37 9c 00 10 	addi sp,sp,16
  106c80:	c3 a0 00 00 	ret
  106c84:	34 03 00 21 	mvi r3,33
  106c88:	34 02 00 04 	mvi r2,4
  106c8c:	f8 00 08 81 	calli 108e90 <_calloc_r>
  106c90:	b8 20 18 00 	mv r3,r1
  106c94:	59 81 00 4c 	sw (r12+76),r1
  106c98:	34 01 00 00 	mvi r1,0
  106c9c:	5c 60 ff ec 	bne r3,r0,106c4c <_Balloc+0x24>
  106ca0:	e3 ff ff f3 	bi 106c6c <_Balloc+0x44>
  106ca4:	34 0d 00 01 	mvi r13,1
  106ca8:	bd ab 68 00 	sl r13,r13,r11
  106cac:	b9 80 08 00 	mv r1,r12
  106cb0:	35 a3 00 05 	addi r3,r13,5
  106cb4:	3c 63 00 02 	sli r3,r3,2
  106cb8:	34 02 00 01 	mvi r2,1
  106cbc:	f8 00 08 75 	calli 108e90 <_calloc_r>
  106cc0:	44 20 ff eb 	be r1,r0,106c6c <_Balloc+0x44>
  106cc4:	58 2b 00 04 	sw (r1+4),r11
  106cc8:	58 2d 00 08 	sw (r1+8),r13
  106ccc:	e3 ff ff e6 	bi 106c64 <_Balloc+0x3c>

00106cd0 <_Bfree>:
  106cd0:	44 40 00 08 	be r2,r0,106cf0 <_Bfree+0x20>
  106cd4:	28 44 00 04 	lw r4,(r2+4)
  106cd8:	28 23 00 4c 	lw r3,(r1+76)
  106cdc:	3c 81 00 02 	sli r1,r4,2
  106ce0:	b4 61 08 00 	add r1,r3,r1
  106ce4:	28 23 00 00 	lw r3,(r1+0)
  106ce8:	58 43 00 00 	sw (r2+0),r3
  106cec:	58 22 00 00 	sw (r1+0),r2
  106cf0:	c3 a0 00 00 	ret

00106cf4 <__multadd>:
  106cf4:	37 9c ff e8 	addi sp,sp,-24
  106cf8:	5b 8b 00 14 	sw (sp+20),r11
  106cfc:	5b 8c 00 10 	sw (sp+16),r12
  106d00:	5b 8d 00 0c 	sw (sp+12),r13
  106d04:	5b 8e 00 08 	sw (sp+8),r14
  106d08:	5b 9d 00 04 	sw (sp+4),ra
  106d0c:	28 4c 00 10 	lw r12,(r2+16)
  106d10:	b8 40 58 00 	mv r11,r2
  106d14:	b8 20 68 00 	mv r13,r1
  106d18:	34 45 00 14 	addi r5,r2,20
  106d1c:	34 06 00 00 	mvi r6,0
  106d20:	28 a2 00 00 	lw r2,(r5+0)
  106d24:	34 c6 00 01 	addi r6,r6,1
  106d28:	20 47 ff ff 	andi r7,r2,0xffff
  106d2c:	88 67 38 00 	mul r7,r3,r7
  106d30:	00 42 00 10 	srui r2,r2,16
  106d34:	b4 87 38 00 	add r7,r4,r7
  106d38:	88 62 20 00 	mul r4,r3,r2
  106d3c:	00 e2 00 10 	srui r2,r7,16
  106d40:	20 e7 ff ff 	andi r7,r7,0xffff
  106d44:	b4 44 20 00 	add r4,r2,r4
  106d48:	3c 82 00 10 	sli r2,r4,16
  106d4c:	00 84 00 10 	srui r4,r4,16
  106d50:	b4 47 38 00 	add r7,r2,r7
  106d54:	58 a7 00 00 	sw (r5+0),r7
  106d58:	34 a5 00 04 	addi r5,r5,4
  106d5c:	49 86 ff f1 	bg r12,r6,106d20 <__multadd+0x2c>
  106d60:	44 80 00 1e 	be r4,r0,106dd8 <__multadd+0xe4>
  106d64:	29 61 00 08 	lw r1,(r11+8)
  106d68:	48 2c 00 16 	bg r1,r12,106dc0 <__multadd+0xcc>
  106d6c:	29 62 00 04 	lw r2,(r11+4)
  106d70:	b9 a0 08 00 	mv r1,r13
  106d74:	5b 84 00 18 	sw (sp+24),r4
  106d78:	34 42 00 01 	addi r2,r2,1
  106d7c:	fb ff ff ab 	calli 106c28 <_Balloc>
  106d80:	29 63 00 10 	lw r3,(r11+16)
  106d84:	35 62 00 0c 	addi r2,r11,12
  106d88:	b8 20 70 00 	mv r14,r1
  106d8c:	34 63 00 02 	addi r3,r3,2
  106d90:	3c 63 00 02 	sli r3,r3,2
  106d94:	34 21 00 0c 	addi r1,r1,12
  106d98:	fb ff ff 64 	calli 106b28 <memcpy>
  106d9c:	29 61 00 04 	lw r1,(r11+4)
  106da0:	29 a2 00 4c 	lw r2,(r13+76)
  106da4:	2b 84 00 18 	lw r4,(sp+24)
  106da8:	3c 21 00 02 	sli r1,r1,2
  106dac:	b4 41 10 00 	add r2,r2,r1
  106db0:	28 41 00 00 	lw r1,(r2+0)
  106db4:	59 61 00 00 	sw (r11+0),r1
  106db8:	58 4b 00 00 	sw (r2+0),r11
  106dbc:	b9 c0 58 00 	mv r11,r14
  106dc0:	35 81 00 04 	addi r1,r12,4
  106dc4:	3c 21 00 02 	sli r1,r1,2
  106dc8:	35 8c 00 01 	addi r12,r12,1
  106dcc:	b5 61 08 00 	add r1,r11,r1
  106dd0:	58 24 00 04 	sw (r1+4),r4
  106dd4:	59 6c 00 10 	sw (r11+16),r12
  106dd8:	b9 60 08 00 	mv r1,r11
  106ddc:	2b 9d 00 04 	lw ra,(sp+4)
  106de0:	2b 8b 00 14 	lw r11,(sp+20)
  106de4:	2b 8c 00 10 	lw r12,(sp+16)
  106de8:	2b 8d 00 0c 	lw r13,(sp+12)
  106dec:	2b 8e 00 08 	lw r14,(sp+8)
  106df0:	37 9c 00 18 	addi sp,sp,24
  106df4:	c3 a0 00 00 	ret

00106df8 <__s2b>:
  106df8:	37 9c ff e0 	addi sp,sp,-32
  106dfc:	5b 8b 00 20 	sw (sp+32),r11
  106e00:	5b 8c 00 1c 	sw (sp+28),r12
  106e04:	5b 8d 00 18 	sw (sp+24),r13
  106e08:	5b 8e 00 14 	sw (sp+20),r14
  106e0c:	5b 8f 00 10 	sw (sp+16),r15
  106e10:	5b 90 00 0c 	sw (sp+12),r16
  106e14:	5b 91 00 08 	sw (sp+8),r17
  106e18:	5b 9d 00 04 	sw (sp+4),ra
  106e1c:	b8 20 60 00 	mv r12,r1
  106e20:	b8 40 80 00 	mv r16,r2
  106e24:	34 81 00 08 	addi r1,r4,8
  106e28:	34 02 00 09 	mvi r2,9
  106e2c:	b8 60 78 00 	mv r15,r3
  106e30:	b8 80 68 00 	mv r13,r4
  106e34:	b8 a0 58 00 	mv r11,r5
  106e38:	f8 00 15 67 	calli 10c3d4 <__divsi3>
  106e3c:	34 03 00 01 	mvi r3,1
  106e40:	34 02 00 00 	mvi r2,0
  106e44:	4c 61 00 05 	bge r3,r1,106e58 <__s2b+0x60>
  106e48:	34 06 00 01 	mvi r6,1
  106e4c:	3c c6 00 01 	sli r6,r6,1
  106e50:	34 42 00 01 	addi r2,r2,1
  106e54:	48 26 ff fe 	bg r1,r6,106e4c <__s2b+0x54>
  106e58:	b9 80 08 00 	mv r1,r12
  106e5c:	fb ff ff 73 	calli 106c28 <_Balloc>
  106e60:	b8 20 10 00 	mv r2,r1
  106e64:	58 2b 00 14 	sw (r1+20),r11
  106e68:	34 01 00 01 	mvi r1,1
  106e6c:	58 41 00 10 	sw (r2+16),r1
  106e70:	34 01 00 09 	mvi r1,9
  106e74:	36 11 00 0a 	addi r17,r16,10
  106e78:	34 0e 00 09 	mvi r14,9
  106e7c:	4c 2f 00 0f 	bge r1,r15,106eb8 <__s2b+0xc0>
  106e80:	36 11 00 09 	addi r17,r16,9
  106e84:	34 0b 00 09 	mvi r11,9
  106e88:	b6 0b 08 00 	add r1,r16,r11
  106e8c:	40 24 00 00 	lbu r4,(r1+0)
  106e90:	34 03 00 0a 	mvi r3,10
  106e94:	b9 80 08 00 	mv r1,r12
  106e98:	34 84 ff d0 	addi r4,r4,-48
  106e9c:	fb ff ff 96 	calli 106cf4 <__multadd>
  106ea0:	35 6b 00 01 	addi r11,r11,1
  106ea4:	b8 20 10 00 	mv r2,r1
  106ea8:	49 eb ff f8 	bg r15,r11,106e88 <__s2b+0x90>
  106eac:	b6 2f 88 00 	add r17,r17,r15
  106eb0:	36 31 ff f8 	addi r17,r17,-8
  106eb4:	b9 e0 70 00 	mv r14,r15
  106eb8:	4d cd 00 0c 	bge r14,r13,106ee8 <__s2b+0xf0>
  106ebc:	34 0b 00 00 	mvi r11,0
  106ec0:	b6 2b 08 00 	add r1,r17,r11
  106ec4:	40 25 00 00 	lbu r5,(r1+0)
  106ec8:	34 03 00 0a 	mvi r3,10
  106ecc:	b9 80 08 00 	mv r1,r12
  106ed0:	34 a4 ff d0 	addi r4,r5,-48
  106ed4:	fb ff ff 88 	calli 106cf4 <__multadd>
  106ed8:	35 6b 00 01 	addi r11,r11,1
  106edc:	b8 20 10 00 	mv r2,r1
  106ee0:	b5 6e 08 00 	add r1,r11,r14
  106ee4:	49 a1 ff f7 	bg r13,r1,106ec0 <__s2b+0xc8>
  106ee8:	b8 40 08 00 	mv r1,r2
  106eec:	2b 9d 00 04 	lw ra,(sp+4)
  106ef0:	2b 8b 00 20 	lw r11,(sp+32)
  106ef4:	2b 8c 00 1c 	lw r12,(sp+28)
  106ef8:	2b 8d 00 18 	lw r13,(sp+24)
  106efc:	2b 8e 00 14 	lw r14,(sp+20)
  106f00:	2b 8f 00 10 	lw r15,(sp+16)
  106f04:	2b 90 00 0c 	lw r16,(sp+12)
  106f08:	2b 91 00 08 	lw r17,(sp+8)
  106f0c:	37 9c 00 20 	addi sp,sp,32
  106f10:	c3 a0 00 00 	ret

00106f14 <__hi0bits>:
  106f14:	78 03 ff ff 	mvhi r3,0xffff
  106f18:	a0 23 18 00 	and r3,r1,r3
  106f1c:	34 02 00 00 	mvi r2,0
  106f20:	5c 60 00 03 	bne r3,r0,106f2c <__hi0bits+0x18>
  106f24:	3c 21 00 10 	sli r1,r1,16
  106f28:	34 02 00 10 	mvi r2,16
  106f2c:	78 03 ff 00 	mvhi r3,0xff00
  106f30:	a0 23 18 00 	and r3,r1,r3
  106f34:	5c 60 00 03 	bne r3,r0,106f40 <__hi0bits+0x2c>
  106f38:	3c 21 00 08 	sli r1,r1,8
  106f3c:	34 42 00 08 	addi r2,r2,8
  106f40:	78 03 f0 00 	mvhi r3,0xf000
  106f44:	a0 23 18 00 	and r3,r1,r3
  106f48:	5c 60 00 03 	bne r3,r0,106f54 <__hi0bits+0x40>
  106f4c:	3c 21 00 04 	sli r1,r1,4
  106f50:	34 42 00 04 	addi r2,r2,4
  106f54:	78 03 c0 00 	mvhi r3,0xc000
  106f58:	a0 23 18 00 	and r3,r1,r3
  106f5c:	5c 60 00 03 	bne r3,r0,106f68 <__hi0bits+0x54>
  106f60:	3c 21 00 02 	sli r1,r1,2
  106f64:	34 42 00 02 	addi r2,r2,2
  106f68:	48 01 00 06 	bg r0,r1,106f80 <__hi0bits+0x6c>
  106f6c:	78 03 40 00 	mvhi r3,0x4000
  106f70:	a0 23 08 00 	and r1,r1,r3
  106f74:	34 42 00 01 	addi r2,r2,1
  106f78:	5c 20 00 02 	bne r1,r0,106f80 <__hi0bits+0x6c>
  106f7c:	34 02 00 20 	mvi r2,32
  106f80:	b8 40 08 00 	mv r1,r2
  106f84:	c3 a0 00 00 	ret

00106f88 <__lo0bits>:
  106f88:	28 22 00 00 	lw r2,(r1+0)
  106f8c:	b8 20 18 00 	mv r3,r1
  106f90:	20 41 00 07 	andi r1,r2,0x7
  106f94:	44 20 00 0c 	be r1,r0,106fc4 <__lo0bits+0x3c>
  106f98:	20 44 00 01 	andi r4,r2,0x1
  106f9c:	34 01 00 00 	mvi r1,0
  106fa0:	5c 80 00 08 	bne r4,r0,106fc0 <__lo0bits+0x38>
  106fa4:	20 44 00 02 	andi r4,r2,0x2
  106fa8:	5c 81 00 1f 	bne r4,r1,107024 <__lo0bits+0x9c>
  106fac:	00 42 00 02 	srui r2,r2,2
  106fb0:	34 01 00 02 	mvi r1,2
  106fb4:	58 62 00 00 	sw (r3+0),r2
  106fb8:	c3 a0 00 00 	ret
  106fbc:	34 01 00 20 	mvi r1,32
  106fc0:	c3 a0 00 00 	ret
  106fc4:	20 44 ff ff 	andi r4,r2,0xffff
  106fc8:	34 01 00 00 	mvi r1,0
  106fcc:	5c 81 00 03 	bne r4,r1,106fd8 <__lo0bits+0x50>
  106fd0:	00 42 00 10 	srui r2,r2,16
  106fd4:	34 01 00 10 	mvi r1,16
  106fd8:	20 44 00 ff 	andi r4,r2,0xff
  106fdc:	5c 80 00 03 	bne r4,r0,106fe8 <__lo0bits+0x60>
  106fe0:	00 42 00 08 	srui r2,r2,8
  106fe4:	34 21 00 08 	addi r1,r1,8
  106fe8:	20 44 00 0f 	andi r4,r2,0xf
  106fec:	5c 80 00 03 	bne r4,r0,106ff8 <__lo0bits+0x70>
  106ff0:	00 42 00 04 	srui r2,r2,4
  106ff4:	34 21 00 04 	addi r1,r1,4
  106ff8:	20 44 00 03 	andi r4,r2,0x3
  106ffc:	5c 80 00 03 	bne r4,r0,107008 <__lo0bits+0x80>
  107000:	00 42 00 02 	srui r2,r2,2
  107004:	34 21 00 02 	addi r1,r1,2
  107008:	20 44 00 01 	andi r4,r2,0x1
  10700c:	5c 80 00 04 	bne r4,r0,10701c <__lo0bits+0x94>
  107010:	00 42 00 01 	srui r2,r2,1
  107014:	44 44 ff ea 	be r2,r4,106fbc <__lo0bits+0x34>
  107018:	34 21 00 01 	addi r1,r1,1
  10701c:	58 62 00 00 	sw (r3+0),r2
  107020:	c3 a0 00 00 	ret
  107024:	00 42 00 01 	srui r2,r2,1
  107028:	34 01 00 01 	mvi r1,1
  10702c:	58 62 00 00 	sw (r3+0),r2
  107030:	c3 a0 00 00 	ret

00107034 <__i2b>:
  107034:	37 9c ff f8 	addi sp,sp,-8
  107038:	5b 8b 00 08 	sw (sp+8),r11
  10703c:	5b 9d 00 04 	sw (sp+4),ra
  107040:	b8 40 58 00 	mv r11,r2
  107044:	34 02 00 01 	mvi r2,1
  107048:	fb ff fe f8 	calli 106c28 <_Balloc>
  10704c:	34 02 00 01 	mvi r2,1
  107050:	58 2b 00 14 	sw (r1+20),r11
  107054:	58 22 00 10 	sw (r1+16),r2
  107058:	2b 9d 00 04 	lw ra,(sp+4)
  10705c:	2b 8b 00 08 	lw r11,(sp+8)
  107060:	37 9c 00 08 	addi sp,sp,8
  107064:	c3 a0 00 00 	ret

00107068 <__multiply>:
  107068:	37 9c ff e0 	addi sp,sp,-32
  10706c:	5b 8b 00 20 	sw (sp+32),r11
  107070:	5b 8c 00 1c 	sw (sp+28),r12
  107074:	5b 8d 00 18 	sw (sp+24),r13
  107078:	5b 8e 00 14 	sw (sp+20),r14
  10707c:	5b 8f 00 10 	sw (sp+16),r15
  107080:	5b 90 00 0c 	sw (sp+12),r16
  107084:	5b 91 00 08 	sw (sp+8),r17
  107088:	5b 9d 00 04 	sw (sp+4),ra
  10708c:	28 50 00 10 	lw r16,(r2+16)
  107090:	28 71 00 10 	lw r17,(r3+16)
  107094:	b8 40 78 00 	mv r15,r2
  107098:	b8 60 60 00 	mv r12,r3
  10709c:	4e 11 00 06 	bge r16,r17,1070b4 <__multiply+0x4c>
  1070a0:	ba 00 18 00 	mv r3,r16
  1070a4:	b9 80 78 00 	mv r15,r12
  1070a8:	ba 20 80 00 	mv r16,r17
  1070ac:	b8 40 60 00 	mv r12,r2
  1070b0:	b8 60 88 00 	mv r17,r3
  1070b4:	29 e2 00 08 	lw r2,(r15+8)
  1070b8:	29 e3 00 04 	lw r3,(r15+4)
  1070bc:	b6 30 58 00 	add r11,r17,r16
  1070c0:	e9 62 10 00 	cmpg r2,r11,r2
  1070c4:	35 6e 00 04 	addi r14,r11,4
  1070c8:	b4 62 10 00 	add r2,r3,r2
  1070cc:	3d ce 00 02 	sli r14,r14,2
  1070d0:	fb ff fe d6 	calli 106c28 <_Balloc>
  1070d4:	b4 2e 70 00 	add r14,r1,r14
  1070d8:	34 2d 00 14 	addi r13,r1,20
  1070dc:	35 ce 00 04 	addi r14,r14,4
  1070e0:	51 ae 00 05 	bgeu r13,r14,1070f4 <__multiply+0x8c>
  1070e4:	b9 a0 20 00 	mv r4,r13
  1070e8:	58 80 00 00 	sw (r4+0),r0
  1070ec:	34 84 00 04 	addi r4,r4,4
  1070f0:	55 c4 ff fe 	bgu r14,r4,1070e8 <__multiply+0x80>
  1070f4:	36 31 00 04 	addi r17,r17,4
  1070f8:	36 08 00 04 	addi r8,r16,4
  1070fc:	3e 30 00 02 	sli r16,r17,2
  107100:	3d 08 00 02 	sli r8,r8,2
  107104:	b5 90 80 00 	add r16,r12,r16
  107108:	b5 e8 40 00 	add r8,r15,r8
  10710c:	35 8c 00 14 	addi r12,r12,20
  107110:	36 10 00 04 	addi r16,r16,4
  107114:	35 ef 00 14 	addi r15,r15,20
  107118:	35 08 00 04 	addi r8,r8,4
  10711c:	51 90 00 3e 	bgeu r12,r16,107214 <__multiply+0x1ac>
  107120:	29 86 00 00 	lw r6,(r12+0)
  107124:	20 c4 ff ff 	andi r4,r6,0xffff
  107128:	44 80 00 1b 	be r4,r0,107194 <__multiply+0x12c>
  10712c:	b9 a0 10 00 	mv r2,r13
  107130:	b9 e0 18 00 	mv r3,r15
  107134:	34 05 00 00 	mvi r5,0
  107138:	28 67 00 00 	lw r7,(r3+0)
  10713c:	28 4a 00 00 	lw r10,(r2+0)
  107140:	34 63 00 04 	addi r3,r3,4
  107144:	20 e9 ff ff 	andi r9,r7,0xffff
  107148:	89 24 48 00 	mul r9,r9,r4
  10714c:	00 e6 00 10 	srui r6,r7,16
  107150:	21 47 ff ff 	andi r7,r10,0xffff
  107154:	b5 27 48 00 	add r9,r9,r7
  107158:	88 c4 30 00 	mul r6,r6,r4
  10715c:	b5 25 28 00 	add r5,r9,r5
  107160:	01 4a 00 10 	srui r10,r10,16
  107164:	00 a9 00 10 	srui r9,r5,16
  107168:	b4 ca 30 00 	add r6,r6,r10
  10716c:	b4 c9 30 00 	add r6,r6,r9
  107170:	3c c7 00 10 	sli r7,r6,16
  107174:	20 a5 ff ff 	andi r5,r5,0xffff
  107178:	b8 e5 28 00 	or r5,r7,r5
  10717c:	58 45 00 00 	sw (r2+0),r5
  107180:	00 c5 00 10 	srui r5,r6,16
  107184:	34 42 00 04 	addi r2,r2,4
  107188:	55 03 ff ec 	bgu r8,r3,107138 <__multiply+0xd0>
  10718c:	58 45 00 00 	sw (r2+0),r5
  107190:	29 86 00 00 	lw r6,(r12+0)
  107194:	00 c6 00 10 	srui r6,r6,16
  107198:	44 c0 00 1b 	be r6,r0,107204 <__multiply+0x19c>
  10719c:	29 a4 00 00 	lw r4,(r13+0)
  1071a0:	b9 a0 18 00 	mv r3,r13
  1071a4:	b9 e0 10 00 	mv r2,r15
  1071a8:	b8 80 28 00 	mv r5,r4
  1071ac:	34 07 00 00 	mvi r7,0
  1071b0:	2c 49 00 02 	lhu r9,(r2+2)
  1071b4:	00 a5 00 10 	srui r5,r5,16
  1071b8:	20 84 ff ff 	andi r4,r4,0xffff
  1071bc:	88 c9 48 00 	mul r9,r6,r9
  1071c0:	b4 e9 38 00 	add r7,r7,r9
  1071c4:	b4 e5 28 00 	add r5,r7,r5
  1071c8:	3c a9 00 10 	sli r9,r5,16
  1071cc:	00 a7 00 10 	srui r7,r5,16
  1071d0:	b9 24 20 00 	or r4,r9,r4
  1071d4:	58 64 00 00 	sw (r3+0),r4
  1071d8:	2c 44 00 00 	lhu r4,(r2+0)
  1071dc:	34 63 00 04 	addi r3,r3,4
  1071e0:	28 65 00 00 	lw r5,(r3+0)
  1071e4:	88 c4 20 00 	mul r4,r6,r4
  1071e8:	34 42 00 04 	addi r2,r2,4
  1071ec:	20 a9 ff ff 	andi r9,r5,0xffff
  1071f0:	b4 89 20 00 	add r4,r4,r9
  1071f4:	b4 87 20 00 	add r4,r4,r7
  1071f8:	00 87 00 10 	srui r7,r4,16
  1071fc:	55 02 ff ed 	bgu r8,r2,1071b0 <__multiply+0x148>
  107200:	58 64 00 00 	sw (r3+0),r4
  107204:	35 8c 00 04 	addi r12,r12,4
  107208:	51 90 00 03 	bgeu r12,r16,107214 <__multiply+0x1ac>
  10720c:	35 ad 00 04 	addi r13,r13,4
  107210:	e3 ff ff c4 	bi 107120 <__multiply+0xb8>
  107214:	4c 0b 00 09 	bge r0,r11,107238 <__multiply+0x1d0>
  107218:	29 c3 ff fc 	lw r3,(r14+-4)
  10721c:	35 c2 ff fc 	addi r2,r14,-4
  107220:	5c 60 00 06 	bne r3,r0,107238 <__multiply+0x1d0>
  107224:	35 6b ff ff 	addi r11,r11,-1
  107228:	34 42 ff fc 	addi r2,r2,-4
  10722c:	4c 0b 00 03 	bge r0,r11,107238 <__multiply+0x1d0>
  107230:	28 43 00 00 	lw r3,(r2+0)
  107234:	44 60 ff fc 	be r3,r0,107224 <__multiply+0x1bc>
  107238:	58 2b 00 10 	sw (r1+16),r11
  10723c:	2b 9d 00 04 	lw ra,(sp+4)
  107240:	2b 8b 00 20 	lw r11,(sp+32)
  107244:	2b 8c 00 1c 	lw r12,(sp+28)
  107248:	2b 8d 00 18 	lw r13,(sp+24)
  10724c:	2b 8e 00 14 	lw r14,(sp+20)
  107250:	2b 8f 00 10 	lw r15,(sp+16)
  107254:	2b 90 00 0c 	lw r16,(sp+12)
  107258:	2b 91 00 08 	lw r17,(sp+8)
  10725c:	37 9c 00 20 	addi sp,sp,32
  107260:	c3 a0 00 00 	ret

00107264 <__pow5mult>:
  107264:	37 9c ff ec 	addi sp,sp,-20
  107268:	5b 8b 00 14 	sw (sp+20),r11
  10726c:	5b 8c 00 10 	sw (sp+16),r12
  107270:	5b 8d 00 0c 	sw (sp+12),r13
  107274:	5b 8e 00 08 	sw (sp+8),r14
  107278:	5b 9d 00 04 	sw (sp+4),ra
  10727c:	b8 60 58 00 	mv r11,r3
  107280:	20 63 00 03 	andi r3,r3,0x3
  107284:	b8 20 70 00 	mv r14,r1
  107288:	b8 40 68 00 	mv r13,r2
  10728c:	5c 60 00 2e 	bne r3,r0,107344 <__pow5mult+0xe0>
  107290:	15 6b 00 02 	sri r11,r11,2
  107294:	45 60 00 1a 	be r11,r0,1072fc <__pow5mult+0x98>
  107298:	29 cc 00 48 	lw r12,(r14+72)
  10729c:	5d 80 00 07 	bne r12,r0,1072b8 <__pow5mult+0x54>
  1072a0:	e0 00 00 33 	bi 10736c <__pow5mult+0x108>
  1072a4:	15 6b 00 01 	sri r11,r11,1
  1072a8:	45 60 00 15 	be r11,r0,1072fc <__pow5mult+0x98>
  1072ac:	29 82 00 00 	lw r2,(r12+0)
  1072b0:	44 40 00 1b 	be r2,r0,10731c <__pow5mult+0xb8>
  1072b4:	b8 40 60 00 	mv r12,r2
  1072b8:	21 62 00 01 	andi r2,r11,0x1
  1072bc:	44 40 ff fa 	be r2,r0,1072a4 <__pow5mult+0x40>
  1072c0:	b9 a0 10 00 	mv r2,r13
  1072c4:	b9 80 18 00 	mv r3,r12
  1072c8:	b9 c0 08 00 	mv r1,r14
  1072cc:	fb ff ff 67 	calli 107068 <__multiply>
  1072d0:	45 a0 00 1b 	be r13,r0,10733c <__pow5mult+0xd8>
  1072d4:	29 a2 00 04 	lw r2,(r13+4)
  1072d8:	29 c3 00 4c 	lw r3,(r14+76)
  1072dc:	15 6b 00 01 	sri r11,r11,1
  1072e0:	3c 42 00 02 	sli r2,r2,2
  1072e4:	b4 62 10 00 	add r2,r3,r2
  1072e8:	28 43 00 00 	lw r3,(r2+0)
  1072ec:	59 a3 00 00 	sw (r13+0),r3
  1072f0:	58 4d 00 00 	sw (r2+0),r13
  1072f4:	b8 20 68 00 	mv r13,r1
  1072f8:	5d 60 ff ed 	bne r11,r0,1072ac <__pow5mult+0x48>
  1072fc:	b9 a0 08 00 	mv r1,r13
  107300:	2b 9d 00 04 	lw ra,(sp+4)
  107304:	2b 8b 00 14 	lw r11,(sp+20)
  107308:	2b 8c 00 10 	lw r12,(sp+16)
  10730c:	2b 8d 00 0c 	lw r13,(sp+12)
  107310:	2b 8e 00 08 	lw r14,(sp+8)
  107314:	37 9c 00 14 	addi sp,sp,20
  107318:	c3 a0 00 00 	ret
  10731c:	b9 80 10 00 	mv r2,r12
  107320:	b9 80 18 00 	mv r3,r12
  107324:	b9 c0 08 00 	mv r1,r14
  107328:	fb ff ff 50 	calli 107068 <__multiply>
  10732c:	59 81 00 00 	sw (r12+0),r1
  107330:	58 20 00 00 	sw (r1+0),r0
  107334:	b8 20 60 00 	mv r12,r1
  107338:	e3 ff ff e0 	bi 1072b8 <__pow5mult+0x54>
  10733c:	b8 20 68 00 	mv r13,r1
  107340:	e3 ff ff d9 	bi 1072a4 <__pow5mult+0x40>
  107344:	34 63 ff ff 	addi r3,r3,-1
  107348:	3c 63 00 02 	sli r3,r3,2
  10734c:	78 04 00 10 	mvhi r4,0x10
  107350:	38 84 cc 20 	ori r4,r4,0xcc20
  107354:	b4 83 20 00 	add r4,r4,r3
  107358:	28 83 00 00 	lw r3,(r4+0)
  10735c:	34 04 00 00 	mvi r4,0
  107360:	fb ff fe 65 	calli 106cf4 <__multadd>
  107364:	b8 20 68 00 	mv r13,r1
  107368:	e3 ff ff ca 	bi 107290 <__pow5mult+0x2c>
  10736c:	b9 c0 08 00 	mv r1,r14
  107370:	34 02 02 71 	mvi r2,625
  107374:	fb ff ff 30 	calli 107034 <__i2b>
  107378:	59 c1 00 48 	sw (r14+72),r1
  10737c:	b8 20 60 00 	mv r12,r1
  107380:	58 20 00 00 	sw (r1+0),r0
  107384:	e3 ff ff cd 	bi 1072b8 <__pow5mult+0x54>

00107388 <__lshift>:
  107388:	37 9c ff e8 	addi sp,sp,-24
  10738c:	5b 8b 00 18 	sw (sp+24),r11
  107390:	5b 8c 00 14 	sw (sp+20),r12
  107394:	5b 8d 00 10 	sw (sp+16),r13
  107398:	5b 8e 00 0c 	sw (sp+12),r14
  10739c:	5b 8f 00 08 	sw (sp+8),r15
  1073a0:	5b 9d 00 04 	sw (sp+4),ra
  1073a4:	28 4c 00 10 	lw r12,(r2+16)
  1073a8:	14 6d 00 05 	sri r13,r3,5
  1073ac:	28 44 00 08 	lw r4,(r2+8)
  1073b0:	35 8c 00 01 	addi r12,r12,1
  1073b4:	b5 8d 60 00 	add r12,r12,r13
  1073b8:	b8 40 58 00 	mv r11,r2
  1073bc:	b8 60 78 00 	mv r15,r3
  1073c0:	b8 20 70 00 	mv r14,r1
  1073c4:	28 42 00 04 	lw r2,(r2+4)
  1073c8:	4c 8c 00 04 	bge r4,r12,1073d8 <__lshift+0x50>
  1073cc:	3c 84 00 01 	sli r4,r4,1
  1073d0:	34 42 00 01 	addi r2,r2,1
  1073d4:	49 84 ff fe 	bg r12,r4,1073cc <__lshift+0x44>
  1073d8:	b9 c0 08 00 	mv r1,r14
  1073dc:	fb ff fe 13 	calli 106c28 <_Balloc>
  1073e0:	34 24 00 14 	addi r4,r1,20
  1073e4:	4c 0d 00 0a 	bge r0,r13,10740c <__lshift+0x84>
  1073e8:	34 05 00 00 	mvi r5,0
  1073ec:	58 80 00 00 	sw (r4+0),r0
  1073f0:	34 a5 00 01 	addi r5,r5,1
  1073f4:	34 84 00 04 	addi r4,r4,4
  1073f8:	5c ad ff fd 	bne r5,r13,1073ec <__lshift+0x64>
  1073fc:	34 a4 00 04 	addi r4,r5,4
  107400:	3c 84 00 02 	sli r4,r4,2
  107404:	b4 24 20 00 	add r4,r1,r4
  107408:	34 84 00 04 	addi r4,r4,4
  10740c:	29 66 00 10 	lw r6,(r11+16)
  107410:	21 e3 00 1f 	andi r3,r15,0x1f
  107414:	35 65 00 14 	addi r5,r11,20
  107418:	34 c6 00 04 	addi r6,r6,4
  10741c:	3c c6 00 02 	sli r6,r6,2
  107420:	b5 66 30 00 	add r6,r11,r6
  107424:	34 c6 00 04 	addi r6,r6,4
  107428:	44 60 00 21 	be r3,r0,1074ac <__lshift+0x124>
  10742c:	34 08 00 20 	mvi r8,32
  107430:	c9 03 40 00 	sub r8,r8,r3
  107434:	34 02 00 00 	mvi r2,0
  107438:	28 a7 00 00 	lw r7,(r5+0)
  10743c:	bc e3 38 00 	sl r7,r7,r3
  107440:	b8 47 10 00 	or r2,r2,r7
  107444:	58 82 00 00 	sw (r4+0),r2
  107448:	28 a2 00 00 	lw r2,(r5+0)
  10744c:	34 a5 00 04 	addi r5,r5,4
  107450:	34 84 00 04 	addi r4,r4,4
  107454:	80 48 10 00 	sru r2,r2,r8
  107458:	54 c5 ff f8 	bgu r6,r5,107438 <__lshift+0xb0>
  10745c:	7c 43 00 00 	cmpnei r3,r2,0
  107460:	58 82 00 00 	sw (r4+0),r2
  107464:	b5 83 60 00 	add r12,r12,r3
  107468:	29 62 00 04 	lw r2,(r11+4)
  10746c:	29 c3 00 4c 	lw r3,(r14+76)
  107470:	35 8c ff ff 	addi r12,r12,-1
  107474:	3c 42 00 02 	sli r2,r2,2
  107478:	58 2c 00 10 	sw (r1+16),r12
  10747c:	b4 62 10 00 	add r2,r3,r2
  107480:	28 43 00 00 	lw r3,(r2+0)
  107484:	59 63 00 00 	sw (r11+0),r3
  107488:	58 4b 00 00 	sw (r2+0),r11
  10748c:	2b 9d 00 04 	lw ra,(sp+4)
  107490:	2b 8b 00 18 	lw r11,(sp+24)
  107494:	2b 8c 00 14 	lw r12,(sp+20)
  107498:	2b 8d 00 10 	lw r13,(sp+16)
  10749c:	2b 8e 00 0c 	lw r14,(sp+12)
  1074a0:	2b 8f 00 08 	lw r15,(sp+8)
  1074a4:	37 9c 00 18 	addi sp,sp,24
  1074a8:	c3 a0 00 00 	ret
  1074ac:	28 a2 00 00 	lw r2,(r5+0)
  1074b0:	34 a5 00 04 	addi r5,r5,4
  1074b4:	58 82 00 00 	sw (r4+0),r2
  1074b8:	34 84 00 04 	addi r4,r4,4
  1074bc:	54 c5 ff fc 	bgu r6,r5,1074ac <__lshift+0x124>
  1074c0:	e3 ff ff ea 	bi 107468 <__lshift+0xe0>

001074c4 <__mcmp>:
  1074c4:	b8 20 18 00 	mv r3,r1
  1074c8:	28 44 00 10 	lw r4,(r2+16)
  1074cc:	28 21 00 10 	lw r1,(r1+16)
  1074d0:	c8 24 08 00 	sub r1,r1,r4
  1074d4:	5c 20 00 0e 	bne r1,r0,10750c <__mcmp+0x48>
  1074d8:	34 84 00 04 	addi r4,r4,4
  1074dc:	3c 84 00 02 	sli r4,r4,2
  1074e0:	34 66 00 14 	addi r6,r3,20
  1074e4:	b4 44 10 00 	add r2,r2,r4
  1074e8:	b4 64 18 00 	add r3,r3,r4
  1074ec:	34 63 00 04 	addi r3,r3,4
  1074f0:	34 42 00 04 	addi r2,r2,4
  1074f4:	34 63 ff fc 	addi r3,r3,-4
  1074f8:	34 42 ff fc 	addi r2,r2,-4
  1074fc:	28 64 00 00 	lw r4,(r3+0)
  107500:	28 45 00 00 	lw r5,(r2+0)
  107504:	5c 85 00 03 	bne r4,r5,107510 <__mcmp+0x4c>
  107508:	54 66 ff fb 	bgu r3,r6,1074f4 <__mcmp+0x30>
  10750c:	c3 a0 00 00 	ret
  107510:	f4 a4 08 00 	cmpgu r1,r5,r4
  107514:	c8 01 08 00 	sub r1,r0,r1
  107518:	38 21 00 01 	ori r1,r1,0x1
  10751c:	c3 a0 00 00 	ret

00107520 <__mdiff>:
  107520:	37 9c ff ec 	addi sp,sp,-20
  107524:	5b 8b 00 14 	sw (sp+20),r11
  107528:	5b 8c 00 10 	sw (sp+16),r12
  10752c:	5b 8d 00 0c 	sw (sp+12),r13
  107530:	5b 8e 00 08 	sw (sp+8),r14
  107534:	5b 9d 00 04 	sw (sp+4),ra
  107538:	b8 40 58 00 	mv r11,r2
  10753c:	b8 20 68 00 	mv r13,r1
  107540:	b8 60 10 00 	mv r2,r3
  107544:	b9 60 08 00 	mv r1,r11
  107548:	b8 60 60 00 	mv r12,r3
  10754c:	fb ff ff de 	calli 1074c4 <__mcmp>
  107550:	b8 20 10 00 	mv r2,r1
  107554:	44 20 00 54 	be r1,r0,1076a4 <__mdiff+0x184>
  107558:	48 01 00 4e 	bg r0,r1,107690 <__mdiff+0x170>
  10755c:	34 0e 00 00 	mvi r14,0
  107560:	29 62 00 04 	lw r2,(r11+4)
  107564:	b9 a0 08 00 	mv r1,r13
  107568:	fb ff fd b0 	calli 106c28 <_Balloc>
  10756c:	29 82 00 10 	lw r2,(r12+16)
  107570:	29 67 00 10 	lw r7,(r11+16)
  107574:	35 83 00 14 	addi r3,r12,20
  107578:	34 42 00 04 	addi r2,r2,4
  10757c:	34 e9 00 04 	addi r9,r7,4
  107580:	3d 29 00 02 	sli r9,r9,2
  107584:	3c 42 00 02 	sli r2,r2,2
  107588:	b5 69 48 00 	add r9,r11,r9
  10758c:	b5 82 10 00 	add r2,r12,r2
  107590:	58 2e 00 0c 	sw (r1+12),r14
  107594:	35 64 00 14 	addi r4,r11,20
  107598:	35 29 00 04 	addi r9,r9,4
  10759c:	34 4c 00 04 	addi r12,r2,4
  1075a0:	34 25 00 14 	addi r5,r1,20
  1075a4:	34 06 00 00 	mvi r6,0
  1075a8:	28 82 00 00 	lw r2,(r4+0)
  1075ac:	28 68 00 00 	lw r8,(r3+0)
  1075b0:	34 63 00 04 	addi r3,r3,4
  1075b4:	20 4b ff ff 	andi r11,r2,0xffff
  1075b8:	21 0a ff ff 	andi r10,r8,0xffff
  1075bc:	c9 6a 50 00 	sub r10,r11,r10
  1075c0:	b5 46 30 00 	add r6,r10,r6
  1075c4:	01 08 00 10 	srui r8,r8,16
  1075c8:	00 42 00 10 	srui r2,r2,16
  1075cc:	14 ca 00 10 	sri r10,r6,16
  1075d0:	c8 48 10 00 	sub r2,r2,r8
  1075d4:	b4 4a 10 00 	add r2,r2,r10
  1075d8:	3c 48 00 10 	sli r8,r2,16
  1075dc:	20 c6 ff ff 	andi r6,r6,0xffff
  1075e0:	b9 06 30 00 	or r6,r8,r6
  1075e4:	58 a6 00 00 	sw (r5+0),r6
  1075e8:	34 84 00 04 	addi r4,r4,4
  1075ec:	14 46 00 10 	sri r6,r2,16
  1075f0:	34 a5 00 04 	addi r5,r5,4
  1075f4:	55 83 ff ed 	bgu r12,r3,1075a8 <__mdiff+0x88>
  1075f8:	b8 a0 40 00 	mv r8,r5
  1075fc:	b8 80 50 00 	mv r10,r4
  107600:	50 89 00 15 	bgeu r4,r9,107654 <__mdiff+0x134>
  107604:	28 83 00 00 	lw r3,(r4+0)
  107608:	34 84 00 04 	addi r4,r4,4
  10760c:	20 62 ff ff 	andi r2,r3,0xffff
  107610:	b4 c2 10 00 	add r2,r6,r2
  107614:	14 46 00 10 	sri r6,r2,16
  107618:	00 63 00 10 	srui r3,r3,16
  10761c:	20 42 ff ff 	andi r2,r2,0xffff
  107620:	b4 c3 30 00 	add r6,r6,r3
  107624:	3c c3 00 10 	sli r3,r6,16
  107628:	14 c6 00 10 	sri r6,r6,16
  10762c:	b8 62 10 00 	or r2,r3,r2
  107630:	58 a2 00 00 	sw (r5+0),r2
  107634:	34 a5 00 04 	addi r5,r5,4
  107638:	55 24 ff f3 	bgu r9,r4,107604 <__mdiff+0xe4>
  10763c:	a5 40 28 00 	not r5,r10
  107640:	b4 a9 28 00 	add r5,r5,r9
  107644:	00 a5 00 02 	srui r5,r5,2
  107648:	34 a5 00 01 	addi r5,r5,1
  10764c:	3c a5 00 02 	sli r5,r5,2
  107650:	b5 05 28 00 	add r5,r8,r5
  107654:	28 a2 ff fc 	lw r2,(r5+-4)
  107658:	34 a5 ff fc 	addi r5,r5,-4
  10765c:	5c 40 00 05 	bne r2,r0,107670 <__mdiff+0x150>
  107660:	34 a5 ff fc 	addi r5,r5,-4
  107664:	28 a2 00 00 	lw r2,(r5+0)
  107668:	34 e7 ff ff 	addi r7,r7,-1
  10766c:	44 40 ff fd 	be r2,r0,107660 <__mdiff+0x140>
  107670:	58 27 00 10 	sw (r1+16),r7
  107674:	2b 9d 00 04 	lw ra,(sp+4)
  107678:	2b 8b 00 14 	lw r11,(sp+20)
  10767c:	2b 8c 00 10 	lw r12,(sp+16)
  107680:	2b 8d 00 0c 	lw r13,(sp+12)
  107684:	2b 8e 00 08 	lw r14,(sp+8)
  107688:	37 9c 00 14 	addi sp,sp,20
  10768c:	c3 a0 00 00 	ret
  107690:	b9 60 08 00 	mv r1,r11
  107694:	34 0e 00 01 	mvi r14,1
  107698:	b9 80 58 00 	mv r11,r12
  10769c:	b8 20 60 00 	mv r12,r1
  1076a0:	e3 ff ff b0 	bi 107560 <__mdiff+0x40>
  1076a4:	b9 a0 08 00 	mv r1,r13
  1076a8:	fb ff fd 60 	calli 106c28 <_Balloc>
  1076ac:	34 02 00 01 	mvi r2,1
  1076b0:	58 22 00 10 	sw (r1+16),r2
  1076b4:	58 20 00 14 	sw (r1+20),r0
  1076b8:	2b 9d 00 04 	lw ra,(sp+4)
  1076bc:	2b 8b 00 14 	lw r11,(sp+20)
  1076c0:	2b 8c 00 10 	lw r12,(sp+16)
  1076c4:	2b 8d 00 0c 	lw r13,(sp+12)
  1076c8:	2b 8e 00 08 	lw r14,(sp+8)
  1076cc:	37 9c 00 14 	addi sp,sp,20
  1076d0:	c3 a0 00 00 	ret

001076d4 <__ulp>:
  1076d4:	78 02 7f f0 	mvhi r2,0x7ff0
  1076d8:	a0 22 08 00 	and r1,r1,r2
  1076dc:	78 02 fc c0 	mvhi r2,0xfcc0
  1076e0:	b4 22 08 00 	add r1,r1,r2
  1076e4:	4c 01 00 03 	bge r0,r1,1076f0 <__ulp+0x1c>
  1076e8:	34 02 00 00 	mvi r2,0
  1076ec:	c3 a0 00 00 	ret
  1076f0:	c8 01 08 00 	sub r1,r0,r1
  1076f4:	14 21 00 14 	sri r1,r1,20
  1076f8:	34 02 00 13 	mvi r2,19
  1076fc:	48 22 00 05 	bg r1,r2,107710 <__ulp+0x3c>
  107700:	78 02 00 08 	mvhi r2,0x8
  107704:	94 41 08 00 	sr r1,r2,r1
  107708:	34 02 00 00 	mvi r2,0
  10770c:	c3 a0 00 00 	ret
  107710:	34 23 ff ec 	addi r3,r1,-20
  107714:	34 04 00 1e 	mvi r4,30
  107718:	34 01 00 00 	mvi r1,0
  10771c:	34 02 00 01 	mvi r2,1
  107720:	48 64 00 03 	bg r3,r4,10772c <__ulp+0x58>
  107724:	a4 60 18 00 	not r3,r3
  107728:	bc 43 10 00 	sl r2,r2,r3
  10772c:	c3 a0 00 00 	ret

00107730 <__b2d>:
  107730:	37 9c ff e8 	addi sp,sp,-24
  107734:	5b 8b 00 18 	sw (sp+24),r11
  107738:	5b 8c 00 14 	sw (sp+20),r12
  10773c:	5b 8d 00 10 	sw (sp+16),r13
  107740:	5b 8e 00 0c 	sw (sp+12),r14
  107744:	5b 8f 00 08 	sw (sp+8),r15
  107748:	5b 9d 00 04 	sw (sp+4),ra
  10774c:	28 2b 00 10 	lw r11,(r1+16)
  107750:	34 2d 00 14 	addi r13,r1,20
  107754:	b8 40 70 00 	mv r14,r2
  107758:	35 6b 00 04 	addi r11,r11,4
  10775c:	3d 6b 00 02 	sli r11,r11,2
  107760:	b4 2b 58 00 	add r11,r1,r11
  107764:	29 6c 00 00 	lw r12,(r11+0)
  107768:	b9 80 08 00 	mv r1,r12
  10776c:	fb ff fd ea 	calli 106f14 <__hi0bits>
  107770:	b8 20 18 00 	mv r3,r1
  107774:	34 01 00 20 	mvi r1,32
  107778:	c8 23 08 00 	sub r1,r1,r3
  10777c:	59 c1 00 00 	sw (r14+0),r1
  107780:	34 01 00 0a 	mvi r1,10
  107784:	48 61 00 15 	bg r3,r1,1077d8 <__b2d+0xa8>
  107788:	34 05 00 0b 	mvi r5,11
  10778c:	c8 a3 28 00 	sub r5,r5,r3
  107790:	81 85 10 00 	sru r2,r12,r5
  107794:	78 01 3f f0 	mvhi r1,0x3ff0
  107798:	b8 41 08 00 	or r1,r2,r1
  10779c:	34 04 00 00 	mvi r4,0
  1077a0:	51 ab 00 03 	bgeu r13,r11,1077ac <__b2d+0x7c>
  1077a4:	29 64 ff fc 	lw r4,(r11+-4)
  1077a8:	80 85 20 00 	sru r4,r4,r5
  1077ac:	34 63 00 15 	addi r3,r3,21
  1077b0:	bd 83 60 00 	sl r12,r12,r3
  1077b4:	b8 8c 10 00 	or r2,r4,r12
  1077b8:	2b 9d 00 04 	lw ra,(sp+4)
  1077bc:	2b 8b 00 18 	lw r11,(sp+24)
  1077c0:	2b 8c 00 14 	lw r12,(sp+20)
  1077c4:	2b 8d 00 10 	lw r13,(sp+16)
  1077c8:	2b 8e 00 0c 	lw r14,(sp+12)
  1077cc:	2b 8f 00 08 	lw r15,(sp+8)
  1077d0:	37 9c 00 18 	addi sp,sp,24
  1077d4:	c3 a0 00 00 	ret
  1077d8:	34 02 00 00 	mvi r2,0
  1077dc:	51 ab 00 03 	bgeu r13,r11,1077e8 <__b2d+0xb8>
  1077e0:	29 62 ff fc 	lw r2,(r11+-4)
  1077e4:	35 6b ff fc 	addi r11,r11,-4
  1077e8:	78 01 3f f0 	mvhi r1,0x3ff0
  1077ec:	34 63 ff f5 	addi r3,r3,-11
  1077f0:	b9 81 08 00 	or r1,r12,r1
  1077f4:	44 60 ff f1 	be r3,r0,1077b8 <__b2d+0x88>
  1077f8:	34 05 00 20 	mvi r5,32
  1077fc:	c8 a3 28 00 	sub r5,r5,r3
  107800:	bd 83 60 00 	sl r12,r12,r3
  107804:	80 45 20 00 	sru r4,r2,r5
  107808:	78 01 3f f0 	mvhi r1,0x3ff0
  10780c:	b9 81 08 00 	or r1,r12,r1
  107810:	b8 24 08 00 	or r1,r1,r4
  107814:	34 04 00 00 	mvi r4,0
  107818:	51 ab 00 03 	bgeu r13,r11,107824 <__b2d+0xf4>
  10781c:	29 64 ff fc 	lw r4,(r11+-4)
  107820:	80 85 20 00 	sru r4,r4,r5
  107824:	bc 43 10 00 	sl r2,r2,r3
  107828:	b8 82 10 00 	or r2,r4,r2
  10782c:	2b 9d 00 04 	lw ra,(sp+4)
  107830:	2b 8b 00 18 	lw r11,(sp+24)
  107834:	2b 8c 00 14 	lw r12,(sp+20)
  107838:	2b 8d 00 10 	lw r13,(sp+16)
  10783c:	2b 8e 00 0c 	lw r14,(sp+12)
  107840:	2b 8f 00 08 	lw r15,(sp+8)
  107844:	37 9c 00 18 	addi sp,sp,24
  107848:	c3 a0 00 00 	ret

0010784c <__d2b>:
  10784c:	37 9c ff dc 	addi sp,sp,-36
  107850:	5b 8b 00 1c 	sw (sp+28),r11
  107854:	5b 8c 00 18 	sw (sp+24),r12
  107858:	5b 8d 00 14 	sw (sp+20),r13
  10785c:	5b 8e 00 10 	sw (sp+16),r14
  107860:	5b 8f 00 0c 	sw (sp+12),r15
  107864:	5b 90 00 08 	sw (sp+8),r16
  107868:	5b 9d 00 04 	sw (sp+4),ra
  10786c:	b8 40 60 00 	mv r12,r2
  107870:	34 02 00 01 	mvi r2,1
  107874:	b8 60 70 00 	mv r14,r3
  107878:	b8 80 80 00 	mv r16,r4
  10787c:	b8 a0 78 00 	mv r15,r5
  107880:	fb ff fc ea 	calli 106c28 <_Balloc>
  107884:	78 02 00 10 	mvhi r2,0x10
  107888:	38 42 c7 74 	ori r2,r2,0xc774
  10788c:	b8 20 58 00 	mv r11,r1
  107890:	28 41 00 00 	lw r1,(r2+0)
  107894:	3d 8d 00 01 	sli r13,r12,1
  107898:	a1 81 60 00 	and r12,r12,r1
  10789c:	01 ad 00 15 	srui r13,r13,21
  1078a0:	5b 8c 00 20 	sw (sp+32),r12
  1078a4:	45 a0 00 04 	be r13,r0,1078b4 <__d2b+0x68>
  1078a8:	78 01 00 10 	mvhi r1,0x10
  1078ac:	b9 81 60 00 	or r12,r12,r1
  1078b0:	5b 8c 00 20 	sw (sp+32),r12
  1078b4:	45 c0 00 22 	be r14,r0,10793c <__d2b+0xf0>
  1078b8:	37 81 00 24 	addi r1,sp,36
  1078bc:	5b 8e 00 24 	sw (sp+36),r14
  1078c0:	fb ff fd b2 	calli 106f88 <__lo0bits>
  1078c4:	5c 20 00 2e 	bne r1,r0,10797c <__d2b+0x130>
  1078c8:	2b 83 00 24 	lw r3,(sp+36)
  1078cc:	2b 82 00 20 	lw r2,(sp+32)
  1078d0:	59 63 00 14 	sw (r11+20),r3
  1078d4:	64 4c 00 00 	cmpei r12,r2,0
  1078d8:	34 03 00 02 	mvi r3,2
  1078dc:	c8 6c 60 00 	sub r12,r3,r12
  1078e0:	59 62 00 18 	sw (r11+24),r2
  1078e4:	59 6c 00 10 	sw (r11+16),r12
  1078e8:	5d a0 00 1e 	bne r13,r0,107960 <__d2b+0x114>
  1078ec:	35 83 00 03 	addi r3,r12,3
  1078f0:	3c 63 00 02 	sli r3,r3,2
  1078f4:	34 22 fb ce 	addi r2,r1,-1074
  1078f8:	b5 63 08 00 	add r1,r11,r3
  1078fc:	28 21 00 04 	lw r1,(r1+4)
  107900:	3d 8c 00 05 	sli r12,r12,5
  107904:	5a 02 00 00 	sw (r16+0),r2
  107908:	fb ff fd 83 	calli 106f14 <__hi0bits>
  10790c:	c9 81 08 00 	sub r1,r12,r1
  107910:	59 e1 00 00 	sw (r15+0),r1
  107914:	b9 60 08 00 	mv r1,r11
  107918:	2b 9d 00 04 	lw ra,(sp+4)
  10791c:	2b 8b 00 1c 	lw r11,(sp+28)
  107920:	2b 8c 00 18 	lw r12,(sp+24)
  107924:	2b 8d 00 14 	lw r13,(sp+20)
  107928:	2b 8e 00 10 	lw r14,(sp+16)
  10792c:	2b 8f 00 0c 	lw r15,(sp+12)
  107930:	2b 90 00 08 	lw r16,(sp+8)
  107934:	37 9c 00 24 	addi sp,sp,36
  107938:	c3 a0 00 00 	ret
  10793c:	37 81 00 20 	addi r1,sp,32
  107940:	fb ff fd 92 	calli 106f88 <__lo0bits>
  107944:	34 02 00 01 	mvi r2,1
  107948:	59 62 00 10 	sw (r11+16),r2
  10794c:	2b 82 00 20 	lw r2,(sp+32)
  107950:	34 21 00 20 	addi r1,r1,32
  107954:	34 0c 00 01 	mvi r12,1
  107958:	59 62 00 14 	sw (r11+20),r2
  10795c:	45 a0 ff e4 	be r13,r0,1078ec <__d2b+0xa0>
  107960:	35 ad fb cd 	addi r13,r13,-1075
  107964:	b5 a1 68 00 	add r13,r13,r1
  107968:	34 02 00 35 	mvi r2,53
  10796c:	5a 0d 00 00 	sw (r16+0),r13
  107970:	c8 41 08 00 	sub r1,r2,r1
  107974:	59 e1 00 00 	sw (r15+0),r1
  107978:	e3 ff ff e7 	bi 107914 <__d2b+0xc8>
  10797c:	2b 82 00 20 	lw r2,(sp+32)
  107980:	c8 01 18 00 	sub r3,r0,r1
  107984:	2b 84 00 24 	lw r4,(sp+36)
  107988:	bc 43 18 00 	sl r3,r2,r3
  10798c:	80 41 10 00 	sru r2,r2,r1
  107990:	b8 64 18 00 	or r3,r3,r4
  107994:	59 63 00 14 	sw (r11+20),r3
  107998:	5b 82 00 20 	sw (sp+32),r2
  10799c:	e3 ff ff ce 	bi 1078d4 <__d2b+0x88>

001079a0 <__ratio>:
  1079a0:	37 9c ff e4 	addi sp,sp,-28
  1079a4:	5b 8b 00 14 	sw (sp+20),r11
  1079a8:	5b 8c 00 10 	sw (sp+16),r12
  1079ac:	5b 8d 00 0c 	sw (sp+12),r13
  1079b0:	5b 8e 00 08 	sw (sp+8),r14
  1079b4:	5b 9d 00 04 	sw (sp+4),ra
  1079b8:	b8 40 58 00 	mv r11,r2
  1079bc:	37 82 00 1c 	addi r2,sp,28
  1079c0:	b8 20 70 00 	mv r14,r1
  1079c4:	fb ff ff 5b 	calli 107730 <__b2d>
  1079c8:	b8 20 60 00 	mv r12,r1
  1079cc:	b8 40 68 00 	mv r13,r2
  1079d0:	b9 60 08 00 	mv r1,r11
  1079d4:	37 82 00 18 	addi r2,sp,24
  1079d8:	fb ff ff 56 	calli 107730 <__b2d>
  1079dc:	b8 20 38 00 	mv r7,r1
  1079e0:	29 c5 00 10 	lw r5,(r14+16)
  1079e4:	29 61 00 10 	lw r1,(r11+16)
  1079e8:	b8 40 20 00 	mv r4,r2
  1079ec:	2b 82 00 18 	lw r2,(sp+24)
  1079f0:	c8 a1 08 00 	sub r1,r5,r1
  1079f4:	2b 85 00 1c 	lw r5,(sp+28)
  1079f8:	3c 21 00 05 	sli r1,r1,5
  1079fc:	b9 80 30 00 	mv r6,r12
  107a00:	c8 a2 28 00 	sub r5,r5,r2
  107a04:	b4 a1 28 00 	add r5,r5,r1
  107a08:	3c a3 00 14 	sli r3,r5,20
  107a0c:	c8 e3 18 00 	sub r3,r7,r3
  107a10:	4c 05 00 04 	bge r0,r5,107a20 <__ratio+0x80>
  107a14:	3c a5 00 14 	sli r5,r5,20
  107a18:	b8 e0 18 00 	mv r3,r7
  107a1c:	b4 ac 30 00 	add r6,r5,r12
  107a20:	b8 c0 08 00 	mv r1,r6
  107a24:	b9 a0 10 00 	mv r2,r13
  107a28:	fb ff e6 72 	calli 1013f0 <__divdf3>
  107a2c:	2b 9d 00 04 	lw ra,(sp+4)
  107a30:	2b 8b 00 14 	lw r11,(sp+20)
  107a34:	2b 8c 00 10 	lw r12,(sp+16)
  107a38:	2b 8d 00 0c 	lw r13,(sp+12)
  107a3c:	2b 8e 00 08 	lw r14,(sp+8)
  107a40:	37 9c 00 1c 	addi sp,sp,28
  107a44:	c3 a0 00 00 	ret

00107a48 <_mprec_log10>:
  107a48:	37 9c ff f8 	addi sp,sp,-8
  107a4c:	5b 8b 00 08 	sw (sp+8),r11
  107a50:	5b 9d 00 04 	sw (sp+4),ra
  107a54:	34 03 00 17 	mvi r3,23
  107a58:	b8 20 58 00 	mv r11,r1
  107a5c:	34 02 00 00 	mvi r2,0
  107a60:	78 01 3f f0 	mvhi r1,0x3ff0
  107a64:	49 63 00 0b 	bg r11,r3,107a90 <_mprec_log10+0x48>
  107a68:	78 01 00 10 	mvhi r1,0x10
  107a6c:	3d 6b 00 03 	sli r11,r11,3
  107a70:	38 21 cb 08 	ori r1,r1,0xcb08
  107a74:	b4 2b 58 00 	add r11,r1,r11
  107a78:	29 61 00 00 	lw r1,(r11+0)
  107a7c:	29 62 00 04 	lw r2,(r11+4)
  107a80:	2b 9d 00 04 	lw ra,(sp+4)
  107a84:	2b 8b 00 08 	lw r11,(sp+8)
  107a88:	37 9c 00 08 	addi sp,sp,8
  107a8c:	c3 a0 00 00 	ret
  107a90:	35 6b ff ff 	addi r11,r11,-1
  107a94:	78 03 40 24 	mvhi r3,0x4024
  107a98:	34 04 00 00 	mvi r4,0
  107a9c:	f8 00 0d e9 	calli 10b240 <__muldf3>
  107aa0:	45 60 ff f8 	be r11,r0,107a80 <_mprec_log10+0x38>
  107aa4:	35 6b ff ff 	addi r11,r11,-1
  107aa8:	78 03 40 24 	mvhi r3,0x4024
  107aac:	34 04 00 00 	mvi r4,0
  107ab0:	f8 00 0d e4 	calli 10b240 <__muldf3>
  107ab4:	5d 60 ff f7 	bne r11,r0,107a90 <_mprec_log10+0x48>
  107ab8:	e3 ff ff f2 	bi 107a80 <_mprec_log10+0x38>

00107abc <__copybits>:
  107abc:	28 65 00 10 	lw r5,(r3+16)
  107ac0:	34 42 ff ff 	addi r2,r2,-1
  107ac4:	14 46 00 05 	sri r6,r2,5
  107ac8:	34 a5 00 04 	addi r5,r5,4
  107acc:	3c a5 00 02 	sli r5,r5,2
  107ad0:	34 c6 00 01 	addi r6,r6,1
  107ad4:	3c c6 00 02 	sli r6,r6,2
  107ad8:	b4 65 28 00 	add r5,r3,r5
  107adc:	34 62 00 14 	addi r2,r3,20
  107ae0:	34 a5 00 04 	addi r5,r5,4
  107ae4:	b4 26 30 00 	add r6,r1,r6
  107ae8:	50 45 00 0d 	bgeu r2,r5,107b1c <__copybits+0x60>
  107aec:	b8 20 20 00 	mv r4,r1
  107af0:	28 47 00 00 	lw r7,(r2+0)
  107af4:	34 42 00 04 	addi r2,r2,4
  107af8:	58 87 00 00 	sw (r4+0),r7
  107afc:	34 84 00 04 	addi r4,r4,4
  107b00:	54 a2 ff fc 	bgu r5,r2,107af0 <__copybits+0x34>
  107b04:	c8 a3 10 00 	sub r2,r5,r3
  107b08:	34 42 ff eb 	addi r2,r2,-21
  107b0c:	00 42 00 02 	srui r2,r2,2
  107b10:	34 42 00 01 	addi r2,r2,1
  107b14:	3c 42 00 02 	sli r2,r2,2
  107b18:	b4 22 08 00 	add r1,r1,r2
  107b1c:	54 c1 00 02 	bgu r6,r1,107b24 <__copybits+0x68>
  107b20:	c3 a0 00 00 	ret
  107b24:	58 20 00 00 	sw (r1+0),r0
  107b28:	34 21 00 04 	addi r1,r1,4
  107b2c:	54 c1 ff fe 	bgu r6,r1,107b24 <__copybits+0x68>
  107b30:	e3 ff ff fc 	bi 107b20 <__copybits+0x64>

00107b34 <__any_on>:
  107b34:	28 24 00 10 	lw r4,(r1+16)
  107b38:	14 43 00 05 	sri r3,r2,5
  107b3c:	4c 83 00 15 	bge r4,r3,107b90 <__any_on+0x5c>
  107b40:	34 82 00 04 	addi r2,r4,4
  107b44:	3c 42 00 02 	sli r2,r2,2
  107b48:	34 24 00 14 	addi r4,r1,20
  107b4c:	b4 22 10 00 	add r2,r1,r2
  107b50:	34 41 00 04 	addi r1,r2,4
  107b54:	34 03 00 00 	mvi r3,0
  107b58:	50 81 00 0c 	bgeu r4,r1,107b88 <__any_on+0x54>
  107b5c:	28 41 00 00 	lw r1,(r2+0)
  107b60:	34 03 00 01 	mvi r3,1
  107b64:	5c 20 00 09 	bne r1,r0,107b88 <__any_on+0x54>
  107b68:	54 44 00 04 	bgu r2,r4,107b78 <__any_on+0x44>
  107b6c:	34 03 00 00 	mvi r3,0
  107b70:	b8 60 08 00 	mv r1,r3
  107b74:	c3 a0 00 00 	ret
  107b78:	34 42 ff fc 	addi r2,r2,-4
  107b7c:	28 41 00 00 	lw r1,(r2+0)
  107b80:	44 20 ff fa 	be r1,r0,107b68 <__any_on+0x34>
  107b84:	34 03 00 01 	mvi r3,1
  107b88:	b8 60 08 00 	mv r1,r3
  107b8c:	c3 a0 00 00 	ret
  107b90:	48 83 00 03 	bg r4,r3,107b9c <__any_on+0x68>
  107b94:	b8 60 20 00 	mv r4,r3
  107b98:	e3 ff ff ea 	bi 107b40 <__any_on+0xc>
  107b9c:	20 42 00 1f 	andi r2,r2,0x1f
  107ba0:	44 40 ff fd 	be r2,r0,107b94 <__any_on+0x60>
  107ba4:	34 65 00 04 	addi r5,r3,4
  107ba8:	3c a5 00 02 	sli r5,r5,2
  107bac:	b8 60 20 00 	mv r4,r3
  107bb0:	b4 25 28 00 	add r5,r1,r5
  107bb4:	28 a5 00 04 	lw r5,(r5+4)
  107bb8:	34 03 00 01 	mvi r3,1
  107bbc:	80 a2 30 00 	sru r6,r5,r2
  107bc0:	bc c2 10 00 	sl r2,r6,r2
  107bc4:	5c 45 ff f1 	bne r2,r5,107b88 <__any_on+0x54>
  107bc8:	e3 ff ff de 	bi 107b40 <__any_on+0xc>

00107bcc <_sbrk_r>:
  107bcc:	37 9c ff f4 	addi sp,sp,-12
  107bd0:	5b 8b 00 0c 	sw (sp+12),r11
  107bd4:	5b 8c 00 08 	sw (sp+8),r12
  107bd8:	5b 9d 00 04 	sw (sp+4),ra
  107bdc:	78 0b 00 10 	mvhi r11,0x10
  107be0:	b8 20 60 00 	mv r12,r1
  107be4:	39 6b d7 dc 	ori r11,r11,0xd7dc
  107be8:	b8 40 08 00 	mv r1,r2
  107bec:	59 60 00 00 	sw (r11+0),r0
  107bf0:	f8 00 12 8d 	calli 10c624 <_sbrk>
  107bf4:	34 02 ff ff 	mvi r2,-1
  107bf8:	44 22 00 06 	be r1,r2,107c10 <_sbrk_r+0x44>
  107bfc:	2b 9d 00 04 	lw ra,(sp+4)
  107c00:	2b 8b 00 0c 	lw r11,(sp+12)
  107c04:	2b 8c 00 08 	lw r12,(sp+8)
  107c08:	37 9c 00 0c 	addi sp,sp,12
  107c0c:	c3 a0 00 00 	ret
  107c10:	29 62 00 00 	lw r2,(r11+0)
  107c14:	44 40 ff fa 	be r2,r0,107bfc <_sbrk_r+0x30>
  107c18:	59 82 00 00 	sw (r12+0),r2
  107c1c:	2b 9d 00 04 	lw ra,(sp+4)
  107c20:	2b 8b 00 0c 	lw r11,(sp+12)
  107c24:	2b 8c 00 08 	lw r12,(sp+8)
  107c28:	37 9c 00 0c 	addi sp,sp,12
  107c2c:	c3 a0 00 00 	ret

00107c30 <__fpclassifyd>:
  107c30:	b8 22 20 00 	or r4,r1,r2
  107c34:	b8 20 18 00 	mv r3,r1
  107c38:	34 01 00 02 	mvi r1,2
  107c3c:	44 80 00 1f 	be r4,r0,107cb8 <__fpclassifyd+0x88>
  107c40:	78 05 80 00 	mvhi r5,0x8000
  107c44:	64 42 00 00 	cmpei r2,r2,0
  107c48:	e4 65 20 00 	cmpe r4,r3,r5
  107c4c:	a0 44 20 00 	and r4,r2,r4
  107c50:	5c 80 00 1a 	bne r4,r0,107cb8 <__fpclassifyd+0x88>
  107c54:	78 01 00 10 	mvhi r1,0x10
  107c58:	38 21 cc 30 	ori r1,r1,0xcc30
  107c5c:	28 26 00 00 	lw r6,(r1+0)
  107c60:	78 07 7f f0 	mvhi r7,0x7ff0
  107c64:	78 08 ff f0 	mvhi r8,0xfff0
  107c68:	b4 68 08 00 	add r1,r3,r8
  107c6c:	b4 67 48 00 	add r9,r3,r7
  107c70:	f0 c9 48 00 	cmpgeu r9,r6,r9
  107c74:	f0 c1 30 00 	cmpgeu r6,r6,r1
  107c78:	34 01 00 04 	mvi r1,4
  107c7c:	b9 26 30 00 	or r6,r9,r6
  107c80:	5c c4 00 0e 	bne r6,r4,107cb8 <__fpclassifyd+0x88>
  107c84:	78 01 00 10 	mvhi r1,0x10
  107c88:	38 21 c7 74 	ori r1,r1,0xc774
  107c8c:	28 24 00 00 	lw r4,(r1+0)
  107c90:	b4 65 28 00 	add r5,r3,r5
  107c94:	34 01 00 03 	mvi r1,3
  107c98:	f0 85 28 00 	cmpgeu r5,r4,r5
  107c9c:	f0 83 20 00 	cmpgeu r4,r4,r3
  107ca0:	b8 a4 20 00 	or r4,r5,r4
  107ca4:	5c 86 00 05 	bne r4,r6,107cb8 <__fpclassifyd+0x88>
  107ca8:	e4 68 08 00 	cmpe r1,r3,r8
  107cac:	e4 67 18 00 	cmpe r3,r3,r7
  107cb0:	b8 23 08 00 	or r1,r1,r3
  107cb4:	a0 41 08 00 	and r1,r2,r1
  107cb8:	c3 a0 00 00 	ret

00107cbc <__sread>:
  107cbc:	37 9c ff f8 	addi sp,sp,-8
  107cc0:	5b 8b 00 08 	sw (sp+8),r11
  107cc4:	5b 9d 00 04 	sw (sp+4),ra
  107cc8:	b8 40 58 00 	mv r11,r2
  107ccc:	1c 42 00 0e 	lh r2,(r2+14)
  107cd0:	f8 00 07 47 	calli 1099ec <_read_r>
  107cd4:	48 01 00 08 	bg r0,r1,107cf4 <__sread+0x38>
  107cd8:	29 62 00 50 	lw r2,(r11+80)
  107cdc:	b4 41 10 00 	add r2,r2,r1
  107ce0:	59 62 00 50 	sw (r11+80),r2
  107ce4:	2b 9d 00 04 	lw ra,(sp+4)
  107ce8:	2b 8b 00 08 	lw r11,(sp+8)
  107cec:	37 9c 00 08 	addi sp,sp,8
  107cf0:	c3 a0 00 00 	ret
  107cf4:	2d 62 00 0c 	lhu r2,(r11+12)
  107cf8:	20 42 ef ff 	andi r2,r2,0xefff
  107cfc:	0d 62 00 0c 	sh (r11+12),r2
  107d00:	2b 9d 00 04 	lw ra,(sp+4)
  107d04:	2b 8b 00 08 	lw r11,(sp+8)
  107d08:	37 9c 00 08 	addi sp,sp,8
  107d0c:	c3 a0 00 00 	ret

00107d10 <__seofread>:
  107d10:	34 01 00 00 	mvi r1,0
  107d14:	c3 a0 00 00 	ret

00107d18 <__swrite>:
  107d18:	37 9c ff ec 	addi sp,sp,-20
  107d1c:	5b 8b 00 14 	sw (sp+20),r11
  107d20:	5b 8c 00 10 	sw (sp+16),r12
  107d24:	5b 8d 00 0c 	sw (sp+12),r13
  107d28:	5b 8e 00 08 	sw (sp+8),r14
  107d2c:	5b 9d 00 04 	sw (sp+4),ra
  107d30:	1c 45 00 0c 	lh r5,(r2+12)
  107d34:	b8 40 58 00 	mv r11,r2
  107d38:	b8 20 70 00 	mv r14,r1
  107d3c:	20 a2 01 00 	andi r2,r5,0x100
  107d40:	b8 60 68 00 	mv r13,r3
  107d44:	b8 80 60 00 	mv r12,r4
  107d48:	44 40 00 06 	be r2,r0,107d60 <__swrite+0x48>
  107d4c:	1d 62 00 0e 	lh r2,(r11+14)
  107d50:	34 03 00 00 	mvi r3,0
  107d54:	34 04 00 02 	mvi r4,2
  107d58:	f8 00 06 be 	calli 109850 <_lseek_r>
  107d5c:	1d 65 00 0c 	lh r5,(r11+12)
  107d60:	1d 62 00 0e 	lh r2,(r11+14)
  107d64:	34 01 ef ff 	mvi r1,-4097
  107d68:	a0 a1 28 00 	and r5,r5,r1
  107d6c:	0d 65 00 0c 	sh (r11+12),r5
  107d70:	b9 c0 08 00 	mv r1,r14
  107d74:	b9 a0 18 00 	mv r3,r13
  107d78:	b9 80 20 00 	mv r4,r12
  107d7c:	f8 00 04 2a 	calli 108e24 <_write_r>
  107d80:	2b 9d 00 04 	lw ra,(sp+4)
  107d84:	2b 8b 00 14 	lw r11,(sp+20)
  107d88:	2b 8c 00 10 	lw r12,(sp+16)
  107d8c:	2b 8d 00 0c 	lw r13,(sp+12)
  107d90:	2b 8e 00 08 	lw r14,(sp+8)
  107d94:	37 9c 00 14 	addi sp,sp,20
  107d98:	c3 a0 00 00 	ret

00107d9c <__sseek>:
  107d9c:	37 9c ff f8 	addi sp,sp,-8
  107da0:	5b 8b 00 08 	sw (sp+8),r11
  107da4:	5b 9d 00 04 	sw (sp+4),ra
  107da8:	b8 40 58 00 	mv r11,r2
  107dac:	1c 42 00 0e 	lh r2,(r2+14)
  107db0:	f8 00 06 a8 	calli 109850 <_lseek_r>
  107db4:	34 02 ff ff 	mvi r2,-1
  107db8:	44 22 00 09 	be r1,r2,107ddc <__sseek+0x40>
  107dbc:	2d 62 00 0c 	lhu r2,(r11+12)
  107dc0:	59 61 00 50 	sw (r11+80),r1
  107dc4:	38 42 10 00 	ori r2,r2,0x1000
  107dc8:	0d 62 00 0c 	sh (r11+12),r2
  107dcc:	2b 9d 00 04 	lw ra,(sp+4)
  107dd0:	2b 8b 00 08 	lw r11,(sp+8)
  107dd4:	37 9c 00 08 	addi sp,sp,8
  107dd8:	c3 a0 00 00 	ret
  107ddc:	2d 62 00 0c 	lhu r2,(r11+12)
  107de0:	20 42 ef ff 	andi r2,r2,0xefff
  107de4:	0d 62 00 0c 	sh (r11+12),r2
  107de8:	2b 9d 00 04 	lw ra,(sp+4)
  107dec:	2b 8b 00 08 	lw r11,(sp+8)
  107df0:	37 9c 00 08 	addi sp,sp,8
  107df4:	c3 a0 00 00 	ret

00107df8 <__sclose>:
  107df8:	37 9c ff fc 	addi sp,sp,-4
  107dfc:	5b 9d 00 04 	sw (sp+4),ra
  107e00:	1c 42 00 0e 	lh r2,(r2+14)
  107e04:	f8 00 04 4d 	calli 108f38 <_close_r>
  107e08:	2b 9d 00 04 	lw ra,(sp+4)
  107e0c:	37 9c 00 04 	addi sp,sp,4
  107e10:	c3 a0 00 00 	ret

00107e14 <strcmp>:
  107e14:	b8 41 18 00 	or r3,r2,r1
  107e18:	20 63 00 03 	andi r3,r3,0x3
  107e1c:	5c 60 00 1d 	bne r3,r0,107e90 <strcmp+0x7c>
  107e20:	b8 20 20 00 	mv r4,r1
  107e24:	28 43 00 00 	lw r3,(r2+0)
  107e28:	28 21 00 00 	lw r1,(r1+0)
  107e2c:	5c 23 00 18 	bne r1,r3,107e8c <strcmp+0x78>
  107e30:	78 03 00 10 	mvhi r3,0x10
  107e34:	38 63 cb 00 	ori r3,r3,0xcb00
  107e38:	28 67 00 00 	lw r7,(r3+0)
  107e3c:	78 03 00 10 	mvhi r3,0x10
  107e40:	38 63 cb 04 	ori r3,r3,0xcb04
  107e44:	28 66 00 00 	lw r6,(r3+0)
  107e48:	a4 20 18 00 	not r3,r1
  107e4c:	b4 27 08 00 	add r1,r1,r7
  107e50:	a0 23 18 00 	and r3,r1,r3
  107e54:	a0 66 18 00 	and r3,r3,r6
  107e58:	34 01 00 00 	mvi r1,0
  107e5c:	44 60 00 03 	be r3,r0,107e68 <strcmp+0x54>
  107e60:	e0 00 00 1c 	bi 107ed0 <strcmp+0xbc>
  107e64:	5c 60 00 19 	bne r3,r0,107ec8 <strcmp+0xb4>
  107e68:	34 84 00 04 	addi r4,r4,4
  107e6c:	28 81 00 00 	lw r1,(r4+0)
  107e70:	34 42 00 04 	addi r2,r2,4
  107e74:	28 48 00 00 	lw r8,(r2+0)
  107e78:	b4 27 28 00 	add r5,r1,r7
  107e7c:	a4 20 18 00 	not r3,r1
  107e80:	a0 a3 18 00 	and r3,r5,r3
  107e84:	a0 66 18 00 	and r3,r3,r6
  107e88:	44 28 ff f7 	be r1,r8,107e64 <strcmp+0x50>
  107e8c:	b8 80 08 00 	mv r1,r4
  107e90:	40 23 00 00 	lbu r3,(r1+0)
  107e94:	5c 60 00 06 	bne r3,r0,107eac <strcmp+0x98>
  107e98:	e0 00 00 09 	bi 107ebc <strcmp+0xa8>
  107e9c:	34 21 00 01 	addi r1,r1,1
  107ea0:	40 23 00 00 	lbu r3,(r1+0)
  107ea4:	34 42 00 01 	addi r2,r2,1
  107ea8:	44 60 00 05 	be r3,r0,107ebc <strcmp+0xa8>
  107eac:	40 44 00 00 	lbu r4,(r2+0)
  107eb0:	44 64 ff fb 	be r3,r4,107e9c <strcmp+0x88>
  107eb4:	c8 64 08 00 	sub r1,r3,r4
  107eb8:	c3 a0 00 00 	ret
  107ebc:	40 44 00 00 	lbu r4,(r2+0)
  107ec0:	c8 64 08 00 	sub r1,r3,r4
  107ec4:	c3 a0 00 00 	ret
  107ec8:	34 01 00 00 	mvi r1,0
  107ecc:	c3 a0 00 00 	ret
  107ed0:	c3 a0 00 00 	ret

00107ed4 <strlen>:
  107ed4:	20 22 00 03 	andi r2,r1,0x3
  107ed8:	44 40 00 2c 	be r2,r0,107f88 <strlen+0xb4>
  107edc:	40 23 00 00 	lbu r3,(r1+0)
  107ee0:	34 02 00 00 	mvi r2,0
  107ee4:	44 60 00 27 	be r3,r0,107f80 <strlen+0xac>
  107ee8:	b8 20 10 00 	mv r2,r1
  107eec:	e0 00 00 03 	bi 107ef8 <strlen+0x24>
  107ef0:	40 43 00 00 	lbu r3,(r2+0)
  107ef4:	44 60 00 22 	be r3,r0,107f7c <strlen+0xa8>
  107ef8:	34 42 00 01 	addi r2,r2,1
  107efc:	20 43 00 03 	andi r3,r2,0x3
  107f00:	5c 60 ff fc 	bne r3,r0,107ef0 <strlen+0x1c>
  107f04:	78 04 00 10 	mvhi r4,0x10
  107f08:	38 84 cb 00 	ori r4,r4,0xcb00
  107f0c:	28 43 00 00 	lw r3,(r2+0)
  107f10:	28 86 00 00 	lw r6,(r4+0)
  107f14:	78 04 00 10 	mvhi r4,0x10
  107f18:	38 84 cb 04 	ori r4,r4,0xcb04
  107f1c:	28 85 00 00 	lw r5,(r4+0)
  107f20:	a4 60 20 00 	not r4,r3
  107f24:	b4 66 18 00 	add r3,r3,r6
  107f28:	a0 64 18 00 	and r3,r3,r4
  107f2c:	a0 65 18 00 	and r3,r3,r5
  107f30:	5c 60 00 11 	bne r3,r0,107f74 <strlen+0xa0>
  107f34:	34 42 00 04 	addi r2,r2,4
  107f38:	28 43 00 00 	lw r3,(r2+0)
  107f3c:	b4 66 20 00 	add r4,r3,r6
  107f40:	a4 60 18 00 	not r3,r3
  107f44:	a0 83 18 00 	and r3,r4,r3
  107f48:	a0 65 18 00 	and r3,r3,r5
  107f4c:	5c 60 00 0a 	bne r3,r0,107f74 <strlen+0xa0>
  107f50:	34 42 00 04 	addi r2,r2,4
  107f54:	28 43 00 00 	lw r3,(r2+0)
  107f58:	b4 66 20 00 	add r4,r3,r6
  107f5c:	a4 60 18 00 	not r3,r3
  107f60:	a0 83 18 00 	and r3,r4,r3
  107f64:	a0 65 18 00 	and r3,r3,r5
  107f68:	44 60 ff f3 	be r3,r0,107f34 <strlen+0x60>
  107f6c:	e0 00 00 02 	bi 107f74 <strlen+0xa0>
  107f70:	34 42 00 01 	addi r2,r2,1
  107f74:	40 43 00 00 	lbu r3,(r2+0)
  107f78:	5c 60 ff fe 	bne r3,r0,107f70 <strlen+0x9c>
  107f7c:	c8 41 10 00 	sub r2,r2,r1
  107f80:	b8 40 08 00 	mv r1,r2
  107f84:	c3 a0 00 00 	ret
  107f88:	b8 20 10 00 	mv r2,r1
  107f8c:	e3 ff ff de 	bi 107f04 <strlen+0x30>

00107f90 <__sprint_r>:
  107f90:	37 9c ff dc 	addi sp,sp,-36
  107f94:	5b 8b 00 24 	sw (sp+36),r11
  107f98:	5b 8c 00 20 	sw (sp+32),r12
  107f9c:	5b 8d 00 1c 	sw (sp+28),r13
  107fa0:	5b 8e 00 18 	sw (sp+24),r14
  107fa4:	5b 8f 00 14 	sw (sp+20),r15
  107fa8:	5b 90 00 10 	sw (sp+16),r16
  107fac:	5b 91 00 0c 	sw (sp+12),r17
  107fb0:	5b 92 00 08 	sw (sp+8),r18
  107fb4:	5b 9d 00 04 	sw (sp+4),ra
  107fb8:	28 64 00 08 	lw r4,(r3+8)
  107fbc:	b8 60 80 00 	mv r16,r3
  107fc0:	b8 20 78 00 	mv r15,r1
  107fc4:	b8 40 70 00 	mv r14,r2
  107fc8:	44 80 00 28 	be r4,r0,108068 <__sprint_r+0xd8>
  107fcc:	28 45 00 64 	lw r5,(r2+100)
  107fd0:	20 a5 20 00 	andi r5,r5,0x2000
  107fd4:	44 a0 00 28 	be r5,r0,108074 <__sprint_r+0xe4>
  107fd8:	28 72 00 00 	lw r18,(r3+0)
  107fdc:	34 11 ff ff 	mvi r17,-1
  107fe0:	2a 4d 00 04 	lw r13,(r18+4)
  107fe4:	2a 4c 00 00 	lw r12,(r18+0)
  107fe8:	01 ad 00 02 	srui r13,r13,2
  107fec:	4c 0d 00 0b 	bge r0,r13,108018 <__sprint_r+0x88>
  107ff0:	34 0b 00 00 	mvi r11,0
  107ff4:	29 82 00 00 	lw r2,(r12+0)
  107ff8:	b9 e0 08 00 	mv r1,r15
  107ffc:	b9 c0 18 00 	mv r3,r14
  108000:	f8 00 04 36 	calli 1090d8 <_fputwc_r>
  108004:	35 6b 00 01 	addi r11,r11,1
  108008:	44 31 00 0a 	be r1,r17,108030 <__sprint_r+0xa0>
  10800c:	35 8c 00 04 	addi r12,r12,4
  108010:	49 ab ff f9 	bg r13,r11,107ff4 <__sprint_r+0x64>
  108014:	2a 04 00 08 	lw r4,(r16+8)
  108018:	3d ad 00 02 	sli r13,r13,2
  10801c:	c8 8d 20 00 	sub r4,r4,r13
  108020:	5a 04 00 08 	sw (r16+8),r4
  108024:	44 80 00 16 	be r4,r0,10807c <__sprint_r+0xec>
  108028:	36 52 00 08 	addi r18,r18,8
  10802c:	e3 ff ff ed 	bi 107fe0 <__sprint_r+0x50>
  108030:	34 01 ff ff 	mvi r1,-1
  108034:	5a 00 00 08 	sw (r16+8),r0
  108038:	5a 00 00 04 	sw (r16+4),r0
  10803c:	2b 9d 00 04 	lw ra,(sp+4)
  108040:	2b 8b 00 24 	lw r11,(sp+36)
  108044:	2b 8c 00 20 	lw r12,(sp+32)
  108048:	2b 8d 00 1c 	lw r13,(sp+28)
  10804c:	2b 8e 00 18 	lw r14,(sp+24)
  108050:	2b 8f 00 14 	lw r15,(sp+20)
  108054:	2b 90 00 10 	lw r16,(sp+16)
  108058:	2b 91 00 0c 	lw r17,(sp+12)
  10805c:	2b 92 00 08 	lw r18,(sp+8)
  108060:	37 9c 00 24 	addi sp,sp,36
  108064:	c3 a0 00 00 	ret
  108068:	58 60 00 04 	sw (r3+4),r0
  10806c:	34 01 00 00 	mvi r1,0
  108070:	e3 ff ff f3 	bi 10803c <__sprint_r+0xac>
  108074:	f8 00 04 ad 	calli 109328 <__sfvwrite_r>
  108078:	e3 ff ff ef 	bi 108034 <__sprint_r+0xa4>
  10807c:	34 01 00 00 	mvi r1,0
  108080:	e3 ff ff ed 	bi 108034 <__sprint_r+0xa4>

00108084 <_vfiprintf_r>:
  108084:	37 9c fa a8 	addi sp,sp,-1368
  108088:	5b 8b 00 44 	sw (sp+68),r11
  10808c:	5b 8c 00 40 	sw (sp+64),r12
  108090:	5b 8d 00 3c 	sw (sp+60),r13
  108094:	5b 8e 00 38 	sw (sp+56),r14
  108098:	5b 8f 00 34 	sw (sp+52),r15
  10809c:	5b 90 00 30 	sw (sp+48),r16
  1080a0:	5b 91 00 2c 	sw (sp+44),r17
  1080a4:	5b 92 00 28 	sw (sp+40),r18
  1080a8:	5b 93 00 24 	sw (sp+36),r19
  1080ac:	5b 94 00 20 	sw (sp+32),r20
  1080b0:	5b 95 00 1c 	sw (sp+28),r21
  1080b4:	5b 96 00 18 	sw (sp+24),r22
  1080b8:	5b 97 00 14 	sw (sp+20),r23
  1080bc:	5b 98 00 10 	sw (sp+16),r24
  1080c0:	5b 99 00 0c 	sw (sp+12),r25
  1080c4:	5b 9b 00 08 	sw (sp+8),fp
  1080c8:	5b 9d 00 04 	sw (sp+4),ra
  1080cc:	5b 81 00 64 	sw (sp+100),r1
  1080d0:	5b 84 00 58 	sw (sp+88),r4
  1080d4:	b8 40 d8 00 	mv fp,r2
  1080d8:	b8 60 58 00 	mv r11,r3
  1080dc:	44 20 00 03 	be r1,r0,1080e8 <_vfiprintf_r+0x64>
  1080e0:	28 23 00 38 	lw r3,(r1+56)
  1080e4:	44 60 02 bf 	be r3,r0,108be0 <_vfiprintf_r+0xb5c>
  1080e8:	1f 65 00 0c 	lh r5,(fp+12)
  1080ec:	20 a6 ff ff 	andi r6,r5,0xffff
  1080f0:	20 c3 20 00 	andi r3,r6,0x2000
  1080f4:	5c 60 00 08 	bne r3,r0,108114 <_vfiprintf_r+0x90>
  1080f8:	2b 66 00 64 	lw r6,(fp+100)
  1080fc:	34 03 df ff 	mvi r3,-8193
  108100:	38 a5 20 00 	ori r5,r5,0x2000
  108104:	a0 c3 18 00 	and r3,r6,r3
  108108:	0f 65 00 0c 	sh (fp+12),r5
  10810c:	5b 63 00 64 	sw (fp+100),r3
  108110:	20 a6 ff ff 	andi r6,r5,0xffff
  108114:	20 c3 00 08 	andi r3,r6,0x8
  108118:	44 60 03 1d 	be r3,r0,108d8c <_vfiprintf_r+0xd08>
  10811c:	2b 63 00 10 	lw r3,(fp+16)
  108120:	44 60 03 1b 	be r3,r0,108d8c <_vfiprintf_r+0xd08>
  108124:	20 c6 00 1a 	andi r6,r6,0x1a
  108128:	34 03 00 0a 	mvi r3,10
  10812c:	44 c3 02 87 	be r6,r3,108b48 <_vfiprintf_r+0xac4>
  108130:	78 01 00 10 	mvhi r1,0x10
  108134:	5b 81 00 60 	sw (sp+96),r1
  108138:	78 01 00 10 	mvhi r1,0x10
  10813c:	5b 81 00 68 	sw (sp+104),r1
  108140:	78 01 00 10 	mvhi r1,0x10
  108144:	5b 81 00 6c 	sw (sp+108),r1
  108148:	37 82 05 4c 	addi r2,sp,1356
  10814c:	2b 81 00 60 	lw r1,(sp+96)
  108150:	5b 82 00 4c 	sw (sp+76),r2
  108154:	37 82 05 4b 	addi r2,sp,1355
  108158:	5b 82 00 48 	sw (sp+72),r2
  10815c:	78 02 00 10 	mvhi r2,0x10
  108160:	5b 82 00 70 	sw (sp+112),r2
  108164:	38 21 cc 34 	ori r1,r1,0xcc34
  108168:	37 82 04 e4 	addi r2,sp,1252
  10816c:	5b 82 05 4c 	sw (sp+1356),r2
  108170:	b8 40 b0 00 	mv r22,r2
  108174:	5b 81 00 60 	sw (sp+96),r1
  108178:	2b 82 00 4c 	lw r2,(sp+76)
  10817c:	2b 81 00 48 	lw r1,(sp+72)
  108180:	2b 92 00 64 	lw r18,(sp+100)
  108184:	78 11 00 10 	mvhi r17,0x10
  108188:	c8 41 10 00 	sub r2,r2,r1
  10818c:	5b 82 00 78 	sw (sp+120),r2
  108190:	2b 82 00 68 	lw r2,(sp+104)
  108194:	2b 81 00 70 	lw r1,(sp+112)
  108198:	78 19 00 10 	mvhi r25,0x10
  10819c:	38 42 c8 ec 	ori r2,r2,0xc8ec
  1081a0:	5b 82 00 68 	sw (sp+104),r2
  1081a4:	2b 82 00 6c 	lw r2,(sp+108)
  1081a8:	38 21 c9 00 	ori r1,r1,0xc900
  1081ac:	5b 80 05 54 	sw (sp+1364),r0
  1081b0:	38 42 c8 d8 	ori r2,r2,0xc8d8
  1081b4:	5b 80 05 50 	sw (sp+1360),r0
  1081b8:	b9 60 c0 00 	mv r24,r11
  1081bc:	5b 80 00 74 	sw (sp+116),r0
  1081c0:	5b 80 00 50 	sw (sp+80),r0
  1081c4:	34 17 00 07 	mvi r23,7
  1081c8:	5b 81 00 70 	sw (sp+112),r1
  1081cc:	5b 82 00 6c 	sw (sp+108),r2
  1081d0:	3a 31 cd a8 	ori r17,r17,0xcda8
  1081d4:	3b 39 cd 98 	ori r25,r25,0xcd98
  1081d8:	43 03 00 00 	lbu r3,(r24+0)
  1081dc:	7c 65 00 00 	cmpnei r5,r3,0
  1081e0:	7c 64 00 25 	cmpnei r4,r3,37
  1081e4:	a0 a4 20 00 	and r4,r5,r4
  1081e8:	44 80 01 35 	be r4,r0,1086bc <_vfiprintf_r+0x638>
  1081ec:	bb 00 58 00 	mv r11,r24
  1081f0:	35 6b 00 01 	addi r11,r11,1
  1081f4:	41 63 00 00 	lbu r3,(r11+0)
  1081f8:	7c 64 00 25 	cmpnei r4,r3,37
  1081fc:	7c 61 00 00 	cmpnei r1,r3,0
  108200:	a0 81 20 00 	and r4,r4,r1
  108204:	5c 80 ff fb 	bne r4,r0,1081f0 <_vfiprintf_r+0x16c>
  108208:	c9 78 60 00 	sub r12,r11,r24
  10820c:	45 84 00 0f 	be r12,r4,108248 <_vfiprintf_r+0x1c4>
  108210:	2b 88 05 54 	lw r8,(sp+1364)
  108214:	2b 87 05 50 	lw r7,(sp+1360)
  108218:	5a d8 00 00 	sw (r22+0),r24
  10821c:	b5 0c 20 00 	add r4,r8,r12
  108220:	34 e3 00 01 	addi r3,r7,1
  108224:	5a cc 00 04 	sw (r22+4),r12
  108228:	5b 84 05 54 	sw (sp+1364),r4
  10822c:	5b 83 05 50 	sw (sp+1360),r3
  108230:	48 77 02 21 	bg r3,r23,108ab4 <_vfiprintf_r+0xa30>
  108234:	36 d6 00 08 	addi r22,r22,8
  108238:	2b 81 00 50 	lw r1,(sp+80)
  10823c:	b4 2c 08 00 	add r1,r1,r12
  108240:	5b 81 00 50 	sw (sp+80),r1
  108244:	41 63 00 00 	lbu r3,(r11+0)
  108248:	44 60 01 ce 	be r3,r0,108980 <_vfiprintf_r+0x8fc>
  10824c:	35 78 00 01 	addi r24,r11,1
  108250:	33 80 05 5b 	sb (sp+1371),r0
  108254:	34 08 00 00 	mvi r8,0
  108258:	34 0d ff ff 	mvi r13,-1
  10825c:	5b 80 00 54 	sw (sp+84),r0
  108260:	34 0e 00 00 	mvi r14,0
  108264:	43 07 00 00 	lbu r7,(r24+0)
  108268:	37 18 00 01 	addi r24,r24,1
  10826c:	34 e2 ff e0 	addi r2,r7,-32
  108270:	34 01 00 58 	mvi r1,88
  108274:	54 41 01 74 	bgu r2,r1,108844 <_vfiprintf_r+0x7c0>
  108278:	2b 81 00 60 	lw r1,(sp+96)
  10827c:	3c 42 00 02 	sli r2,r2,2
  108280:	b4 22 10 00 	add r2,r1,r2
  108284:	28 42 00 00 	lw r2,(r2+0)
  108288:	c0 40 00 00 	b r2
  10828c:	39 ce 00 10 	ori r14,r14,0x10
  108290:	e3 ff ff f5 	bi 108264 <_vfiprintf_r+0x1e0>
  108294:	39 ce 00 10 	ori r14,r14,0x10
  108298:	21 c6 00 10 	andi r6,r14,0x10
  10829c:	5c c0 00 41 	bne r6,r0,1083a0 <_vfiprintf_r+0x31c>
  1082a0:	21 c7 00 40 	andi r7,r14,0x40
  1082a4:	44 e6 00 3f 	be r7,r6,1083a0 <_vfiprintf_r+0x31c>
  1082a8:	2b 82 00 58 	lw r2,(sp+88)
  1082ac:	34 03 00 00 	mvi r3,0
  1082b0:	2c 4b 00 02 	lhu r11,(r2+2)
  1082b4:	34 42 00 04 	addi r2,r2,4
  1082b8:	5b 82 00 58 	sw (sp+88),r2
  1082bc:	7d 69 00 00 	cmpnei r9,r11,0
  1082c0:	33 80 05 5b 	sb (sp+1371),r0
  1082c4:	48 0d 00 03 	bg r0,r13,1082d0 <_vfiprintf_r+0x24c>
  1082c8:	34 07 ff 7f 	mvi r7,-129
  1082cc:	a1 c7 70 00 	and r14,r14,r7
  1082d0:	7d a6 00 00 	cmpnei r6,r13,0
  1082d4:	b9 26 30 00 	or r6,r9,r6
  1082d8:	44 c0 01 76 	be r6,r0,1088b0 <_vfiprintf_r+0x82c>
  1082dc:	34 06 00 01 	mvi r6,1
  1082e0:	44 66 02 4e 	be r3,r6,108c18 <_vfiprintf_r+0xb94>
  1082e4:	34 06 00 02 	mvi r6,2
  1082e8:	37 8f 05 4c 	addi r15,sp,1356
  1082ec:	44 66 02 3f 	be r3,r6,108be8 <_vfiprintf_r+0xb64>
  1082f0:	21 61 00 07 	andi r1,r11,0x7
  1082f4:	35 ef ff ff 	addi r15,r15,-1
  1082f8:	34 26 00 30 	addi r6,r1,48
  1082fc:	01 6b 00 03 	srui r11,r11,3
  108300:	31 e6 00 00 	sb (r15+0),r6
  108304:	5d 60 ff fb 	bne r11,r0,1082f0 <_vfiprintf_r+0x26c>
  108308:	21 c7 00 01 	andi r7,r14,0x1
  10830c:	44 eb 00 05 	be r7,r11,108320 <_vfiprintf_r+0x29c>
  108310:	34 03 00 30 	mvi r3,48
  108314:	44 c3 02 3e 	be r6,r3,108c0c <_vfiprintf_r+0xb88>
  108318:	35 ef ff ff 	addi r15,r15,-1
  10831c:	31 e3 00 00 	sb (r15+0),r3
  108320:	2b 81 00 4c 	lw r1,(sp+76)
  108324:	c8 2f 80 00 	sub r16,r1,r15
  108328:	5b 8d 00 5c 	sw (sp+92),r13
  10832c:	2b 81 00 5c 	lw r1,(sp+92)
  108330:	ba 00 98 00 	mv r19,r16
  108334:	4e 01 00 02 	bge r16,r1,10833c <_vfiprintf_r+0x2b8>
  108338:	b8 20 98 00 	mv r19,r1
  10833c:	43 86 05 5b 	lbu r6,(sp+1371)
  108340:	7c c6 00 00 	cmpnei r6,r6,0
  108344:	b6 66 98 00 	add r19,r19,r6
  108348:	e0 00 00 79 	bi 10852c <_vfiprintf_r+0x4a8>
  10834c:	39 ce 00 10 	ori r14,r14,0x10
  108350:	21 c6 00 10 	andi r6,r14,0x10
  108354:	5c c0 00 0b 	bne r6,r0,108380 <_vfiprintf_r+0x2fc>
  108358:	21 c7 00 40 	andi r7,r14,0x40
  10835c:	44 e6 00 09 	be r7,r6,108380 <_vfiprintf_r+0x2fc>
  108360:	2b 82 00 58 	lw r2,(sp+88)
  108364:	34 03 00 01 	mvi r3,1
  108368:	2c 4b 00 02 	lhu r11,(r2+2)
  10836c:	34 42 00 04 	addi r2,r2,4
  108370:	5b 82 00 58 	sw (sp+88),r2
  108374:	7d 69 00 00 	cmpnei r9,r11,0
  108378:	33 80 05 5b 	sb (sp+1371),r0
  10837c:	e3 ff ff d2 	bi 1082c4 <_vfiprintf_r+0x240>
  108380:	2b 81 00 58 	lw r1,(sp+88)
  108384:	34 03 00 01 	mvi r3,1
  108388:	28 2b 00 00 	lw r11,(r1+0)
  10838c:	34 21 00 04 	addi r1,r1,4
  108390:	5b 81 00 58 	sw (sp+88),r1
  108394:	7d 69 00 00 	cmpnei r9,r11,0
  108398:	33 80 05 5b 	sb (sp+1371),r0
  10839c:	e3 ff ff ca 	bi 1082c4 <_vfiprintf_r+0x240>
  1083a0:	2b 81 00 58 	lw r1,(sp+88)
  1083a4:	34 03 00 00 	mvi r3,0
  1083a8:	28 2b 00 00 	lw r11,(r1+0)
  1083ac:	34 21 00 04 	addi r1,r1,4
  1083b0:	5b 81 00 58 	sw (sp+88),r1
  1083b4:	7d 69 00 00 	cmpnei r9,r11,0
  1083b8:	33 80 05 5b 	sb (sp+1371),r0
  1083bc:	e3 ff ff c2 	bi 1082c4 <_vfiprintf_r+0x240>
  1083c0:	2b 81 00 58 	lw r1,(sp+88)
  1083c4:	2b 82 00 58 	lw r2,(sp+88)
  1083c8:	28 21 00 00 	lw r1,(r1+0)
  1083cc:	34 42 00 04 	addi r2,r2,4
  1083d0:	5b 82 00 58 	sw (sp+88),r2
  1083d4:	5b 81 00 54 	sw (sp+84),r1
  1083d8:	4c 20 ff a3 	bge r1,r0,108264 <_vfiprintf_r+0x1e0>
  1083dc:	c8 01 08 00 	sub r1,r0,r1
  1083e0:	5b 81 00 54 	sw (sp+84),r1
  1083e4:	39 ce 00 04 	ori r14,r14,0x4
  1083e8:	e3 ff ff 9f 	bi 108264 <_vfiprintf_r+0x1e0>
  1083ec:	2b 82 00 58 	lw r2,(sp+88)
  1083f0:	2b 81 00 68 	lw r1,(sp+104)
  1083f4:	34 06 00 30 	mvi r6,48
  1083f8:	28 4b 00 00 	lw r11,(r2+0)
  1083fc:	33 86 05 58 	sb (sp+1368),r6
  108400:	34 42 00 04 	addi r2,r2,4
  108404:	34 06 00 78 	mvi r6,120
  108408:	39 ce 00 02 	ori r14,r14,0x2
  10840c:	33 86 05 59 	sb (sp+1369),r6
  108410:	7d 69 00 00 	cmpnei r9,r11,0
  108414:	5b 82 00 58 	sw (sp+88),r2
  108418:	5b 81 00 74 	sw (sp+116),r1
  10841c:	34 03 00 02 	mvi r3,2
  108420:	33 80 05 5b 	sb (sp+1371),r0
  108424:	e3 ff ff a8 	bi 1082c4 <_vfiprintf_r+0x240>
  108428:	33 88 05 5b 	sb (sp+1371),r8
  10842c:	21 c3 00 10 	andi r3,r14,0x10
  108430:	5c 60 02 1f 	bne r3,r0,108cac <_vfiprintf_r+0xc28>
  108434:	21 c4 00 40 	andi r4,r14,0x40
  108438:	44 83 02 3c 	be r4,r3,108d28 <_vfiprintf_r+0xca4>
  10843c:	2b 81 00 58 	lw r1,(sp+88)
  108440:	2f 82 00 52 	lhu r2,(sp+82)
  108444:	28 24 00 00 	lw r4,(r1+0)
  108448:	34 21 00 04 	addi r1,r1,4
  10844c:	5b 81 00 58 	sw (sp+88),r1
  108450:	0c 82 00 00 	sh (r4+0),r2
  108454:	e3 ff ff 61 	bi 1081d8 <_vfiprintf_r+0x154>
  108458:	2b 82 00 68 	lw r2,(sp+104)
  10845c:	33 88 05 5b 	sb (sp+1371),r8
  108460:	5b 82 00 74 	sw (sp+116),r2
  108464:	21 c6 00 10 	andi r6,r14,0x10
  108468:	5c c0 00 03 	bne r6,r0,108474 <_vfiprintf_r+0x3f0>
  10846c:	21 c8 00 40 	andi r8,r14,0x40
  108470:	5d 06 02 16 	bne r8,r6,108cc8 <_vfiprintf_r+0xc44>
  108474:	2b 81 00 58 	lw r1,(sp+88)
  108478:	28 2b 00 00 	lw r11,(r1+0)
  10847c:	34 21 00 04 	addi r1,r1,4
  108480:	5b 81 00 58 	sw (sp+88),r1
  108484:	7d 69 00 00 	cmpnei r9,r11,0
  108488:	34 03 00 02 	mvi r3,2
  10848c:	a1 c9 40 00 	and r8,r14,r9
  108490:	45 00 ff 8c 	be r8,r0,1082c0 <_vfiprintf_r+0x23c>
  108494:	34 06 00 30 	mvi r6,48
  108498:	33 86 05 58 	sb (sp+1368),r6
  10849c:	33 87 05 59 	sb (sp+1369),r7
  1084a0:	39 ce 00 02 	ori r14,r14,0x2
  1084a4:	34 09 00 01 	mvi r9,1
  1084a8:	33 80 05 5b 	sb (sp+1371),r0
  1084ac:	e3 ff ff 86 	bi 1082c4 <_vfiprintf_r+0x240>
  1084b0:	39 ce 00 40 	ori r14,r14,0x40
  1084b4:	e3 ff ff 6c 	bi 108264 <_vfiprintf_r+0x1e0>
  1084b8:	33 88 05 5b 	sb (sp+1371),r8
  1084bc:	21 c6 00 10 	andi r6,r14,0x10
  1084c0:	5c c0 00 0c 	bne r6,r0,1084f0 <_vfiprintf_r+0x46c>
  1084c4:	21 c7 00 40 	andi r7,r14,0x40
  1084c8:	44 e6 00 0a 	be r7,r6,1084f0 <_vfiprintf_r+0x46c>
  1084cc:	2b 81 00 58 	lw r1,(sp+88)
  1084d0:	28 2b 00 00 	lw r11,(r1+0)
  1084d4:	34 21 00 04 	addi r1,r1,4
  1084d8:	5b 81 00 58 	sw (sp+88),r1
  1084dc:	dd 60 58 00 	sexth r11,r11
  1084e0:	48 0b 02 01 	bg r0,r11,108ce4 <_vfiprintf_r+0xc60>
  1084e4:	7d 69 00 00 	cmpnei r9,r11,0
  1084e8:	34 03 00 01 	mvi r3,1
  1084ec:	e3 ff ff 76 	bi 1082c4 <_vfiprintf_r+0x240>
  1084f0:	2b 82 00 58 	lw r2,(sp+88)
  1084f4:	28 4b 00 00 	lw r11,(r2+0)
  1084f8:	34 42 00 04 	addi r2,r2,4
  1084fc:	5b 82 00 58 	sw (sp+88),r2
  108500:	e3 ff ff f8 	bi 1084e0 <_vfiprintf_r+0x45c>
  108504:	2b 81 00 58 	lw r1,(sp+88)
  108508:	34 13 00 01 	mvi r19,1
  10850c:	34 10 00 01 	mvi r16,1
  108510:	28 26 00 00 	lw r6,(r1+0)
  108514:	34 21 00 04 	addi r1,r1,4
  108518:	33 80 05 5b 	sb (sp+1371),r0
  10851c:	33 86 05 24 	sb (sp+1316),r6
  108520:	5b 81 00 58 	sw (sp+88),r1
  108524:	37 8f 05 24 	addi r15,sp,1316
  108528:	5b 80 00 5c 	sw (sp+92),r0
  10852c:	21 cb 00 02 	andi r11,r14,0x2
  108530:	45 60 00 02 	be r11,r0,108538 <_vfiprintf_r+0x4b4>
  108534:	36 73 00 02 	addi r19,r19,2
  108538:	21 d4 00 84 	andi r20,r14,0x84
  10853c:	5e 80 00 04 	bne r20,r0,10854c <_vfiprintf_r+0x4c8>
  108540:	2b 82 00 54 	lw r2,(sp+84)
  108544:	c8 53 60 00 	sub r12,r2,r19
  108548:	49 94 00 e4 	bg r12,r20,1088d8 <_vfiprintf_r+0x854>
  10854c:	2b 88 05 54 	lw r8,(sp+1364)
  108550:	2b 87 05 50 	lw r7,(sp+1360)
  108554:	36 c9 00 08 	addi r9,r22,8
  108558:	43 86 05 5b 	lbu r6,(sp+1371)
  10855c:	44 c0 00 0c 	be r6,r0,10858c <_vfiprintf_r+0x508>
  108560:	35 08 00 01 	addi r8,r8,1
  108564:	34 e7 00 01 	addi r7,r7,1
  108568:	37 81 05 5b 	addi r1,sp,1371
  10856c:	34 06 00 01 	mvi r6,1
  108570:	5a c1 00 00 	sw (r22+0),r1
  108574:	5a c6 00 04 	sw (r22+4),r6
  108578:	5b 88 05 54 	sw (sp+1364),r8
  10857c:	5b 87 05 50 	sw (sp+1360),r7
  108580:	48 f7 01 68 	bg r7,r23,108b20 <_vfiprintf_r+0xa9c>
  108584:	b9 20 b0 00 	mv r22,r9
  108588:	35 29 00 08 	addi r9,r9,8
  10858c:	45 60 00 0c 	be r11,r0,1085bc <_vfiprintf_r+0x538>
  108590:	35 08 00 02 	addi r8,r8,2
  108594:	34 e7 00 01 	addi r7,r7,1
  108598:	37 82 05 58 	addi r2,sp,1368
  10859c:	34 06 00 02 	mvi r6,2
  1085a0:	5a c2 00 00 	sw (r22+0),r2
  1085a4:	5a c6 00 04 	sw (r22+4),r6
  1085a8:	5b 88 05 54 	sw (sp+1364),r8
  1085ac:	5b 87 05 50 	sw (sp+1360),r7
  1085b0:	48 f7 01 52 	bg r7,r23,108af8 <_vfiprintf_r+0xa74>
  1085b4:	b9 20 b0 00 	mv r22,r9
  1085b8:	35 29 00 08 	addi r9,r9,8
  1085bc:	34 06 00 80 	mvi r6,128
  1085c0:	46 86 01 0f 	be r20,r6,1089fc <_vfiprintf_r+0x978>
  1085c4:	2b 82 00 5c 	lw r2,(sp+92)
  1085c8:	c8 50 58 00 	sub r11,r2,r16
  1085cc:	4c 0b 00 19 	bge r0,r11,108630 <_vfiprintf_r+0x5ac>
  1085d0:	34 06 00 10 	mvi r6,16
  1085d4:	4c cb 01 d2 	bge r6,r11,108d1c <_vfiprintf_r+0xc98>
  1085d8:	bb 20 a0 00 	mv r20,r25
  1085dc:	34 0c 00 10 	mvi r12,16
  1085e0:	35 08 00 10 	addi r8,r8,16
  1085e4:	34 e7 00 01 	addi r7,r7,1
  1085e8:	5a d9 00 00 	sw (r22+0),r25
  1085ec:	5a cc 00 04 	sw (r22+4),r12
  1085f0:	5b 88 05 54 	sw (sp+1364),r8
  1085f4:	5b 87 05 50 	sw (sp+1360),r7
  1085f8:	48 f7 00 9b 	bg r7,r23,108864 <_vfiprintf_r+0x7e0>
  1085fc:	36 d6 00 08 	addi r22,r22,8
  108600:	36 c6 00 08 	addi r6,r22,8
  108604:	35 6b ff f0 	addi r11,r11,-16
  108608:	49 6c ff f6 	bg r11,r12,1085e0 <_vfiprintf_r+0x55c>
  10860c:	b5 0b 40 00 	add r8,r8,r11
  108610:	34 e7 00 01 	addi r7,r7,1
  108614:	5a d4 00 00 	sw (r22+0),r20
  108618:	5a cb 00 04 	sw (r22+4),r11
  10861c:	5b 88 05 54 	sw (sp+1364),r8
  108620:	5b 87 05 50 	sw (sp+1360),r7
  108624:	48 f7 01 2b 	bg r7,r23,108ad0 <_vfiprintf_r+0xa4c>
  108628:	34 c9 00 08 	addi r9,r6,8
  10862c:	b8 c0 b0 00 	mv r22,r6
  108630:	b5 10 40 00 	add r8,r8,r16
  108634:	34 e7 00 01 	addi r7,r7,1
  108638:	5a cf 00 00 	sw (r22+0),r15
  10863c:	5a d0 00 04 	sw (r22+4),r16
  108640:	5b 88 05 54 	sw (sp+1364),r8
  108644:	5b 87 05 50 	sw (sp+1360),r7
  108648:	4e e7 00 08 	bge r23,r7,108668 <_vfiprintf_r+0x5e4>
  10864c:	ba 40 08 00 	mv r1,r18
  108650:	bb 60 10 00 	mv r2,fp
  108654:	37 83 05 4c 	addi r3,sp,1356
  108658:	fb ff fe 4e 	calli 107f90 <__sprint_r>
  10865c:	5c 20 00 cf 	bne r1,r0,108998 <_vfiprintf_r+0x914>
  108660:	2b 88 05 54 	lw r8,(sp+1364)
  108664:	37 89 04 e4 	addi r9,sp,1252
  108668:	21 c4 00 04 	andi r4,r14,0x4
  10866c:	44 80 00 04 	be r4,r0,10867c <_vfiprintf_r+0x5f8>
  108670:	2b 81 00 54 	lw r1,(sp+84)
  108674:	c8 33 58 00 	sub r11,r1,r19
  108678:	49 60 00 13 	bg r11,r0,1086c4 <_vfiprintf_r+0x640>
  10867c:	b9 00 20 00 	mv r4,r8
  108680:	2b 82 00 54 	lw r2,(sp+84)
  108684:	ba 60 18 00 	mv r3,r19
  108688:	4e 62 00 02 	bge r19,r2,108690 <_vfiprintf_r+0x60c>
  10868c:	b8 40 18 00 	mv r3,r2
  108690:	2b 81 00 50 	lw r1,(sp+80)
  108694:	b4 23 08 00 	add r1,r1,r3
  108698:	5b 81 00 50 	sw (sp+80),r1
  10869c:	5c 80 01 00 	bne r4,r0,108a9c <_vfiprintf_r+0xa18>
  1086a0:	5b 80 05 50 	sw (sp+1360),r0
  1086a4:	43 03 00 00 	lbu r3,(r24+0)
  1086a8:	37 96 04 e4 	addi r22,sp,1252
  1086ac:	7c 65 00 00 	cmpnei r5,r3,0
  1086b0:	7c 64 00 25 	cmpnei r4,r3,37
  1086b4:	a0 a4 20 00 	and r4,r5,r4
  1086b8:	5c 80 fe cd 	bne r4,r0,1081ec <_vfiprintf_r+0x168>
  1086bc:	bb 00 58 00 	mv r11,r24
  1086c0:	e3 ff fe e2 	bi 108248 <_vfiprintf_r+0x1c4>
  1086c4:	34 04 00 10 	mvi r4,16
  1086c8:	4c 8b 01 ae 	bge r4,r11,108d80 <_vfiprintf_r+0xcfc>
  1086cc:	2b 87 05 50 	lw r7,(sp+1360)
  1086d0:	ba 20 a8 00 	mv r21,r17
  1086d4:	34 0c 00 10 	mvi r12,16
  1086d8:	35 08 00 10 	addi r8,r8,16
  1086dc:	34 e7 00 01 	addi r7,r7,1
  1086e0:	59 31 00 00 	sw (r9+0),r17
  1086e4:	59 2c 00 04 	sw (r9+4),r12
  1086e8:	5b 88 05 54 	sw (sp+1364),r8
  1086ec:	5b 87 05 50 	sw (sp+1360),r7
  1086f0:	48 f7 00 67 	bg r7,r23,10888c <_vfiprintf_r+0x808>
  1086f4:	35 29 00 08 	addi r9,r9,8
  1086f8:	35 6b ff f0 	addi r11,r11,-16
  1086fc:	49 6c ff f7 	bg r11,r12,1086d8 <_vfiprintf_r+0x654>
  108700:	b5 68 20 00 	add r4,r11,r8
  108704:	34 e7 00 01 	addi r7,r7,1
  108708:	59 35 00 00 	sw (r9+0),r21
  10870c:	59 2b 00 04 	sw (r9+4),r11
  108710:	5b 84 05 54 	sw (sp+1364),r4
  108714:	5b 87 05 50 	sw (sp+1360),r7
  108718:	4e e7 ff da 	bge r23,r7,108680 <_vfiprintf_r+0x5fc>
  10871c:	ba 40 08 00 	mv r1,r18
  108720:	bb 60 10 00 	mv r2,fp
  108724:	37 83 05 4c 	addi r3,sp,1356
  108728:	fb ff fe 1a 	calli 107f90 <__sprint_r>
  10872c:	5c 20 00 9b 	bne r1,r0,108998 <_vfiprintf_r+0x914>
  108730:	2b 84 05 54 	lw r4,(sp+1364)
  108734:	e3 ff ff d3 	bi 108680 <_vfiprintf_r+0x5fc>
  108738:	33 88 05 5b 	sb (sp+1371),r8
  10873c:	39 ce 00 10 	ori r14,r14,0x10
  108740:	e3 ff ff 5f 	bi 1084bc <_vfiprintf_r+0x438>
  108744:	34 01 00 00 	mvi r1,0
  108748:	34 e3 ff d0 	addi r3,r7,-48
  10874c:	3c 22 00 01 	sli r2,r1,1
  108750:	43 07 00 00 	lbu r7,(r24+0)
  108754:	3c 21 00 03 	sli r1,r1,3
  108758:	37 18 00 01 	addi r24,r24,1
  10875c:	b4 41 08 00 	add r1,r2,r1
  108760:	b4 61 08 00 	add r1,r3,r1
  108764:	34 02 00 09 	mvi r2,9
  108768:	34 e3 ff d0 	addi r3,r7,-48
  10876c:	50 43 ff f8 	bgeu r2,r3,10874c <_vfiprintf_r+0x6c8>
  108770:	5b 81 00 54 	sw (sp+84),r1
  108774:	e3 ff fe be 	bi 10826c <_vfiprintf_r+0x1e8>
  108778:	2b 82 00 6c 	lw r2,(sp+108)
  10877c:	33 88 05 5b 	sb (sp+1371),r8
  108780:	5b 82 00 74 	sw (sp+116),r2
  108784:	e3 ff ff 38 	bi 108464 <_vfiprintf_r+0x3e0>
  108788:	2b 86 00 58 	lw r6,(sp+88)
  10878c:	33 80 05 5b 	sb (sp+1371),r0
  108790:	28 cf 00 00 	lw r15,(r6+0)
  108794:	34 c2 00 04 	addi r2,r6,4
  108798:	5b 82 00 58 	sw (sp+88),r2
  10879c:	45 e0 01 6f 	be r15,r0,108d58 <_vfiprintf_r+0xcd4>
  1087a0:	48 0d 01 69 	bg r0,r13,108d44 <_vfiprintf_r+0xcc0>
  1087a4:	b9 e0 08 00 	mv r1,r15
  1087a8:	34 02 00 00 	mvi r2,0
  1087ac:	b9 a0 18 00 	mv r3,r13
  1087b0:	fb ff f8 a4 	calli 106a40 <memchr>
  1087b4:	5b 80 00 5c 	sw (sp+92),r0
  1087b8:	b9 a0 80 00 	mv r16,r13
  1087bc:	44 20 fe dc 	be r1,r0,10832c <_vfiprintf_r+0x2a8>
  1087c0:	c8 2f 80 00 	sub r16,r1,r15
  1087c4:	4a 0d 01 46 	bg r16,r13,108cdc <_vfiprintf_r+0xc58>
  1087c8:	e3 ff fe d9 	bi 10832c <_vfiprintf_r+0x2a8>
  1087cc:	34 08 00 2b 	mvi r8,43
  1087d0:	e3 ff fe a5 	bi 108264 <_vfiprintf_r+0x1e0>
  1087d4:	39 ce 00 80 	ori r14,r14,0x80
  1087d8:	e3 ff fe a3 	bi 108264 <_vfiprintf_r+0x1e0>
  1087dc:	43 07 00 00 	lbu r7,(r24+0)
  1087e0:	34 01 00 2a 	mvi r1,42
  1087e4:	37 18 00 01 	addi r24,r24,1
  1087e8:	44 e1 01 78 	be r7,r1,108dc8 <_vfiprintf_r+0xd44>
  1087ec:	34 e3 ff d0 	addi r3,r7,-48
  1087f0:	34 02 00 09 	mvi r2,9
  1087f4:	34 0d 00 00 	mvi r13,0
  1087f8:	50 43 00 02 	bgeu r2,r3,108800 <_vfiprintf_r+0x77c>
  1087fc:	e3 ff fe 9c 	bi 10826c <_vfiprintf_r+0x1e8>
  108800:	3d a2 00 01 	sli r2,r13,1
  108804:	3d a1 00 03 	sli r1,r13,3
  108808:	43 07 00 00 	lbu r7,(r24+0)
  10880c:	b4 41 08 00 	add r1,r2,r1
  108810:	b4 23 68 00 	add r13,r1,r3
  108814:	34 02 00 09 	mvi r2,9
  108818:	34 e3 ff d0 	addi r3,r7,-48
  10881c:	37 18 00 01 	addi r24,r24,1
  108820:	50 43 ff f8 	bgeu r2,r3,108800 <_vfiprintf_r+0x77c>
  108824:	4d a0 fe 92 	bge r13,r0,10826c <_vfiprintf_r+0x1e8>
  108828:	34 0d ff ff 	mvi r13,-1
  10882c:	e3 ff fe 90 	bi 10826c <_vfiprintf_r+0x1e8>
  108830:	39 ce 00 01 	ori r14,r14,0x1
  108834:	e3 ff fe 8c 	bi 108264 <_vfiprintf_r+0x1e0>
  108838:	5d 00 fe 8b 	bne r8,r0,108264 <_vfiprintf_r+0x1e0>
  10883c:	34 08 00 20 	mvi r8,32
  108840:	e3 ff fe 89 	bi 108264 <_vfiprintf_r+0x1e0>
  108844:	33 88 05 5b 	sb (sp+1371),r8
  108848:	44 e0 00 4e 	be r7,r0,108980 <_vfiprintf_r+0x8fc>
  10884c:	33 87 05 24 	sb (sp+1316),r7
  108850:	33 80 05 5b 	sb (sp+1371),r0
  108854:	34 13 00 01 	mvi r19,1
  108858:	34 10 00 01 	mvi r16,1
  10885c:	37 8f 05 24 	addi r15,sp,1316
  108860:	e3 ff ff 32 	bi 108528 <_vfiprintf_r+0x4a4>
  108864:	ba 40 08 00 	mv r1,r18
  108868:	bb 60 10 00 	mv r2,fp
  10886c:	37 83 05 4c 	addi r3,sp,1356
  108870:	fb ff fd c8 	calli 107f90 <__sprint_r>
  108874:	5c 20 00 49 	bne r1,r0,108998 <_vfiprintf_r+0x914>
  108878:	2b 88 05 54 	lw r8,(sp+1364)
  10887c:	2b 87 05 50 	lw r7,(sp+1360)
  108880:	37 86 04 ec 	addi r6,sp,1260
  108884:	37 96 04 e4 	addi r22,sp,1252
  108888:	e3 ff ff 5f 	bi 108604 <_vfiprintf_r+0x580>
  10888c:	ba 40 08 00 	mv r1,r18
  108890:	bb 60 10 00 	mv r2,fp
  108894:	37 83 05 4c 	addi r3,sp,1356
  108898:	fb ff fd be 	calli 107f90 <__sprint_r>
  10889c:	5c 20 00 3f 	bne r1,r0,108998 <_vfiprintf_r+0x914>
  1088a0:	2b 88 05 54 	lw r8,(sp+1364)
  1088a4:	2b 87 05 50 	lw r7,(sp+1360)
  1088a8:	37 89 04 e4 	addi r9,sp,1252
  1088ac:	e3 ff ff 93 	bi 1086f8 <_vfiprintf_r+0x674>
  1088b0:	34 10 00 00 	mvi r16,0
  1088b4:	37 8f 05 4c 	addi r15,sp,1356
  1088b8:	5c 70 fe 9c 	bne r3,r16,108328 <_vfiprintf_r+0x2a4>
  1088bc:	21 c6 00 01 	andi r6,r14,0x1
  1088c0:	44 d0 fe 9a 	be r6,r16,108328 <_vfiprintf_r+0x2a4>
  1088c4:	34 06 00 30 	mvi r6,48
  1088c8:	33 86 05 4b 	sb (sp+1355),r6
  1088cc:	2b 90 00 78 	lw r16,(sp+120)
  1088d0:	37 8f 05 4b 	addi r15,sp,1355
  1088d4:	e3 ff fe 95 	bi 108328 <_vfiprintf_r+0x2a4>
  1088d8:	34 06 00 10 	mvi r6,16
  1088dc:	49 86 00 0f 	bg r12,r6,108918 <_vfiprintf_r+0x894>
  1088e0:	2b 88 05 54 	lw r8,(sp+1364)
  1088e4:	2b 87 05 50 	lw r7,(sp+1360)
  1088e8:	36 c6 00 08 	addi r6,r22,8
  1088ec:	ba 20 a8 00 	mv r21,r17
  1088f0:	b5 0c 40 00 	add r8,r8,r12
  1088f4:	34 e7 00 01 	addi r7,r7,1
  1088f8:	5a d5 00 00 	sw (r22+0),r21
  1088fc:	5a cc 00 04 	sw (r22+4),r12
  108900:	5b 88 05 54 	sw (sp+1364),r8
  108904:	5b 87 05 50 	sw (sp+1360),r7
  108908:	48 f7 00 df 	bg r7,r23,108c84 <_vfiprintf_r+0xc00>
  10890c:	34 c9 00 08 	addi r9,r6,8
  108910:	b8 c0 b0 00 	mv r22,r6
  108914:	e3 ff ff 11 	bi 108558 <_vfiprintf_r+0x4d4>
  108918:	2b 88 05 54 	lw r8,(sp+1364)
  10891c:	2b 87 05 50 	lw r7,(sp+1360)
  108920:	ba 20 a8 00 	mv r21,r17
  108924:	34 0d 00 10 	mvi r13,16
  108928:	35 08 00 10 	addi r8,r8,16
  10892c:	34 e7 00 01 	addi r7,r7,1
  108930:	5a d1 00 00 	sw (r22+0),r17
  108934:	5a cd 00 04 	sw (r22+4),r13
  108938:	5b 88 05 54 	sw (sp+1364),r8
  10893c:	5b 87 05 50 	sw (sp+1360),r7
  108940:	48 f7 00 06 	bg r7,r23,108958 <_vfiprintf_r+0x8d4>
  108944:	36 d6 00 08 	addi r22,r22,8
  108948:	36 c6 00 08 	addi r6,r22,8
  10894c:	35 8c ff f0 	addi r12,r12,-16
  108950:	49 8d ff f6 	bg r12,r13,108928 <_vfiprintf_r+0x8a4>
  108954:	e3 ff ff e7 	bi 1088f0 <_vfiprintf_r+0x86c>
  108958:	ba 40 08 00 	mv r1,r18
  10895c:	bb 60 10 00 	mv r2,fp
  108960:	37 83 05 4c 	addi r3,sp,1356
  108964:	fb ff fd 8b 	calli 107f90 <__sprint_r>
  108968:	5c 20 00 0c 	bne r1,r0,108998 <_vfiprintf_r+0x914>
  10896c:	2b 88 05 54 	lw r8,(sp+1364)
  108970:	2b 87 05 50 	lw r7,(sp+1360)
  108974:	37 86 04 ec 	addi r6,sp,1260
  108978:	37 96 04 e4 	addi r22,sp,1252
  10897c:	e3 ff ff f4 	bi 10894c <_vfiprintf_r+0x8c8>
  108980:	2b 82 05 54 	lw r2,(sp+1364)
  108984:	44 40 00 05 	be r2,r0,108998 <_vfiprintf_r+0x914>
  108988:	2b 81 00 64 	lw r1,(sp+100)
  10898c:	bb 60 10 00 	mv r2,fp
  108990:	37 83 05 4c 	addi r3,sp,1356
  108994:	fb ff fd 7f 	calli 107f90 <__sprint_r>
  108998:	2f 62 00 0c 	lhu r2,(fp+12)
  10899c:	20 42 00 40 	andi r2,r2,0x40
  1089a0:	44 40 00 03 	be r2,r0,1089ac <_vfiprintf_r+0x928>
  1089a4:	34 02 ff ff 	mvi r2,-1
  1089a8:	5b 82 00 50 	sw (sp+80),r2
  1089ac:	2b 81 00 50 	lw r1,(sp+80)
  1089b0:	2b 9d 00 04 	lw ra,(sp+4)
  1089b4:	2b 8b 00 44 	lw r11,(sp+68)
  1089b8:	2b 8c 00 40 	lw r12,(sp+64)
  1089bc:	2b 8d 00 3c 	lw r13,(sp+60)
  1089c0:	2b 8e 00 38 	lw r14,(sp+56)
  1089c4:	2b 8f 00 34 	lw r15,(sp+52)
  1089c8:	2b 90 00 30 	lw r16,(sp+48)
  1089cc:	2b 91 00 2c 	lw r17,(sp+44)
  1089d0:	2b 92 00 28 	lw r18,(sp+40)
  1089d4:	2b 93 00 24 	lw r19,(sp+36)
  1089d8:	2b 94 00 20 	lw r20,(sp+32)
  1089dc:	2b 95 00 1c 	lw r21,(sp+28)
  1089e0:	2b 96 00 18 	lw r22,(sp+24)
  1089e4:	2b 97 00 14 	lw r23,(sp+20)
  1089e8:	2b 98 00 10 	lw r24,(sp+16)
  1089ec:	2b 99 00 0c 	lw r25,(sp+12)
  1089f0:	2b 9b 00 08 	lw fp,(sp+8)
  1089f4:	37 9c 05 58 	addi sp,sp,1368
  1089f8:	c3 a0 00 00 	ret
  1089fc:	2b 81 00 54 	lw r1,(sp+84)
  108a00:	c8 33 60 00 	sub r12,r1,r19
  108a04:	49 80 00 03 	bg r12,r0,108a10 <_vfiprintf_r+0x98c>
  108a08:	36 c9 00 08 	addi r9,r22,8
  108a0c:	e3 ff fe ee 	bi 1085c4 <_vfiprintf_r+0x540>
  108a10:	34 06 00 10 	mvi r6,16
  108a14:	4c cc 00 e7 	bge r6,r12,108db0 <_vfiprintf_r+0xd2c>
  108a18:	bb 20 a0 00 	mv r20,r25
  108a1c:	34 0d 00 10 	mvi r13,16
  108a20:	35 08 00 10 	addi r8,r8,16
  108a24:	34 e7 00 01 	addi r7,r7,1
  108a28:	5a d9 00 00 	sw (r22+0),r25
  108a2c:	5a cd 00 04 	sw (r22+4),r13
  108a30:	5b 88 05 54 	sw (sp+1364),r8
  108a34:	5b 87 05 50 	sw (sp+1360),r7
  108a38:	48 f7 00 0f 	bg r7,r23,108a74 <_vfiprintf_r+0x9f0>
  108a3c:	36 d6 00 08 	addi r22,r22,8
  108a40:	36 c6 00 08 	addi r6,r22,8
  108a44:	35 8c ff f0 	addi r12,r12,-16
  108a48:	49 8d ff f6 	bg r12,r13,108a20 <_vfiprintf_r+0x99c>
  108a4c:	b5 0c 40 00 	add r8,r8,r12
  108a50:	34 e7 00 01 	addi r7,r7,1
  108a54:	5a d4 00 00 	sw (r22+0),r20
  108a58:	5a cc 00 04 	sw (r22+4),r12
  108a5c:	5b 88 05 54 	sw (sp+1364),r8
  108a60:	5b 87 05 50 	sw (sp+1360),r7
  108a64:	48 f7 00 a4 	bg r7,r23,108cf4 <_vfiprintf_r+0xc70>
  108a68:	34 c9 00 08 	addi r9,r6,8
  108a6c:	b8 c0 b0 00 	mv r22,r6
  108a70:	e3 ff fe d5 	bi 1085c4 <_vfiprintf_r+0x540>
  108a74:	ba 40 08 00 	mv r1,r18
  108a78:	bb 60 10 00 	mv r2,fp
  108a7c:	37 83 05 4c 	addi r3,sp,1356
  108a80:	fb ff fd 44 	calli 107f90 <__sprint_r>
  108a84:	5c 20 ff c5 	bne r1,r0,108998 <_vfiprintf_r+0x914>
  108a88:	2b 88 05 54 	lw r8,(sp+1364)
  108a8c:	2b 87 05 50 	lw r7,(sp+1360)
  108a90:	37 86 04 ec 	addi r6,sp,1260
  108a94:	37 96 04 e4 	addi r22,sp,1252
  108a98:	e3 ff ff eb 	bi 108a44 <_vfiprintf_r+0x9c0>
  108a9c:	ba 40 08 00 	mv r1,r18
  108aa0:	bb 60 10 00 	mv r2,fp
  108aa4:	37 83 05 4c 	addi r3,sp,1356
  108aa8:	fb ff fd 3a 	calli 107f90 <__sprint_r>
  108aac:	44 20 fe fd 	be r1,r0,1086a0 <_vfiprintf_r+0x61c>
  108ab0:	e3 ff ff ba 	bi 108998 <_vfiprintf_r+0x914>
  108ab4:	ba 40 08 00 	mv r1,r18
  108ab8:	bb 60 10 00 	mv r2,fp
  108abc:	37 83 05 4c 	addi r3,sp,1356
  108ac0:	fb ff fd 34 	calli 107f90 <__sprint_r>
  108ac4:	5c 20 ff b5 	bne r1,r0,108998 <_vfiprintf_r+0x914>
  108ac8:	37 96 04 e4 	addi r22,sp,1252
  108acc:	e3 ff fd db 	bi 108238 <_vfiprintf_r+0x1b4>
  108ad0:	ba 40 08 00 	mv r1,r18
  108ad4:	bb 60 10 00 	mv r2,fp
  108ad8:	37 83 05 4c 	addi r3,sp,1356
  108adc:	fb ff fd 2d 	calli 107f90 <__sprint_r>
  108ae0:	5c 20 ff ae 	bne r1,r0,108998 <_vfiprintf_r+0x914>
  108ae4:	2b 88 05 54 	lw r8,(sp+1364)
  108ae8:	2b 87 05 50 	lw r7,(sp+1360)
  108aec:	37 89 04 ec 	addi r9,sp,1260
  108af0:	37 96 04 e4 	addi r22,sp,1252
  108af4:	e3 ff fe cf 	bi 108630 <_vfiprintf_r+0x5ac>
  108af8:	ba 40 08 00 	mv r1,r18
  108afc:	bb 60 10 00 	mv r2,fp
  108b00:	37 83 05 4c 	addi r3,sp,1356
  108b04:	fb ff fd 23 	calli 107f90 <__sprint_r>
  108b08:	5c 20 ff a4 	bne r1,r0,108998 <_vfiprintf_r+0x914>
  108b0c:	2b 88 05 54 	lw r8,(sp+1364)
  108b10:	2b 87 05 50 	lw r7,(sp+1360)
  108b14:	37 89 04 ec 	addi r9,sp,1260
  108b18:	37 96 04 e4 	addi r22,sp,1252
  108b1c:	e3 ff fe a8 	bi 1085bc <_vfiprintf_r+0x538>
  108b20:	ba 40 08 00 	mv r1,r18
  108b24:	bb 60 10 00 	mv r2,fp
  108b28:	37 83 05 4c 	addi r3,sp,1356
  108b2c:	fb ff fd 19 	calli 107f90 <__sprint_r>
  108b30:	5c 20 ff 9a 	bne r1,r0,108998 <_vfiprintf_r+0x914>
  108b34:	2b 88 05 54 	lw r8,(sp+1364)
  108b38:	2b 87 05 50 	lw r7,(sp+1360)
  108b3c:	37 89 04 ec 	addi r9,sp,1260
  108b40:	37 96 04 e4 	addi r22,sp,1252
  108b44:	e3 ff fe 92 	bi 10858c <_vfiprintf_r+0x508>
  108b48:	1f 66 00 0e 	lh r6,(fp+14)
  108b4c:	48 06 fd 79 	bg r0,r6,108130 <_vfiprintf_r+0xac>
  108b50:	2b 6d 00 64 	lw r13,(fp+100)
  108b54:	2b 6a 00 1c 	lw r10,(fp+28)
  108b58:	2b 69 00 24 	lw r9,(fp+36)
  108b5c:	2b 81 00 64 	lw r1,(sp+100)
  108b60:	2b 84 00 58 	lw r4,(sp+88)
  108b64:	34 03 ff fd 	mvi r3,-3
  108b68:	37 8c 04 7c 	addi r12,sp,1148
  108b6c:	a0 a3 28 00 	and r5,r5,r3
  108b70:	37 88 00 7c 	addi r8,sp,124
  108b74:	34 07 04 00 	mvi r7,1024
  108b78:	b9 80 10 00 	mv r2,r12
  108b7c:	b9 60 18 00 	mv r3,r11
  108b80:	0f 85 04 88 	sh (sp+1160),r5
  108b84:	5b 8d 04 e0 	sw (sp+1248),r13
  108b88:	0f 86 04 8a 	sh (sp+1162),r6
  108b8c:	5b 8a 04 98 	sw (sp+1176),r10
  108b90:	5b 89 04 a0 	sw (sp+1184),r9
  108b94:	5b 88 04 7c 	sw (sp+1148),r8
  108b98:	5b 88 04 8c 	sw (sp+1164),r8
  108b9c:	5b 87 04 84 	sw (sp+1156),r7
  108ba0:	5b 87 04 90 	sw (sp+1168),r7
  108ba4:	5b 80 04 94 	sw (sp+1172),r0
  108ba8:	fb ff fd 37 	calli 108084 <_vfiprintf_r>
  108bac:	5b 81 00 50 	sw (sp+80),r1
  108bb0:	48 01 00 05 	bg r0,r1,108bc4 <_vfiprintf_r+0xb40>
  108bb4:	2b 81 00 64 	lw r1,(sp+100)
  108bb8:	b9 80 10 00 	mv r2,r12
  108bbc:	fb ff f2 49 	calli 1054e0 <_fflush_r>
  108bc0:	5c 20 00 7f 	bne r1,r0,108dbc <_vfiprintf_r+0xd38>
  108bc4:	2f 83 04 88 	lhu r3,(sp+1160)
  108bc8:	20 63 00 40 	andi r3,r3,0x40
  108bcc:	44 60 ff 78 	be r3,r0,1089ac <_vfiprintf_r+0x928>
  108bd0:	2f 63 00 0c 	lhu r3,(fp+12)
  108bd4:	38 63 00 40 	ori r3,r3,0x40
  108bd8:	0f 63 00 0c 	sh (fp+12),r3
  108bdc:	e3 ff ff 74 	bi 1089ac <_vfiprintf_r+0x928>
  108be0:	fb ff f3 0e 	calli 105818 <__sinit>
  108be4:	e3 ff fd 41 	bi 1080e8 <_vfiprintf_r+0x64>
  108be8:	2b 82 00 74 	lw r2,(sp+116)
  108bec:	37 8f 05 4c 	addi r15,sp,1356
  108bf0:	21 61 00 0f 	andi r1,r11,0xf
  108bf4:	b4 41 08 00 	add r1,r2,r1
  108bf8:	40 21 00 00 	lbu r1,(r1+0)
  108bfc:	35 ef ff ff 	addi r15,r15,-1
  108c00:	01 6b 00 04 	srui r11,r11,4
  108c04:	31 e1 00 00 	sb (r15+0),r1
  108c08:	5d 60 ff fa 	bne r11,r0,108bf0 <_vfiprintf_r+0xb6c>
  108c0c:	2b 82 00 4c 	lw r2,(sp+76)
  108c10:	c8 4f 80 00 	sub r16,r2,r15
  108c14:	e3 ff fd c5 	bi 108328 <_vfiprintf_r+0x2a4>
  108c18:	34 02 00 09 	mvi r2,9
  108c1c:	37 8c 05 4c 	addi r12,sp,1356
  108c20:	55 62 00 07 	bgu r11,r2,108c3c <_vfiprintf_r+0xbb8>
  108c24:	35 6b 00 30 	addi r11,r11,48
  108c28:	31 8b ff ff 	sb (r12+-1),r11
  108c2c:	2b 81 00 4c 	lw r1,(sp+76)
  108c30:	35 8f ff ff 	addi r15,r12,-1
  108c34:	c8 2f 80 00 	sub r16,r1,r15
  108c38:	e3 ff fd bc 	bi 108328 <_vfiprintf_r+0x2a4>
  108c3c:	b9 60 08 00 	mv r1,r11
  108c40:	34 02 00 0a 	mvi r2,10
  108c44:	fb ff e4 5c 	calli 101db4 <__umodsi3>
  108c48:	34 21 00 30 	addi r1,r1,48
  108c4c:	35 8c ff ff 	addi r12,r12,-1
  108c50:	31 81 00 00 	sb (r12+0),r1
  108c54:	34 02 00 0a 	mvi r2,10
  108c58:	b9 60 08 00 	mv r1,r11
  108c5c:	fb ff e4 46 	calli 101d74 <__udivsi3>
  108c60:	34 02 00 09 	mvi r2,9
  108c64:	b8 20 58 00 	mv r11,r1
  108c68:	54 22 ff f5 	bgu r1,r2,108c3c <_vfiprintf_r+0xbb8>
  108c6c:	35 6b 00 30 	addi r11,r11,48
  108c70:	31 8b ff ff 	sb (r12+-1),r11
  108c74:	2b 81 00 4c 	lw r1,(sp+76)
  108c78:	35 8f ff ff 	addi r15,r12,-1
  108c7c:	c8 2f 80 00 	sub r16,r1,r15
  108c80:	e3 ff fd aa 	bi 108328 <_vfiprintf_r+0x2a4>
  108c84:	ba 40 08 00 	mv r1,r18
  108c88:	bb 60 10 00 	mv r2,fp
  108c8c:	37 83 05 4c 	addi r3,sp,1356
  108c90:	fb ff fc c0 	calli 107f90 <__sprint_r>
  108c94:	5c 20 ff 41 	bne r1,r0,108998 <_vfiprintf_r+0x914>
  108c98:	2b 88 05 54 	lw r8,(sp+1364)
  108c9c:	2b 87 05 50 	lw r7,(sp+1360)
  108ca0:	37 89 04 ec 	addi r9,sp,1260
  108ca4:	37 96 04 e4 	addi r22,sp,1252
  108ca8:	e3 ff fe 2c 	bi 108558 <_vfiprintf_r+0x4d4>
  108cac:	2b 81 00 58 	lw r1,(sp+88)
  108cb0:	2b 82 00 50 	lw r2,(sp+80)
  108cb4:	28 23 00 00 	lw r3,(r1+0)
  108cb8:	34 21 00 04 	addi r1,r1,4
  108cbc:	5b 81 00 58 	sw (sp+88),r1
  108cc0:	58 62 00 00 	sw (r3+0),r2
  108cc4:	e3 ff fd 45 	bi 1081d8 <_vfiprintf_r+0x154>
  108cc8:	2b 82 00 58 	lw r2,(sp+88)
  108ccc:	2c 4b 00 02 	lhu r11,(r2+2)
  108cd0:	34 42 00 04 	addi r2,r2,4
  108cd4:	5b 82 00 58 	sw (sp+88),r2
  108cd8:	e3 ff fd eb 	bi 108484 <_vfiprintf_r+0x400>
  108cdc:	b9 a0 80 00 	mv r16,r13
  108ce0:	e3 ff fd 93 	bi 10832c <_vfiprintf_r+0x2a8>
  108ce4:	34 06 00 2d 	mvi r6,45
  108ce8:	c8 0b 58 00 	sub r11,r0,r11
  108cec:	33 86 05 5b 	sb (sp+1371),r6
  108cf0:	e3 ff fd fd 	bi 1084e4 <_vfiprintf_r+0x460>
  108cf4:	ba 40 08 00 	mv r1,r18
  108cf8:	bb 60 10 00 	mv r2,fp
  108cfc:	37 83 05 4c 	addi r3,sp,1356
  108d00:	fb ff fc a4 	calli 107f90 <__sprint_r>
  108d04:	5c 20 ff 25 	bne r1,r0,108998 <_vfiprintf_r+0x914>
  108d08:	2b 88 05 54 	lw r8,(sp+1364)
  108d0c:	2b 87 05 50 	lw r7,(sp+1360)
  108d10:	37 89 04 ec 	addi r9,sp,1260
  108d14:	37 96 04 e4 	addi r22,sp,1252
  108d18:	e3 ff fe 2b 	bi 1085c4 <_vfiprintf_r+0x540>
  108d1c:	b9 20 30 00 	mv r6,r9
  108d20:	bb 20 a0 00 	mv r20,r25
  108d24:	e3 ff fe 3a 	bi 10860c <_vfiprintf_r+0x588>
  108d28:	2b 81 00 58 	lw r1,(sp+88)
  108d2c:	2b 82 00 50 	lw r2,(sp+80)
  108d30:	28 24 00 00 	lw r4,(r1+0)
  108d34:	34 21 00 04 	addi r1,r1,4
  108d38:	5b 81 00 58 	sw (sp+88),r1
  108d3c:	58 82 00 00 	sw (r4+0),r2
  108d40:	e3 ff fd 26 	bi 1081d8 <_vfiprintf_r+0x154>
  108d44:	b9 e0 08 00 	mv r1,r15
  108d48:	fb ff fc 63 	calli 107ed4 <strlen>
  108d4c:	b8 20 80 00 	mv r16,r1
  108d50:	5b 80 00 5c 	sw (sp+92),r0
  108d54:	e3 ff fd 76 	bi 10832c <_vfiprintf_r+0x2a8>
  108d58:	a5 a0 20 00 	not r4,r13
  108d5c:	14 84 00 1f 	sri r4,r4,31
  108d60:	b9 a0 80 00 	mv r16,r13
  108d64:	a1 a4 98 00 	and r19,r13,r4
  108d68:	34 04 00 06 	mvi r4,6
  108d6c:	50 8d 00 03 	bgeu r4,r13,108d78 <_vfiprintf_r+0xcf4>
  108d70:	34 10 00 06 	mvi r16,6
  108d74:	34 13 00 06 	mvi r19,6
  108d78:	2b 8f 00 70 	lw r15,(sp+112)
  108d7c:	e3 ff fd eb 	bi 108528 <_vfiprintf_r+0x4a4>
  108d80:	2b 87 05 50 	lw r7,(sp+1360)
  108d84:	ba 20 a8 00 	mv r21,r17
  108d88:	e3 ff fe 5e 	bi 108700 <_vfiprintf_r+0x67c>
  108d8c:	2b 81 00 64 	lw r1,(sp+100)
  108d90:	bb 60 10 00 	mv r2,fp
  108d94:	fb ff eb e9 	calli 103d38 <__swsetup_r>
  108d98:	34 02 ff ff 	mvi r2,-1
  108d9c:	5b 82 00 50 	sw (sp+80),r2
  108da0:	5c 20 ff 03 	bne r1,r0,1089ac <_vfiprintf_r+0x928>
  108da4:	1f 65 00 0c 	lh r5,(fp+12)
  108da8:	20 a6 ff ff 	andi r6,r5,0xffff
  108dac:	e3 ff fc de 	bi 108124 <_vfiprintf_r+0xa0>
  108db0:	b9 20 30 00 	mv r6,r9
  108db4:	bb 20 a0 00 	mv r20,r25
  108db8:	e3 ff ff 25 	bi 108a4c <_vfiprintf_r+0x9c8>
  108dbc:	34 01 ff ff 	mvi r1,-1
  108dc0:	5b 81 00 50 	sw (sp+80),r1
  108dc4:	e3 ff ff 80 	bi 108bc4 <_vfiprintf_r+0xb40>
  108dc8:	2b 81 00 58 	lw r1,(sp+88)
  108dcc:	28 2d 00 00 	lw r13,(r1+0)
  108dd0:	34 21 00 04 	addi r1,r1,4
  108dd4:	48 0d 00 03 	bg r0,r13,108de0 <_vfiprintf_r+0xd5c>
  108dd8:	5b 81 00 58 	sw (sp+88),r1
  108ddc:	e3 ff fd 22 	bi 108264 <_vfiprintf_r+0x1e0>
  108de0:	5b 81 00 58 	sw (sp+88),r1
  108de4:	34 0d ff ff 	mvi r13,-1
  108de8:	e3 ff fd 1f 	bi 108264 <_vfiprintf_r+0x1e0>

00108dec <vfiprintf>:
  108dec:	37 9c ff fc 	addi sp,sp,-4
  108df0:	5b 9d 00 04 	sw (sp+4),ra
  108df4:	78 04 00 10 	mvhi r4,0x10
  108df8:	38 84 cf 08 	ori r4,r4,0xcf08
  108dfc:	b8 20 30 00 	mv r6,r1
  108e00:	28 81 00 00 	lw r1,(r4+0)
  108e04:	b8 40 28 00 	mv r5,r2
  108e08:	b8 60 20 00 	mv r4,r3
  108e0c:	b8 c0 10 00 	mv r2,r6
  108e10:	b8 a0 18 00 	mv r3,r5
  108e14:	fb ff fc 9c 	calli 108084 <_vfiprintf_r>
  108e18:	2b 9d 00 04 	lw ra,(sp+4)
  108e1c:	37 9c 00 04 	addi sp,sp,4
  108e20:	c3 a0 00 00 	ret

00108e24 <_write_r>:
  108e24:	37 9c ff f4 	addi sp,sp,-12
  108e28:	5b 8b 00 0c 	sw (sp+12),r11
  108e2c:	5b 8c 00 08 	sw (sp+8),r12
  108e30:	5b 9d 00 04 	sw (sp+4),ra
  108e34:	78 0b 00 10 	mvhi r11,0x10
  108e38:	b8 20 60 00 	mv r12,r1
  108e3c:	39 6b d7 dc 	ori r11,r11,0xd7dc
  108e40:	b8 40 08 00 	mv r1,r2
  108e44:	b8 60 10 00 	mv r2,r3
  108e48:	b8 80 18 00 	mv r3,r4
  108e4c:	59 60 00 00 	sw (r11+0),r0
  108e50:	f8 00 0d b1 	calli 10c514 <_write>
  108e54:	34 02 ff ff 	mvi r2,-1
  108e58:	44 22 00 06 	be r1,r2,108e70 <_write_r+0x4c>
  108e5c:	2b 9d 00 04 	lw ra,(sp+4)
  108e60:	2b 8b 00 0c 	lw r11,(sp+12)
  108e64:	2b 8c 00 08 	lw r12,(sp+8)
  108e68:	37 9c 00 0c 	addi sp,sp,12
  108e6c:	c3 a0 00 00 	ret
  108e70:	29 62 00 00 	lw r2,(r11+0)
  108e74:	44 40 ff fa 	be r2,r0,108e5c <_write_r+0x38>
  108e78:	59 82 00 00 	sw (r12+0),r2
  108e7c:	2b 9d 00 04 	lw ra,(sp+4)
  108e80:	2b 8b 00 0c 	lw r11,(sp+12)
  108e84:	2b 8c 00 08 	lw r12,(sp+8)
  108e88:	37 9c 00 0c 	addi sp,sp,12
  108e8c:	c3 a0 00 00 	ret

00108e90 <_calloc_r>:
  108e90:	37 9c ff f8 	addi sp,sp,-8
  108e94:	5b 8b 00 08 	sw (sp+8),r11
  108e98:	5b 9d 00 04 	sw (sp+4),ra
  108e9c:	88 62 10 00 	mul r2,r3,r2
  108ea0:	fb ff f5 16 	calli 1062f8 <_malloc_r>
  108ea4:	b8 20 58 00 	mv r11,r1
  108ea8:	44 20 00 18 	be r1,r0,108f08 <_calloc_r+0x78>
  108eac:	28 24 ff fc 	lw r4,(r1+-4)
  108eb0:	34 03 ff fc 	mvi r3,-4
  108eb4:	34 02 00 24 	mvi r2,36
  108eb8:	a0 64 18 00 	and r3,r3,r4
  108ebc:	34 63 ff fc 	addi r3,r3,-4
  108ec0:	54 62 00 17 	bgu r3,r2,108f1c <_calloc_r+0x8c>
  108ec4:	34 04 00 13 	mvi r4,19
  108ec8:	50 83 00 0d 	bgeu r4,r3,108efc <_calloc_r+0x6c>
  108ecc:	59 60 00 00 	sw (r11+0),r0
  108ed0:	59 60 00 04 	sw (r11+4),r0
  108ed4:	34 04 00 1b 	mvi r4,27
  108ed8:	35 61 00 08 	addi r1,r11,8
  108edc:	50 83 00 08 	bgeu r4,r3,108efc <_calloc_r+0x6c>
  108ee0:	59 60 00 08 	sw (r11+8),r0
  108ee4:	59 60 00 0c 	sw (r11+12),r0
  108ee8:	35 61 00 10 	addi r1,r11,16
  108eec:	5c 62 00 04 	bne r3,r2,108efc <_calloc_r+0x6c>
  108ef0:	59 60 00 10 	sw (r11+16),r0
  108ef4:	59 60 00 14 	sw (r11+20),r0
  108ef8:	35 61 00 18 	addi r1,r11,24
  108efc:	58 20 00 00 	sw (r1+0),r0
  108f00:	58 20 00 04 	sw (r1+4),r0
  108f04:	58 20 00 08 	sw (r1+8),r0
  108f08:	b9 60 08 00 	mv r1,r11
  108f0c:	2b 9d 00 04 	lw ra,(sp+4)
  108f10:	2b 8b 00 08 	lw r11,(sp+8)
  108f14:	37 9c 00 08 	addi sp,sp,8
  108f18:	c3 a0 00 00 	ret
  108f1c:	34 02 00 00 	mvi r2,0
  108f20:	fb ff e4 61 	calli 1020a4 <memset>
  108f24:	b9 60 08 00 	mv r1,r11
  108f28:	2b 9d 00 04 	lw ra,(sp+4)
  108f2c:	2b 8b 00 08 	lw r11,(sp+8)
  108f30:	37 9c 00 08 	addi sp,sp,8
  108f34:	c3 a0 00 00 	ret

00108f38 <_close_r>:
  108f38:	37 9c ff f4 	addi sp,sp,-12
  108f3c:	5b 8b 00 0c 	sw (sp+12),r11
  108f40:	5b 8c 00 08 	sw (sp+8),r12
  108f44:	5b 9d 00 04 	sw (sp+4),ra
  108f48:	78 0b 00 10 	mvhi r11,0x10
  108f4c:	b8 20 60 00 	mv r12,r1
  108f50:	39 6b d7 dc 	ori r11,r11,0xd7dc
  108f54:	b8 40 08 00 	mv r1,r2
  108f58:	59 60 00 00 	sw (r11+0),r0
  108f5c:	f8 00 0d 80 	calli 10c55c <_close>
  108f60:	34 02 ff ff 	mvi r2,-1
  108f64:	44 22 00 06 	be r1,r2,108f7c <_close_r+0x44>
  108f68:	2b 9d 00 04 	lw ra,(sp+4)
  108f6c:	2b 8b 00 0c 	lw r11,(sp+12)
  108f70:	2b 8c 00 08 	lw r12,(sp+8)
  108f74:	37 9c 00 0c 	addi sp,sp,12
  108f78:	c3 a0 00 00 	ret
  108f7c:	29 62 00 00 	lw r2,(r11+0)
  108f80:	44 40 ff fa 	be r2,r0,108f68 <_close_r+0x30>
  108f84:	59 82 00 00 	sw (r12+0),r2
  108f88:	2b 9d 00 04 	lw ra,(sp+4)
  108f8c:	2b 8b 00 0c 	lw r11,(sp+12)
  108f90:	2b 8c 00 08 	lw r12,(sp+8)
  108f94:	37 9c 00 0c 	addi sp,sp,12
  108f98:	c3 a0 00 00 	ret

00108f9c <_fclose_r>:
  108f9c:	37 9c ff f0 	addi sp,sp,-16
  108fa0:	5b 8b 00 10 	sw (sp+16),r11
  108fa4:	5b 8c 00 0c 	sw (sp+12),r12
  108fa8:	5b 8d 00 08 	sw (sp+8),r13
  108fac:	5b 9d 00 04 	sw (sp+4),ra
  108fb0:	34 0d 00 00 	mvi r13,0
  108fb4:	b8 40 58 00 	mv r11,r2
  108fb8:	b8 20 60 00 	mv r12,r1
  108fbc:	44 40 00 22 	be r2,r0,109044 <_fclose_r+0xa8>
  108fc0:	fb ff f2 bd 	calli 105ab4 <__sfp_lock_acquire>
  108fc4:	45 80 00 03 	be r12,r0,108fd0 <_fclose_r+0x34>
  108fc8:	29 81 00 38 	lw r1,(r12+56)
  108fcc:	44 20 00 2e 	be r1,r0,109084 <_fclose_r+0xe8>
  108fd0:	1d 61 00 0c 	lh r1,(r11+12)
  108fd4:	44 20 00 23 	be r1,r0,109060 <_fclose_r+0xc4>
  108fd8:	b9 80 08 00 	mv r1,r12
  108fdc:	b9 60 10 00 	mv r2,r11
  108fe0:	fb ff f1 40 	calli 1054e0 <_fflush_r>
  108fe4:	29 63 00 2c 	lw r3,(r11+44)
  108fe8:	b8 20 68 00 	mv r13,r1
  108fec:	44 60 00 05 	be r3,r0,109000 <_fclose_r+0x64>
  108ff0:	29 62 00 1c 	lw r2,(r11+28)
  108ff4:	b9 80 08 00 	mv r1,r12
  108ff8:	d8 60 00 00 	call r3
  108ffc:	48 01 00 2b 	bg r0,r1,1090a8 <_fclose_r+0x10c>
  109000:	2d 61 00 0c 	lhu r1,(r11+12)
  109004:	20 21 00 80 	andi r1,r1,0x80
  109008:	5c 20 00 24 	bne r1,r0,109098 <_fclose_r+0xfc>
  10900c:	29 62 00 30 	lw r2,(r11+48)
  109010:	44 40 00 06 	be r2,r0,109028 <_fclose_r+0x8c>
  109014:	35 61 00 40 	addi r1,r11,64
  109018:	44 41 00 03 	be r2,r1,109024 <_fclose_r+0x88>
  10901c:	b9 80 08 00 	mv r1,r12
  109020:	fb ff f3 0e 	calli 105c58 <_free_r>
  109024:	59 60 00 30 	sw (r11+48),r0
  109028:	29 62 00 44 	lw r2,(r11+68)
  10902c:	44 40 00 04 	be r2,r0,10903c <_fclose_r+0xa0>
  109030:	b9 80 08 00 	mv r1,r12
  109034:	fb ff f3 09 	calli 105c58 <_free_r>
  109038:	59 60 00 44 	sw (r11+68),r0
  10903c:	0d 60 00 0c 	sh (r11+12),r0
  109040:	fb ff f2 9e 	calli 105ab8 <__sfp_lock_release>
  109044:	b9 a0 08 00 	mv r1,r13
  109048:	2b 9d 00 04 	lw ra,(sp+4)
  10904c:	2b 8b 00 10 	lw r11,(sp+16)
  109050:	2b 8c 00 0c 	lw r12,(sp+12)
  109054:	2b 8d 00 08 	lw r13,(sp+8)
  109058:	37 9c 00 10 	addi sp,sp,16
  10905c:	c3 a0 00 00 	ret
  109060:	fb ff f2 96 	calli 105ab8 <__sfp_lock_release>
  109064:	34 0d 00 00 	mvi r13,0
  109068:	b9 a0 08 00 	mv r1,r13
  10906c:	2b 9d 00 04 	lw ra,(sp+4)
  109070:	2b 8b 00 10 	lw r11,(sp+16)
  109074:	2b 8c 00 0c 	lw r12,(sp+12)
  109078:	2b 8d 00 08 	lw r13,(sp+8)
  10907c:	37 9c 00 10 	addi sp,sp,16
  109080:	c3 a0 00 00 	ret
  109084:	b9 80 08 00 	mv r1,r12
  109088:	fb ff f1 e4 	calli 105818 <__sinit>
  10908c:	1d 61 00 0c 	lh r1,(r11+12)
  109090:	5c 20 ff d2 	bne r1,r0,108fd8 <_fclose_r+0x3c>
  109094:	e3 ff ff f3 	bi 109060 <_fclose_r+0xc4>
  109098:	29 62 00 10 	lw r2,(r11+16)
  10909c:	b9 80 08 00 	mv r1,r12
  1090a0:	fb ff f2 ee 	calli 105c58 <_free_r>
  1090a4:	e3 ff ff da 	bi 10900c <_fclose_r+0x70>
  1090a8:	34 0d ff ff 	mvi r13,-1
  1090ac:	e3 ff ff d5 	bi 109000 <_fclose_r+0x64>

001090b0 <fclose>:
  1090b0:	37 9c ff fc 	addi sp,sp,-4
  1090b4:	5b 9d 00 04 	sw (sp+4),ra
  1090b8:	78 03 00 10 	mvhi r3,0x10
  1090bc:	38 63 cf 08 	ori r3,r3,0xcf08
  1090c0:	b8 20 10 00 	mv r2,r1
  1090c4:	28 61 00 00 	lw r1,(r3+0)
  1090c8:	fb ff ff b5 	calli 108f9c <_fclose_r>
  1090cc:	2b 9d 00 04 	lw ra,(sp+4)
  1090d0:	37 9c 00 04 	addi sp,sp,4
  1090d4:	c3 a0 00 00 	ret

001090d8 <_fputwc_r>:
  1090d8:	37 9c ff e0 	addi sp,sp,-32
  1090dc:	5b 8b 00 1c 	sw (sp+28),r11
  1090e0:	5b 8c 00 18 	sw (sp+24),r12
  1090e4:	5b 8d 00 14 	sw (sp+20),r13
  1090e8:	5b 8e 00 10 	sw (sp+16),r14
  1090ec:	5b 8f 00 0c 	sw (sp+12),r15
  1090f0:	5b 9b 00 08 	sw (sp+8),fp
  1090f4:	5b 9d 00 04 	sw (sp+4),ra
  1090f8:	b8 60 58 00 	mv r11,r3
  1090fc:	1c 63 00 0c 	lh r3,(r3+12)
  109100:	b8 20 70 00 	mv r14,r1
  109104:	b8 40 68 00 	mv r13,r2
  109108:	20 61 20 00 	andi r1,r3,0x2000
  10910c:	5c 20 00 06 	bne r1,r0,109124 <_fputwc_r+0x4c>
  109110:	29 61 00 64 	lw r1,(r11+100)
  109114:	38 63 20 00 	ori r3,r3,0x2000
  109118:	0d 63 00 0c 	sh (r11+12),r3
  10911c:	38 21 20 00 	ori r1,r1,0x2000
  109120:	59 61 00 64 	sw (r11+100),r1
  109124:	78 02 00 10 	mvhi r2,0x10
  109128:	38 42 d3 38 	ori r2,r2,0xd338
  10912c:	28 41 00 00 	lw r1,(r2+0)
  109130:	69 a2 00 00 	cmpgi r2,r13,0
  109134:	64 21 00 01 	cmpei r1,r1,1
  109138:	a0 41 08 00 	and r1,r2,r1
  10913c:	44 20 00 06 	be r1,r0,109154 <_fputwc_r+0x7c>
  109140:	34 01 00 ff 	mvi r1,255
  109144:	49 a1 00 04 	bg r13,r1,109154 <_fputwc_r+0x7c>
  109148:	33 8d 00 20 	sb (sp+32),r13
  10914c:	34 0c 00 01 	mvi r12,1
  109150:	e0 00 00 0a 	bi 109178 <_fputwc_r+0xa0>
  109154:	b9 c0 08 00 	mv r1,r14
  109158:	37 82 00 20 	addi r2,sp,32
  10915c:	b9 a0 18 00 	mv r3,r13
  109160:	35 64 00 5c 	addi r4,r11,92
  109164:	f8 00 04 8e 	calli 10a39c <_wcrtomb_r>
  109168:	b8 20 60 00 	mv r12,r1
  10916c:	34 01 ff ff 	mvi r1,-1
  109170:	45 81 00 22 	be r12,r1,1091f8 <_fputwc_r+0x120>
  109174:	45 80 00 17 	be r12,r0,1091d0 <_fputwc_r+0xf8>
  109178:	37 9b 00 20 	addi fp,sp,32
  10917c:	34 0f 00 0a 	mvi r15,10
  109180:	29 64 00 08 	lw r4,(r11+8)
  109184:	34 84 ff ff 	addi r4,r4,-1
  109188:	59 64 00 08 	sw (r11+8),r4
  10918c:	4c 80 00 1f 	bge r4,r0,109208 <_fputwc_r+0x130>
  109190:	29 61 00 18 	lw r1,(r11+24)
  109194:	34 05 00 00 	mvi r5,0
  109198:	48 24 00 23 	bg r1,r4,109224 <_fputwc_r+0x14c>
  10919c:	29 61 00 00 	lw r1,(r11+0)
  1091a0:	43 62 00 00 	lbu r2,(fp+0)
  1091a4:	30 22 00 00 	sb (r1+0),r2
  1091a8:	29 62 00 00 	lw r2,(r11+0)
  1091ac:	40 41 00 00 	lbu r1,(r2+0)
  1091b0:	34 42 00 01 	addi r2,r2,1
  1091b4:	44 2f 00 24 	be r1,r15,109244 <_fputwc_r+0x16c>
  1091b8:	59 62 00 00 	sw (r11+0),r2
  1091bc:	5c a0 00 20 	bne r5,r0,10923c <_fputwc_r+0x164>
  1091c0:	37 7b 00 01 	addi fp,fp,1
  1091c4:	37 81 00 20 	addi r1,sp,32
  1091c8:	cb 61 20 00 	sub r4,fp,r1
  1091cc:	55 84 ff ed 	bgu r12,r4,109180 <_fputwc_r+0xa8>
  1091d0:	b9 a0 08 00 	mv r1,r13
  1091d4:	2b 9d 00 04 	lw ra,(sp+4)
  1091d8:	2b 8b 00 1c 	lw r11,(sp+28)
  1091dc:	2b 8c 00 18 	lw r12,(sp+24)
  1091e0:	2b 8d 00 14 	lw r13,(sp+20)
  1091e4:	2b 8e 00 10 	lw r14,(sp+16)
  1091e8:	2b 8f 00 0c 	lw r15,(sp+12)
  1091ec:	2b 9b 00 08 	lw fp,(sp+8)
  1091f0:	37 9c 00 20 	addi sp,sp,32
  1091f4:	c3 a0 00 00 	ret
  1091f8:	2d 62 00 0c 	lhu r2,(r11+12)
  1091fc:	38 42 00 40 	ori r2,r2,0x40
  109200:	0d 62 00 0c 	sh (r11+12),r2
  109204:	e3 ff ff f4 	bi 1091d4 <_fputwc_r+0xfc>
  109208:	29 62 00 00 	lw r2,(r11+0)
  10920c:	43 63 00 00 	lbu r3,(fp+0)
  109210:	30 43 00 00 	sb (r2+0),r3
  109214:	29 64 00 00 	lw r4,(r11+0)
  109218:	34 84 00 01 	addi r4,r4,1
  10921c:	59 64 00 00 	sw (r11+0),r4
  109220:	e3 ff ff e8 	bi 1091c0 <_fputwc_r+0xe8>
  109224:	43 62 00 00 	lbu r2,(fp+0)
  109228:	b9 c0 08 00 	mv r1,r14
  10922c:	b9 60 18 00 	mv r3,r11
  109230:	f8 00 03 f9 	calli 10a214 <__swbuf_r>
  109234:	64 25 ff ff 	cmpei r5,r1,-1
  109238:	44 a0 ff e2 	be r5,r0,1091c0 <_fputwc_r+0xe8>
  10923c:	34 01 ff ff 	mvi r1,-1
  109240:	e3 ff ff e5 	bi 1091d4 <_fputwc_r+0xfc>
  109244:	b9 c0 08 00 	mv r1,r14
  109248:	34 02 00 0a 	mvi r2,10
  10924c:	b9 60 18 00 	mv r3,r11
  109250:	f8 00 03 f1 	calli 10a214 <__swbuf_r>
  109254:	64 25 ff ff 	cmpei r5,r1,-1
  109258:	e3 ff ff d9 	bi 1091bc <_fputwc_r+0xe4>

0010925c <fputwc>:
  10925c:	37 9c ff f0 	addi sp,sp,-16
  109260:	5b 8b 00 0c 	sw (sp+12),r11
  109264:	5b 8c 00 08 	sw (sp+8),r12
  109268:	5b 9d 00 04 	sw (sp+4),ra
  10926c:	78 0b 00 10 	mvhi r11,0x10
  109270:	39 6b cf 08 	ori r11,r11,0xcf08
  109274:	29 64 00 00 	lw r4,(r11+0)
  109278:	b8 20 60 00 	mv r12,r1
  10927c:	b8 40 18 00 	mv r3,r2
  109280:	44 80 00 08 	be r4,r0,1092a0 <fputwc+0x44>
  109284:	28 81 00 38 	lw r1,(r4+56)
  109288:	5c 20 00 06 	bne r1,r0,1092a0 <fputwc+0x44>
  10928c:	b8 80 08 00 	mv r1,r4
  109290:	5b 82 00 10 	sw (sp+16),r2
  109294:	fb ff f1 61 	calli 105818 <__sinit>
  109298:	29 64 00 00 	lw r4,(r11+0)
  10929c:	2b 83 00 10 	lw r3,(sp+16)
  1092a0:	b8 80 08 00 	mv r1,r4
  1092a4:	b9 80 10 00 	mv r2,r12
  1092a8:	fb ff ff 8c 	calli 1090d8 <_fputwc_r>
  1092ac:	2b 9d 00 04 	lw ra,(sp+4)
  1092b0:	2b 8b 00 0c 	lw r11,(sp+12)
  1092b4:	2b 8c 00 08 	lw r12,(sp+8)
  1092b8:	37 9c 00 10 	addi sp,sp,16
  1092bc:	c3 a0 00 00 	ret

001092c0 <_fstat_r>:
  1092c0:	37 9c ff f4 	addi sp,sp,-12
  1092c4:	5b 8b 00 0c 	sw (sp+12),r11
  1092c8:	5b 8c 00 08 	sw (sp+8),r12
  1092cc:	5b 9d 00 04 	sw (sp+4),ra
  1092d0:	78 0b 00 10 	mvhi r11,0x10
  1092d4:	b8 20 60 00 	mv r12,r1
  1092d8:	39 6b d7 dc 	ori r11,r11,0xd7dc
  1092dc:	b8 40 08 00 	mv r1,r2
  1092e0:	b8 60 10 00 	mv r2,r3
  1092e4:	59 60 00 00 	sw (r11+0),r0
  1092e8:	f8 00 0c a9 	calli 10c58c <_fstat>
  1092ec:	34 02 ff ff 	mvi r2,-1
  1092f0:	44 22 00 06 	be r1,r2,109308 <_fstat_r+0x48>
  1092f4:	2b 9d 00 04 	lw ra,(sp+4)
  1092f8:	2b 8b 00 0c 	lw r11,(sp+12)
  1092fc:	2b 8c 00 08 	lw r12,(sp+8)
  109300:	37 9c 00 0c 	addi sp,sp,12
  109304:	c3 a0 00 00 	ret
  109308:	29 62 00 00 	lw r2,(r11+0)
  10930c:	44 40 ff fa 	be r2,r0,1092f4 <_fstat_r+0x34>
  109310:	59 82 00 00 	sw (r12+0),r2
  109314:	2b 9d 00 04 	lw ra,(sp+4)
  109318:	2b 8b 00 0c 	lw r11,(sp+12)
  10931c:	2b 8c 00 08 	lw r12,(sp+8)
  109320:	37 9c 00 0c 	addi sp,sp,12
  109324:	c3 a0 00 00 	ret

00109328 <__sfvwrite_r>:
  109328:	37 9c ff d0 	addi sp,sp,-48
  10932c:	5b 8b 00 30 	sw (sp+48),r11
  109330:	5b 8c 00 2c 	sw (sp+44),r12
  109334:	5b 8d 00 28 	sw (sp+40),r13
  109338:	5b 8e 00 24 	sw (sp+36),r14
  10933c:	5b 8f 00 20 	sw (sp+32),r15
  109340:	5b 90 00 1c 	sw (sp+28),r16
  109344:	5b 91 00 18 	sw (sp+24),r17
  109348:	5b 92 00 14 	sw (sp+20),r18
  10934c:	5b 93 00 10 	sw (sp+16),r19
  109350:	5b 94 00 0c 	sw (sp+12),r20
  109354:	5b 95 00 08 	sw (sp+8),r21
  109358:	5b 9d 00 04 	sw (sp+4),ra
  10935c:	b8 60 70 00 	mv r14,r3
  109360:	28 63 00 08 	lw r3,(r3+8)
  109364:	b8 20 98 00 	mv r19,r1
  109368:	b8 40 58 00 	mv r11,r2
  10936c:	34 01 00 00 	mvi r1,0
  109370:	44 60 00 36 	be r3,r0,109448 <__sfvwrite_r+0x120>
  109374:	2c 41 00 0c 	lhu r1,(r2+12)
  109378:	3c 24 00 10 	sli r4,r1,16
  10937c:	14 84 00 10 	sri r4,r4,16
  109380:	20 82 ff ff 	andi r2,r4,0xffff
  109384:	20 43 00 08 	andi r3,r2,0x8
  109388:	44 60 00 78 	be r3,r0,109568 <__sfvwrite_r+0x240>
  10938c:	29 63 00 10 	lw r3,(r11+16)
  109390:	44 60 00 76 	be r3,r0,109568 <__sfvwrite_r+0x240>
  109394:	20 43 00 02 	andi r3,r2,0x2
  109398:	29 cd 00 00 	lw r13,(r14+0)
  10939c:	34 0f 00 00 	mvi r15,0
  1093a0:	34 0c 00 00 	mvi r12,0
  1093a4:	34 10 04 00 	mvi r16,1024
  1093a8:	5c 60 00 5d 	bne r3,r0,10951c <__sfvwrite_r+0x1f4>
  1093ac:	20 42 00 01 	andi r2,r2,0x1
  1093b0:	34 10 00 00 	mvi r16,0
  1093b4:	34 0c 00 00 	mvi r12,0
  1093b8:	34 15 fb 7f 	mvi r21,-1153
  1093bc:	34 14 00 00 	mvi r20,0
  1093c0:	34 12 00 00 	mvi r18,0
  1093c4:	34 0f 00 00 	mvi r15,0
  1093c8:	44 43 00 2e 	be r2,r3,109480 <__sfvwrite_r+0x158>
  1093cc:	45 e0 00 70 	be r15,r0,10958c <__sfvwrite_r+0x264>
  1093d0:	46 80 00 ac 	be r20,r0,109680 <__sfvwrite_r+0x358>
  1093d4:	ba 00 88 00 	mv r17,r16
  1093d8:	51 f0 00 02 	bgeu r15,r16,1093e0 <__sfvwrite_r+0xb8>
  1093dc:	b9 e0 88 00 	mv r17,r15
  1093e0:	29 64 00 14 	lw r4,(r11+20)
  1093e4:	29 6c 00 08 	lw r12,(r11+8)
  1093e8:	29 61 00 00 	lw r1,(r11+0)
  1093ec:	29 62 00 10 	lw r2,(r11+16)
  1093f0:	b4 8c 60 00 	add r12,r4,r12
  1093f4:	ea 2c 18 00 	cmpg r3,r17,r12
  1093f8:	f4 22 10 00 	cmpgu r2,r1,r2
  1093fc:	a0 62 10 00 	and r2,r3,r2
  109400:	5c 40 00 91 	bne r2,r0,109644 <__sfvwrite_r+0x31c>
  109404:	48 91 00 7e 	bg r4,r17,1095fc <__sfvwrite_r+0x2d4>
  109408:	29 65 00 24 	lw r5,(r11+36)
  10940c:	29 62 00 1c 	lw r2,(r11+28)
  109410:	ba 60 08 00 	mv r1,r19
  109414:	ba 40 18 00 	mv r3,r18
  109418:	d8 a0 00 00 	call r5
  10941c:	b8 20 60 00 	mv r12,r1
  109420:	4c 01 00 93 	bge r0,r1,10966c <__sfvwrite_r+0x344>
  109424:	ca 0c 80 00 	sub r16,r16,r12
  109428:	46 00 00 81 	be r16,r0,10962c <__sfvwrite_r+0x304>
  10942c:	29 c1 00 08 	lw r1,(r14+8)
  109430:	b6 4c 90 00 	add r18,r18,r12
  109434:	c9 ec 78 00 	sub r15,r15,r12
  109438:	c8 2c 60 00 	sub r12,r1,r12
  10943c:	59 cc 00 08 	sw (r14+8),r12
  109440:	5d 80 ff e3 	bne r12,r0,1093cc <__sfvwrite_r+0xa4>
  109444:	34 01 00 00 	mvi r1,0
  109448:	2b 9d 00 04 	lw ra,(sp+4)
  10944c:	2b 8b 00 30 	lw r11,(sp+48)
  109450:	2b 8c 00 2c 	lw r12,(sp+44)
  109454:	2b 8d 00 28 	lw r13,(sp+40)
  109458:	2b 8e 00 24 	lw r14,(sp+36)
  10945c:	2b 8f 00 20 	lw r15,(sp+32)
  109460:	2b 90 00 1c 	lw r16,(sp+28)
  109464:	2b 91 00 18 	lw r17,(sp+24)
  109468:	2b 92 00 14 	lw r18,(sp+20)
  10946c:	2b 93 00 10 	lw r19,(sp+16)
  109470:	2b 94 00 0c 	lw r20,(sp+12)
  109474:	2b 95 00 08 	lw r21,(sp+8)
  109478:	37 9c 00 30 	addi sp,sp,48
  10947c:	c3 a0 00 00 	ret
  109480:	45 80 00 20 	be r12,r0,109500 <__sfvwrite_r+0x1d8>
  109484:	20 84 ff ff 	andi r4,r4,0xffff
  109488:	20 82 02 00 	andi r2,r4,0x200
  10948c:	29 6f 00 08 	lw r15,(r11+8)
  109490:	44 40 00 44 	be r2,r0,1095a0 <__sfvwrite_r+0x278>
  109494:	b9 e0 90 00 	mv r18,r15
  109498:	55 ec 00 54 	bgu r15,r12,1095e8 <__sfvwrite_r+0x2c0>
  10949c:	20 81 04 80 	andi r1,r4,0x480
  1094a0:	5c 20 00 98 	bne r1,r0,109700 <__sfvwrite_r+0x3d8>
  1094a4:	29 61 00 00 	lw r1,(r11+0)
  1094a8:	b9 e0 a0 00 	mv r20,r15
  1094ac:	b9 80 78 00 	mv r15,r12
  1094b0:	ba 00 10 00 	mv r2,r16
  1094b4:	ba 40 18 00 	mv r3,r18
  1094b8:	f8 00 01 01 	calli 1098bc <memmove>
  1094bc:	29 62 00 08 	lw r2,(r11+8)
  1094c0:	29 61 00 00 	lw r1,(r11+0)
  1094c4:	b9 80 88 00 	mv r17,r12
  1094c8:	c8 54 a0 00 	sub r20,r2,r20
  1094cc:	b4 32 90 00 	add r18,r1,r18
  1094d0:	59 74 00 08 	sw (r11+8),r20
  1094d4:	59 72 00 00 	sw (r11+0),r18
  1094d8:	29 c1 00 08 	lw r1,(r14+8)
  1094dc:	b6 11 80 00 	add r16,r16,r17
  1094e0:	c9 91 60 00 	sub r12,r12,r17
  1094e4:	c8 2f 78 00 	sub r15,r1,r15
  1094e8:	59 cf 00 08 	sw (r14+8),r15
  1094ec:	45 e0 ff d6 	be r15,r0,109444 <__sfvwrite_r+0x11c>
  1094f0:	2d 61 00 0c 	lhu r1,(r11+12)
  1094f4:	3c 24 00 10 	sli r4,r1,16
  1094f8:	14 84 00 10 	sri r4,r4,16
  1094fc:	5d 80 ff e2 	bne r12,r0,109484 <__sfvwrite_r+0x15c>
  109500:	29 b0 00 00 	lw r16,(r13+0)
  109504:	29 ac 00 04 	lw r12,(r13+4)
  109508:	35 ad 00 08 	addi r13,r13,8
  10950c:	e3 ff ff fa 	bi 1094f4 <__sfvwrite_r+0x1cc>
  109510:	29 af 00 00 	lw r15,(r13+0)
  109514:	29 ac 00 04 	lw r12,(r13+4)
  109518:	35 ad 00 08 	addi r13,r13,8
  10951c:	b9 e0 18 00 	mv r3,r15
  109520:	ba 60 08 00 	mv r1,r19
  109524:	45 80 ff fb 	be r12,r0,109510 <__sfvwrite_r+0x1e8>
  109528:	b9 80 20 00 	mv r4,r12
  10952c:	29 62 00 1c 	lw r2,(r11+28)
  109530:	52 0c 00 02 	bgeu r16,r12,109538 <__sfvwrite_r+0x210>
  109534:	34 04 04 00 	mvi r4,1024
  109538:	29 65 00 24 	lw r5,(r11+36)
  10953c:	d8 a0 00 00 	call r5
  109540:	b8 20 10 00 	mv r2,r1
  109544:	4c 01 00 4a 	bge r0,r1,10966c <__sfvwrite_r+0x344>
  109548:	29 c1 00 08 	lw r1,(r14+8)
  10954c:	b5 e2 78 00 	add r15,r15,r2
  109550:	c9 82 60 00 	sub r12,r12,r2
  109554:	c8 22 10 00 	sub r2,r1,r2
  109558:	59 c2 00 08 	sw (r14+8),r2
  10955c:	5c 40 ff f0 	bne r2,r0,10951c <__sfvwrite_r+0x1f4>
  109560:	34 01 00 00 	mvi r1,0
  109564:	e3 ff ff b9 	bi 109448 <__sfvwrite_r+0x120>
  109568:	ba 60 08 00 	mv r1,r19
  10956c:	b9 60 10 00 	mv r2,r11
  109570:	fb ff e9 f2 	calli 103d38 <__swsetup_r>
  109574:	5c 20 00 97 	bne r1,r0,1097d0 <__sfvwrite_r+0x4a8>
  109578:	2d 61 00 0c 	lhu r1,(r11+12)
  10957c:	3c 24 00 10 	sli r4,r1,16
  109580:	14 84 00 10 	sri r4,r4,16
  109584:	20 82 ff ff 	andi r2,r4,0xffff
  109588:	e3 ff ff 83 	bi 109394 <__sfvwrite_r+0x6c>
  10958c:	29 b2 00 00 	lw r18,(r13+0)
  109590:	29 af 00 04 	lw r15,(r13+4)
  109594:	34 14 00 00 	mvi r20,0
  109598:	35 ad 00 08 	addi r13,r13,8
  10959c:	e3 ff ff 8c 	bi 1093cc <__sfvwrite_r+0xa4>
  1095a0:	29 61 00 00 	lw r1,(r11+0)
  1095a4:	29 72 00 10 	lw r18,(r11+16)
  1095a8:	f5 8f 18 00 	cmpgu r3,r12,r15
  1095ac:	b9 e0 88 00 	mv r17,r15
  1095b0:	f4 32 90 00 	cmpgu r18,r1,r18
  1095b4:	a0 72 90 00 	and r18,r3,r18
  1095b8:	5e 42 00 47 	bne r18,r2,1096d4 <__sfvwrite_r+0x3ac>
  1095bc:	29 64 00 14 	lw r4,(r11+20)
  1095c0:	54 8c 00 39 	bgu r4,r12,1096a4 <__sfvwrite_r+0x37c>
  1095c4:	29 65 00 24 	lw r5,(r11+36)
  1095c8:	29 62 00 1c 	lw r2,(r11+28)
  1095cc:	ba 60 08 00 	mv r1,r19
  1095d0:	ba 00 18 00 	mv r3,r16
  1095d4:	d8 a0 00 00 	call r5
  1095d8:	b8 20 78 00 	mv r15,r1
  1095dc:	4e 41 00 24 	bge r18,r1,10966c <__sfvwrite_r+0x344>
  1095e0:	b8 20 88 00 	mv r17,r1
  1095e4:	e3 ff ff bd 	bi 1094d8 <__sfvwrite_r+0x1b0>
  1095e8:	29 61 00 00 	lw r1,(r11+0)
  1095ec:	b9 80 a0 00 	mv r20,r12
  1095f0:	b9 80 90 00 	mv r18,r12
  1095f4:	b9 80 78 00 	mv r15,r12
  1095f8:	e3 ff ff ae 	bi 1094b0 <__sfvwrite_r+0x188>
  1095fc:	ba 40 10 00 	mv r2,r18
  109600:	ba 20 18 00 	mv r3,r17
  109604:	f8 00 00 ae 	calli 1098bc <memmove>
  109608:	29 61 00 08 	lw r1,(r11+8)
  10960c:	29 62 00 00 	lw r2,(r11+0)
  109610:	ba 20 60 00 	mv r12,r17
  109614:	c8 31 08 00 	sub r1,r1,r17
  109618:	b4 51 88 00 	add r17,r2,r17
  10961c:	59 61 00 08 	sw (r11+8),r1
  109620:	59 71 00 00 	sw (r11+0),r17
  109624:	ca 0c 80 00 	sub r16,r16,r12
  109628:	5e 00 ff 81 	bne r16,r0,10942c <__sfvwrite_r+0x104>
  10962c:	ba 60 08 00 	mv r1,r19
  109630:	b9 60 10 00 	mv r2,r11
  109634:	fb ff ef ab 	calli 1054e0 <_fflush_r>
  109638:	5c 30 00 0d 	bne r1,r16,10966c <__sfvwrite_r+0x344>
  10963c:	34 14 00 00 	mvi r20,0
  109640:	e3 ff ff 7b 	bi 10942c <__sfvwrite_r+0x104>
  109644:	ba 40 10 00 	mv r2,r18
  109648:	b9 80 18 00 	mv r3,r12
  10964c:	f8 00 00 9c 	calli 1098bc <memmove>
  109650:	29 63 00 00 	lw r3,(r11+0)
  109654:	ba 60 08 00 	mv r1,r19
  109658:	b9 60 10 00 	mv r2,r11
  10965c:	b4 6c 18 00 	add r3,r3,r12
  109660:	59 63 00 00 	sw (r11+0),r3
  109664:	fb ff ef 9f 	calli 1054e0 <_fflush_r>
  109668:	44 20 ff 6f 	be r1,r0,109424 <__sfvwrite_r+0xfc>
  10966c:	2d 62 00 0c 	lhu r2,(r11+12)
  109670:	34 01 ff ff 	mvi r1,-1
  109674:	38 42 00 40 	ori r2,r2,0x40
  109678:	0d 62 00 0c 	sh (r11+12),r2
  10967c:	e3 ff ff 73 	bi 109448 <__sfvwrite_r+0x120>
  109680:	ba 40 08 00 	mv r1,r18
  109684:	34 02 00 0a 	mvi r2,10
  109688:	b9 e0 18 00 	mv r3,r15
  10968c:	fb ff f4 ed 	calli 106a40 <memchr>
  109690:	44 34 00 4d 	be r1,r20,1097c4 <__sfvwrite_r+0x49c>
  109694:	34 30 00 01 	addi r16,r1,1
  109698:	ca 12 80 00 	sub r16,r16,r18
  10969c:	34 14 00 01 	mvi r20,1
  1096a0:	e3 ff ff 4d 	bi 1093d4 <__sfvwrite_r+0xac>
  1096a4:	ba 00 10 00 	mv r2,r16
  1096a8:	b9 80 18 00 	mv r3,r12
  1096ac:	f8 00 00 84 	calli 1098bc <memmove>
  1096b0:	29 62 00 08 	lw r2,(r11+8)
  1096b4:	29 61 00 00 	lw r1,(r11+0)
  1096b8:	b9 80 78 00 	mv r15,r12
  1096bc:	c8 4c 10 00 	sub r2,r2,r12
  1096c0:	b4 2c 08 00 	add r1,r1,r12
  1096c4:	59 62 00 08 	sw (r11+8),r2
  1096c8:	59 61 00 00 	sw (r11+0),r1
  1096cc:	b9 80 88 00 	mv r17,r12
  1096d0:	e3 ff ff 82 	bi 1094d8 <__sfvwrite_r+0x1b0>
  1096d4:	ba 00 10 00 	mv r2,r16
  1096d8:	b9 e0 18 00 	mv r3,r15
  1096dc:	f8 00 00 78 	calli 1098bc <memmove>
  1096e0:	29 63 00 00 	lw r3,(r11+0)
  1096e4:	ba 60 08 00 	mv r1,r19
  1096e8:	b9 60 10 00 	mv r2,r11
  1096ec:	b4 6f 18 00 	add r3,r3,r15
  1096f0:	59 63 00 00 	sw (r11+0),r3
  1096f4:	fb ff ef 7b 	calli 1054e0 <_fflush_r>
  1096f8:	44 20 ff 78 	be r1,r0,1094d8 <__sfvwrite_r+0x1b0>
  1096fc:	e3 ff ff dc 	bi 10966c <__sfvwrite_r+0x344>
  109700:	29 61 00 14 	lw r1,(r11+20)
  109704:	29 62 00 10 	lw r2,(r11+16)
  109708:	29 71 00 00 	lw r17,(r11+0)
  10970c:	3c 23 00 01 	sli r3,r1,1
  109710:	b4 61 08 00 	add r1,r3,r1
  109714:	00 2f 00 1f 	srui r15,r1,31
  109718:	ca 22 88 00 	sub r17,r17,r2
  10971c:	b5 e1 08 00 	add r1,r15,r1
  109720:	14 2f 00 01 	sri r15,r1,1
  109724:	36 21 00 01 	addi r1,r17,1
  109728:	b4 2c 08 00 	add r1,r1,r12
  10972c:	b9 e0 18 00 	mv r3,r15
  109730:	51 e1 00 03 	bgeu r15,r1,10973c <__sfvwrite_r+0x414>
  109734:	b8 20 78 00 	mv r15,r1
  109738:	b8 20 18 00 	mv r3,r1
  10973c:	20 94 04 00 	andi r20,r4,0x400
  109740:	46 80 00 17 	be r20,r0,10979c <__sfvwrite_r+0x474>
  109744:	ba 60 08 00 	mv r1,r19
  109748:	b8 60 10 00 	mv r2,r3
  10974c:	fb ff f2 eb 	calli 1062f8 <_malloc_r>
  109750:	b8 20 90 00 	mv r18,r1
  109754:	44 20 00 19 	be r1,r0,1097b8 <__sfvwrite_r+0x490>
  109758:	29 62 00 10 	lw r2,(r11+16)
  10975c:	ba 20 18 00 	mv r3,r17
  109760:	fb ff f4 f2 	calli 106b28 <memcpy>
  109764:	2d 61 00 0c 	lhu r1,(r11+12)
  109768:	a0 35 08 00 	and r1,r1,r21
  10976c:	38 21 00 80 	ori r1,r1,0x80
  109770:	0d 61 00 0c 	sh (r11+12),r1
  109774:	b6 51 08 00 	add r1,r18,r17
  109778:	c9 f1 88 00 	sub r17,r15,r17
  10977c:	59 72 00 10 	sw (r11+16),r18
  109780:	59 6f 00 14 	sw (r11+20),r15
  109784:	59 61 00 00 	sw (r11+0),r1
  109788:	b9 80 a0 00 	mv r20,r12
  10978c:	59 71 00 08 	sw (r11+8),r17
  109790:	b9 80 90 00 	mv r18,r12
  109794:	b9 80 78 00 	mv r15,r12
  109798:	e3 ff ff 46 	bi 1094b0 <__sfvwrite_r+0x188>
  10979c:	ba 60 08 00 	mv r1,r19
  1097a0:	f8 00 00 ae 	calli 109a58 <_realloc_r>
  1097a4:	b8 20 90 00 	mv r18,r1
  1097a8:	5c 34 ff f3 	bne r1,r20,109774 <__sfvwrite_r+0x44c>
  1097ac:	29 62 00 10 	lw r2,(r11+16)
  1097b0:	ba 60 08 00 	mv r1,r19
  1097b4:	fb ff f1 29 	calli 105c58 <_free_r>
  1097b8:	34 01 00 0c 	mvi r1,12
  1097bc:	5a 61 00 00 	sw (r19+0),r1
  1097c0:	e3 ff ff ab 	bi 10966c <__sfvwrite_r+0x344>
  1097c4:	35 f0 00 01 	addi r16,r15,1
  1097c8:	34 14 00 01 	mvi r20,1
  1097cc:	e3 ff ff 02 	bi 1093d4 <__sfvwrite_r+0xac>
  1097d0:	2d 62 00 0c 	lhu r2,(r11+12)
  1097d4:	34 01 ff ff 	mvi r1,-1
  1097d8:	38 42 00 40 	ori r2,r2,0x40
  1097dc:	0d 62 00 0c 	sh (r11+12),r2
  1097e0:	34 02 00 09 	mvi r2,9
  1097e4:	5a 62 00 00 	sw (r19+0),r2
  1097e8:	e3 ff ff 18 	bi 109448 <__sfvwrite_r+0x120>

001097ec <_isatty_r>:
  1097ec:	37 9c ff f4 	addi sp,sp,-12
  1097f0:	5b 8b 00 0c 	sw (sp+12),r11
  1097f4:	5b 8c 00 08 	sw (sp+8),r12
  1097f8:	5b 9d 00 04 	sw (sp+4),ra
  1097fc:	78 0b 00 10 	mvhi r11,0x10
  109800:	b8 20 60 00 	mv r12,r1
  109804:	39 6b d7 dc 	ori r11,r11,0xd7dc
  109808:	b8 40 08 00 	mv r1,r2
  10980c:	59 60 00 00 	sw (r11+0),r0
  109810:	f8 00 0b 3e 	calli 10c508 <_isatty>
  109814:	34 02 ff ff 	mvi r2,-1
  109818:	44 22 00 06 	be r1,r2,109830 <_isatty_r+0x44>
  10981c:	2b 9d 00 04 	lw ra,(sp+4)
  109820:	2b 8b 00 0c 	lw r11,(sp+12)
  109824:	2b 8c 00 08 	lw r12,(sp+8)
  109828:	37 9c 00 0c 	addi sp,sp,12
  10982c:	c3 a0 00 00 	ret
  109830:	29 62 00 00 	lw r2,(r11+0)
  109834:	44 40 ff fa 	be r2,r0,10981c <_isatty_r+0x30>
  109838:	59 82 00 00 	sw (r12+0),r2
  10983c:	2b 9d 00 04 	lw ra,(sp+4)
  109840:	2b 8b 00 0c 	lw r11,(sp+12)
  109844:	2b 8c 00 08 	lw r12,(sp+8)
  109848:	37 9c 00 0c 	addi sp,sp,12
  10984c:	c3 a0 00 00 	ret

00109850 <_lseek_r>:
  109850:	37 9c ff f4 	addi sp,sp,-12
  109854:	5b 8b 00 0c 	sw (sp+12),r11
  109858:	5b 8c 00 08 	sw (sp+8),r12
  10985c:	5b 9d 00 04 	sw (sp+4),ra
  109860:	78 0b 00 10 	mvhi r11,0x10
  109864:	b8 20 60 00 	mv r12,r1
  109868:	39 6b d7 dc 	ori r11,r11,0xd7dc
  10986c:	b8 40 08 00 	mv r1,r2
  109870:	b8 60 10 00 	mv r2,r3
  109874:	b8 80 18 00 	mv r3,r4
  109878:	59 60 00 00 	sw (r11+0),r0
  10987c:	f8 00 0b 3e 	calli 10c574 <_lseek>
  109880:	34 02 ff ff 	mvi r2,-1
  109884:	44 22 00 06 	be r1,r2,10989c <_lseek_r+0x4c>
  109888:	2b 9d 00 04 	lw ra,(sp+4)
  10988c:	2b 8b 00 0c 	lw r11,(sp+12)
  109890:	2b 8c 00 08 	lw r12,(sp+8)
  109894:	37 9c 00 0c 	addi sp,sp,12
  109898:	c3 a0 00 00 	ret
  10989c:	29 62 00 00 	lw r2,(r11+0)
  1098a0:	44 40 ff fa 	be r2,r0,109888 <_lseek_r+0x38>
  1098a4:	59 82 00 00 	sw (r12+0),r2
  1098a8:	2b 9d 00 04 	lw ra,(sp+4)
  1098ac:	2b 8b 00 0c 	lw r11,(sp+12)
  1098b0:	2b 8c 00 08 	lw r12,(sp+8)
  1098b4:	37 9c 00 0c 	addi sp,sp,12
  1098b8:	c3 a0 00 00 	ret

001098bc <memmove>:
  1098bc:	b8 20 30 00 	mv r6,r1
  1098c0:	b8 40 38 00 	mv r7,r2
  1098c4:	b8 60 28 00 	mv r5,r3
  1098c8:	50 41 00 0e 	bgeu r2,r1,109900 <memmove+0x44>
  1098cc:	b4 43 20 00 	add r4,r2,r3
  1098d0:	50 24 00 0c 	bgeu r1,r4,109900 <memmove+0x44>
  1098d4:	44 60 00 18 	be r3,r0,109934 <memmove+0x78>
  1098d8:	b4 23 28 00 	add r5,r1,r3
  1098dc:	34 62 ff ff 	addi r2,r3,-1
  1098e0:	34 03 ff ff 	mvi r3,-1
  1098e4:	34 84 ff ff 	addi r4,r4,-1
  1098e8:	40 86 00 00 	lbu r6,(r4+0)
  1098ec:	34 a5 ff ff 	addi r5,r5,-1
  1098f0:	34 42 ff ff 	addi r2,r2,-1
  1098f4:	30 a6 00 00 	sb (r5+0),r6
  1098f8:	5c 43 ff fb 	bne r2,r3,1098e4 <memmove+0x28>
  1098fc:	c3 a0 00 00 	ret
  109900:	34 04 00 0f 	mvi r4,15
  109904:	50 83 00 04 	bgeu r4,r3,109914 <memmove+0x58>
  109908:	b8 41 20 00 	or r4,r2,r1
  10990c:	20 84 00 03 	andi r4,r4,0x3
  109910:	44 80 00 0a 	be r4,r0,109938 <memmove+0x7c>
  109914:	44 a0 00 08 	be r5,r0,109934 <memmove+0x78>
  109918:	34 02 00 00 	mvi r2,0
  10991c:	b4 e2 18 00 	add r3,r7,r2
  109920:	40 64 00 00 	lbu r4,(r3+0)
  109924:	b4 c2 18 00 	add r3,r6,r2
  109928:	34 42 00 01 	addi r2,r2,1
  10992c:	30 64 00 00 	sb (r3+0),r4
  109930:	5c 45 ff fb 	bne r2,r5,10991c <memmove+0x60>
  109934:	c3 a0 00 00 	ret
  109938:	b8 60 30 00 	mv r6,r3
  10993c:	b8 40 20 00 	mv r4,r2
  109940:	b8 20 28 00 	mv r5,r1
  109944:	34 07 00 0f 	mvi r7,15
  109948:	28 88 00 00 	lw r8,(r4+0)
  10994c:	34 c6 ff f0 	addi r6,r6,-16
  109950:	58 a8 00 00 	sw (r5+0),r8
  109954:	28 88 00 04 	lw r8,(r4+4)
  109958:	58 a8 00 04 	sw (r5+4),r8
  10995c:	28 88 00 08 	lw r8,(r4+8)
  109960:	58 a8 00 08 	sw (r5+8),r8
  109964:	28 88 00 0c 	lw r8,(r4+12)
  109968:	34 84 00 10 	addi r4,r4,16
  10996c:	58 a8 00 0c 	sw (r5+12),r8
  109970:	34 a5 00 10 	addi r5,r5,16
  109974:	54 c7 ff f5 	bgu r6,r7,109948 <memmove+0x8c>
  109978:	34 63 ff f0 	addi r3,r3,-16
  10997c:	00 64 00 04 	srui r4,r3,4
  109980:	34 87 00 01 	addi r7,r4,1
  109984:	3c e7 00 04 	sli r7,r7,4
  109988:	3c 84 00 04 	sli r4,r4,4
  10998c:	b4 27 30 00 	add r6,r1,r7
  109990:	c8 64 18 00 	sub r3,r3,r4
  109994:	b4 47 38 00 	add r7,r2,r7
  109998:	34 02 00 03 	mvi r2,3
  10999c:	b8 60 28 00 	mv r5,r3
  1099a0:	50 43 ff dd 	bgeu r2,r3,109914 <memmove+0x58>
  1099a4:	34 02 00 00 	mvi r2,0
  1099a8:	34 08 00 03 	mvi r8,3
  1099ac:	b4 e2 20 00 	add r4,r7,r2
  1099b0:	28 85 00 00 	lw r5,(r4+0)
  1099b4:	b4 c2 20 00 	add r4,r6,r2
  1099b8:	34 42 00 04 	addi r2,r2,4
  1099bc:	58 85 00 00 	sw (r4+0),r5
  1099c0:	c8 62 20 00 	sub r4,r3,r2
  1099c4:	54 88 ff fa 	bgu r4,r8,1099ac <memmove+0xf0>
  1099c8:	34 63 ff fc 	addi r3,r3,-4
  1099cc:	00 65 00 02 	srui r5,r3,2
  1099d0:	34 a2 00 01 	addi r2,r5,1
  1099d4:	3c 42 00 02 	sli r2,r2,2
  1099d8:	3c a5 00 02 	sli r5,r5,2
  1099dc:	b4 c2 30 00 	add r6,r6,r2
  1099e0:	b4 e2 38 00 	add r7,r7,r2
  1099e4:	c8 65 28 00 	sub r5,r3,r5
  1099e8:	e3 ff ff cb 	bi 109914 <memmove+0x58>

001099ec <_read_r>:
  1099ec:	37 9c ff f4 	addi sp,sp,-12
  1099f0:	5b 8b 00 0c 	sw (sp+12),r11
  1099f4:	5b 8c 00 08 	sw (sp+8),r12
  1099f8:	5b 9d 00 04 	sw (sp+4),ra
  1099fc:	78 0b 00 10 	mvhi r11,0x10
  109a00:	b8 20 60 00 	mv r12,r1
  109a04:	39 6b d7 dc 	ori r11,r11,0xd7dc
  109a08:	b8 40 08 00 	mv r1,r2
  109a0c:	b8 60 10 00 	mv r2,r3
  109a10:	b8 80 18 00 	mv r3,r4
  109a14:	59 60 00 00 	sw (r11+0),r0
  109a18:	f8 00 0a c5 	calli 10c52c <_read>
  109a1c:	34 02 ff ff 	mvi r2,-1
  109a20:	44 22 00 06 	be r1,r2,109a38 <_read_r+0x4c>
  109a24:	2b 9d 00 04 	lw ra,(sp+4)
  109a28:	2b 8b 00 0c 	lw r11,(sp+12)
  109a2c:	2b 8c 00 08 	lw r12,(sp+8)
  109a30:	37 9c 00 0c 	addi sp,sp,12
  109a34:	c3 a0 00 00 	ret
  109a38:	29 62 00 00 	lw r2,(r11+0)
  109a3c:	44 40 ff fa 	be r2,r0,109a24 <_read_r+0x38>
  109a40:	59 82 00 00 	sw (r12+0),r2
  109a44:	2b 9d 00 04 	lw ra,(sp+4)
  109a48:	2b 8b 00 0c 	lw r11,(sp+12)
  109a4c:	2b 8c 00 08 	lw r12,(sp+8)
  109a50:	37 9c 00 0c 	addi sp,sp,12
  109a54:	c3 a0 00 00 	ret

00109a58 <_realloc_r>:
  109a58:	37 9c ff d0 	addi sp,sp,-48
  109a5c:	5b 8b 00 30 	sw (sp+48),r11
  109a60:	5b 8c 00 2c 	sw (sp+44),r12
  109a64:	5b 8d 00 28 	sw (sp+40),r13
  109a68:	5b 8e 00 24 	sw (sp+36),r14
  109a6c:	5b 8f 00 20 	sw (sp+32),r15
  109a70:	5b 90 00 1c 	sw (sp+28),r16
  109a74:	5b 91 00 18 	sw (sp+24),r17
  109a78:	5b 92 00 14 	sw (sp+20),r18
  109a7c:	5b 93 00 10 	sw (sp+16),r19
  109a80:	5b 94 00 0c 	sw (sp+12),r20
  109a84:	5b 95 00 08 	sw (sp+8),r21
  109a88:	5b 9d 00 04 	sw (sp+4),ra
  109a8c:	b8 40 60 00 	mv r12,r2
  109a90:	b8 20 90 00 	mv r18,r1
  109a94:	b8 60 98 00 	mv r19,r3
  109a98:	44 40 00 f0 	be r2,r0,109e58 <_realloc_r+0x400>
  109a9c:	fb ff f4 61 	calli 106c20 <__malloc_lock>
  109aa0:	35 8d ff f8 	addi r13,r12,-8
  109aa4:	36 63 00 0b 	addi r3,r19,11
  109aa8:	34 05 00 16 	mvi r5,22
  109aac:	29 a4 00 04 	lw r4,(r13+4)
  109ab0:	34 01 00 00 	mvi r1,0
  109ab4:	34 02 00 10 	mvi r2,16
  109ab8:	34 0b 00 10 	mvi r11,16
  109abc:	50 a3 00 05 	bgeu r5,r3,109ad0 <_realloc_r+0x78>
  109ac0:	34 0b ff f8 	mvi r11,-8
  109ac4:	a0 6b 58 00 	and r11,r3,r11
  109ac8:	01 61 00 1f 	srui r1,r11,31
  109acc:	b9 60 10 00 	mv r2,r11
  109ad0:	f6 6b 18 00 	cmpgu r3,r19,r11
  109ad4:	b8 23 08 00 	or r1,r1,r3
  109ad8:	5c 20 00 e4 	bne r1,r0,109e68 <_realloc_r+0x410>
  109adc:	34 06 ff fc 	mvi r6,-4
  109ae0:	a0 86 78 00 	and r15,r4,r6
  109ae4:	35 ae 00 08 	addi r14,r13,8
  109ae8:	b9 e0 80 00 	mv r16,r15
  109aec:	b9 a0 18 00 	mv r3,r13
  109af0:	4d e2 00 48 	bge r15,r2,109c10 <_realloc_r+0x1b8>
  109af4:	78 14 00 10 	mvhi r20,0x10
  109af8:	3a 94 d3 7c 	ori r20,r20,0xd37c
  109afc:	2a 81 00 08 	lw r1,(r20+8)
  109b00:	b5 af 28 00 	add r5,r13,r15
  109b04:	44 25 00 dd 	be r1,r5,109e78 <_realloc_r+0x420>
  109b08:	28 a7 00 04 	lw r7,(r5+4)
  109b0c:	34 08 ff fe 	mvi r8,-2
  109b10:	a0 e8 40 00 	and r8,r7,r8
  109b14:	b4 a8 40 00 	add r8,r5,r8
  109b18:	29 08 00 04 	lw r8,(r8+4)
  109b1c:	21 08 00 01 	andi r8,r8,0x1
  109b20:	45 00 00 65 	be r8,r0,109cb4 <_realloc_r+0x25c>
  109b24:	34 06 00 00 	mvi r6,0
  109b28:	34 05 00 00 	mvi r5,0
  109b2c:	20 84 00 01 	andi r4,r4,0x1
  109b30:	5c 80 00 6a 	bne r4,r0,109cd8 <_realloc_r+0x280>
  109b34:	29 91 ff f8 	lw r17,(r12+-8)
  109b38:	34 03 ff fc 	mvi r3,-4
  109b3c:	c9 b1 88 00 	sub r17,r13,r17
  109b40:	2a 35 00 04 	lw r21,(r17+4)
  109b44:	a0 75 a8 00 	and r21,r3,r21
  109b48:	44 a4 00 97 	be r5,r4,109da4 <_realloc_r+0x34c>
  109b4c:	44 a1 00 e8 	be r5,r1,109eec <_realloc_r+0x494>
  109b50:	b6 af a8 00 	add r21,r21,r15
  109b54:	b4 d5 80 00 	add r16,r6,r21
  109b58:	48 50 00 94 	bg r2,r16,109da8 <_realloc_r+0x350>
  109b5c:	28 a1 00 0c 	lw r1,(r5+12)
  109b60:	28 a2 00 08 	lw r2,(r5+8)
  109b64:	35 e3 ff fc 	addi r3,r15,-4
  109b68:	34 05 00 24 	mvi r5,36
  109b6c:	58 41 00 0c 	sw (r2+12),r1
  109b70:	58 22 00 08 	sw (r1+8),r2
  109b74:	2a 22 00 08 	lw r2,(r17+8)
  109b78:	2a 21 00 0c 	lw r1,(r17+12)
  109b7c:	36 2e 00 08 	addi r14,r17,8
  109b80:	58 41 00 0c 	sw (r2+12),r1
  109b84:	58 22 00 08 	sw (r1+8),r2
  109b88:	54 65 01 17 	bgu r3,r5,109fe4 <_realloc_r+0x58c>
  109b8c:	34 01 00 13 	mvi r1,19
  109b90:	b9 80 10 00 	mv r2,r12
  109b94:	b9 c0 20 00 	mv r4,r14
  109b98:	50 23 00 16 	bgeu r1,r3,109bf0 <_realloc_r+0x198>
  109b9c:	29 81 00 00 	lw r1,(r12+0)
  109ba0:	36 24 00 10 	addi r4,r17,16
  109ba4:	35 82 00 08 	addi r2,r12,8
  109ba8:	5a 21 00 08 	sw (r17+8),r1
  109bac:	29 81 00 04 	lw r1,(r12+4)
  109bb0:	5a 21 00 0c 	sw (r17+12),r1
  109bb4:	34 01 00 1b 	mvi r1,27
  109bb8:	50 23 00 0e 	bgeu r1,r3,109bf0 <_realloc_r+0x198>
  109bbc:	29 81 00 08 	lw r1,(r12+8)
  109bc0:	36 24 00 18 	addi r4,r17,24
  109bc4:	5a 21 00 10 	sw (r17+16),r1
  109bc8:	28 41 00 04 	lw r1,(r2+4)
  109bcc:	34 42 00 08 	addi r2,r2,8
  109bd0:	5a 21 00 14 	sw (r17+20),r1
  109bd4:	5c 65 00 07 	bne r3,r5,109bf0 <_realloc_r+0x198>
  109bd8:	28 41 00 00 	lw r1,(r2+0)
  109bdc:	36 24 00 20 	addi r4,r17,32
  109be0:	5a 21 00 18 	sw (r17+24),r1
  109be4:	28 41 00 04 	lw r1,(r2+4)
  109be8:	34 42 00 08 	addi r2,r2,8
  109bec:	5a 21 00 1c 	sw (r17+28),r1
  109bf0:	28 41 00 00 	lw r1,(r2+0)
  109bf4:	ba 20 18 00 	mv r3,r17
  109bf8:	58 81 00 00 	sw (r4+0),r1
  109bfc:	28 41 00 04 	lw r1,(r2+4)
  109c00:	58 81 00 04 	sw (r4+4),r1
  109c04:	28 41 00 08 	lw r1,(r2+8)
  109c08:	58 81 00 08 	sw (r4+8),r1
  109c0c:	2a 24 00 04 	lw r4,(r17+4)
  109c10:	ca 0b 28 00 	sub r5,r16,r11
  109c14:	34 01 00 0f 	mvi r1,15
  109c18:	50 25 00 0f 	bgeu r1,r5,109c54 <_realloc_r+0x1fc>
  109c1c:	20 84 00 01 	andi r4,r4,0x1
  109c20:	b8 8b 20 00 	or r4,r4,r11
  109c24:	b4 6b 10 00 	add r2,r3,r11
  109c28:	58 64 00 04 	sw (r3+4),r4
  109c2c:	38 a1 00 01 	ori r1,r5,0x1
  109c30:	58 41 00 04 	sw (r2+4),r1
  109c34:	b4 45 28 00 	add r5,r2,r5
  109c38:	28 a3 00 04 	lw r3,(r5+4)
  109c3c:	ba 40 08 00 	mv r1,r18
  109c40:	34 42 00 08 	addi r2,r2,8
  109c44:	38 63 00 01 	ori r3,r3,0x1
  109c48:	58 a3 00 04 	sw (r5+4),r3
  109c4c:	fb ff f0 03 	calli 105c58 <_free_r>
  109c50:	e0 00 00 08 	bi 109c70 <_realloc_r+0x218>
  109c54:	20 84 00 01 	andi r4,r4,0x1
  109c58:	b8 90 20 00 	or r4,r4,r16
  109c5c:	58 64 00 04 	sw (r3+4),r4
  109c60:	b4 70 80 00 	add r16,r3,r16
  109c64:	2a 01 00 04 	lw r1,(r16+4)
  109c68:	38 21 00 01 	ori r1,r1,0x1
  109c6c:	5a 01 00 04 	sw (r16+4),r1
  109c70:	ba 40 08 00 	mv r1,r18
  109c74:	fb ff f3 ec 	calli 106c24 <__malloc_unlock>
  109c78:	b9 c0 08 00 	mv r1,r14
  109c7c:	2b 9d 00 04 	lw ra,(sp+4)
  109c80:	2b 8b 00 30 	lw r11,(sp+48)
  109c84:	2b 8c 00 2c 	lw r12,(sp+44)
  109c88:	2b 8d 00 28 	lw r13,(sp+40)
  109c8c:	2b 8e 00 24 	lw r14,(sp+36)
  109c90:	2b 8f 00 20 	lw r15,(sp+32)
  109c94:	2b 90 00 1c 	lw r16,(sp+28)
  109c98:	2b 91 00 18 	lw r17,(sp+24)
  109c9c:	2b 92 00 14 	lw r18,(sp+20)
  109ca0:	2b 93 00 10 	lw r19,(sp+16)
  109ca4:	2b 94 00 0c 	lw r20,(sp+12)
  109ca8:	2b 95 00 08 	lw r21,(sp+8)
  109cac:	37 9c 00 30 	addi sp,sp,48
  109cb0:	c3 a0 00 00 	ret
  109cb4:	a0 e6 30 00 	and r6,r7,r6
  109cb8:	b4 cf 80 00 	add r16,r6,r15
  109cbc:	4e 02 00 02 	bge r16,r2,109cc4 <_realloc_r+0x26c>
  109cc0:	e3 ff ff 9b 	bi 109b2c <_realloc_r+0xd4>
  109cc4:	28 a1 00 0c 	lw r1,(r5+12)
  109cc8:	28 a2 00 08 	lw r2,(r5+8)
  109ccc:	58 41 00 0c 	sw (r2+12),r1
  109cd0:	58 22 00 08 	sw (r1+8),r2
  109cd4:	e3 ff ff cf 	bi 109c10 <_realloc_r+0x1b8>
  109cd8:	ba 40 08 00 	mv r1,r18
  109cdc:	ba 60 10 00 	mv r2,r19
  109ce0:	fb ff f1 86 	calli 1062f8 <_malloc_r>
  109ce4:	b8 20 70 00 	mv r14,r1
  109ce8:	44 20 ff e2 	be r1,r0,109c70 <_realloc_r+0x218>
  109cec:	29 a4 00 04 	lw r4,(r13+4)
  109cf0:	34 03 ff fe 	mvi r3,-2
  109cf4:	34 22 ff f8 	addi r2,r1,-8
  109cf8:	a0 83 18 00 	and r3,r4,r3
  109cfc:	b5 a3 18 00 	add r3,r13,r3
  109d00:	44 43 00 b2 	be r2,r3,109fc8 <_realloc_r+0x570>
  109d04:	35 e3 ff fc 	addi r3,r15,-4
  109d08:	34 04 00 24 	mvi r4,36
  109d0c:	54 64 00 75 	bgu r3,r4,109ee0 <_realloc_r+0x488>
  109d10:	34 05 00 13 	mvi r5,19
  109d14:	b9 80 08 00 	mv r1,r12
  109d18:	b9 c0 10 00 	mv r2,r14
  109d1c:	50 a3 00 16 	bgeu r5,r3,109d74 <_realloc_r+0x31c>
  109d20:	29 81 00 00 	lw r1,(r12+0)
  109d24:	35 c2 00 08 	addi r2,r14,8
  109d28:	59 c1 00 00 	sw (r14+0),r1
  109d2c:	29 85 00 04 	lw r5,(r12+4)
  109d30:	35 81 00 08 	addi r1,r12,8
  109d34:	59 c5 00 04 	sw (r14+4),r5
  109d38:	34 05 00 1b 	mvi r5,27
  109d3c:	50 a3 00 0e 	bgeu r5,r3,109d74 <_realloc_r+0x31c>
  109d40:	29 85 00 08 	lw r5,(r12+8)
  109d44:	35 c2 00 10 	addi r2,r14,16
  109d48:	35 81 00 10 	addi r1,r12,16
  109d4c:	59 c5 00 08 	sw (r14+8),r5
  109d50:	29 85 00 0c 	lw r5,(r12+12)
  109d54:	59 c5 00 0c 	sw (r14+12),r5
  109d58:	5c 64 00 07 	bne r3,r4,109d74 <_realloc_r+0x31c>
  109d5c:	29 83 00 10 	lw r3,(r12+16)
  109d60:	35 c2 00 18 	addi r2,r14,24
  109d64:	35 81 00 18 	addi r1,r12,24
  109d68:	59 c3 00 10 	sw (r14+16),r3
  109d6c:	29 83 00 14 	lw r3,(r12+20)
  109d70:	59 c3 00 14 	sw (r14+20),r3
  109d74:	28 23 00 00 	lw r3,(r1+0)
  109d78:	58 43 00 00 	sw (r2+0),r3
  109d7c:	28 23 00 04 	lw r3,(r1+4)
  109d80:	58 43 00 04 	sw (r2+4),r3
  109d84:	28 21 00 08 	lw r1,(r1+8)
  109d88:	58 41 00 08 	sw (r2+8),r1
  109d8c:	ba 40 08 00 	mv r1,r18
  109d90:	b9 80 10 00 	mv r2,r12
  109d94:	fb ff ef b1 	calli 105c58 <_free_r>
  109d98:	ba 40 08 00 	mv r1,r18
  109d9c:	fb ff f3 a2 	calli 106c24 <__malloc_unlock>
  109da0:	e3 ff ff b6 	bi 109c78 <_realloc_r+0x220>
  109da4:	b6 af a8 00 	add r21,r21,r15
  109da8:	48 55 ff cc 	bg r2,r21,109cd8 <_realloc_r+0x280>
  109dac:	2a 21 00 0c 	lw r1,(r17+12)
  109db0:	2a 22 00 08 	lw r2,(r17+8)
  109db4:	35 e3 ff fc 	addi r3,r15,-4
  109db8:	34 05 00 24 	mvi r5,36
  109dbc:	58 41 00 0c 	sw (r2+12),r1
  109dc0:	58 22 00 08 	sw (r1+8),r2
  109dc4:	36 2e 00 08 	addi r14,r17,8
  109dc8:	54 65 00 3f 	bgu r3,r5,109ec4 <_realloc_r+0x46c>
  109dcc:	34 01 00 13 	mvi r1,19
  109dd0:	b9 80 10 00 	mv r2,r12
  109dd4:	b9 c0 20 00 	mv r4,r14
  109dd8:	50 23 00 16 	bgeu r1,r3,109e30 <_realloc_r+0x3d8>
  109ddc:	29 81 00 00 	lw r1,(r12+0)
  109de0:	36 24 00 10 	addi r4,r17,16
  109de4:	35 82 00 08 	addi r2,r12,8
  109de8:	5a 21 00 08 	sw (r17+8),r1
  109dec:	29 81 00 04 	lw r1,(r12+4)
  109df0:	5a 21 00 0c 	sw (r17+12),r1
  109df4:	34 01 00 1b 	mvi r1,27
  109df8:	50 23 00 0e 	bgeu r1,r3,109e30 <_realloc_r+0x3d8>
  109dfc:	29 81 00 08 	lw r1,(r12+8)
  109e00:	36 24 00 18 	addi r4,r17,24
  109e04:	5a 21 00 10 	sw (r17+16),r1
  109e08:	28 41 00 04 	lw r1,(r2+4)
  109e0c:	34 42 00 08 	addi r2,r2,8
  109e10:	5a 21 00 14 	sw (r17+20),r1
  109e14:	5c 65 00 07 	bne r3,r5,109e30 <_realloc_r+0x3d8>
  109e18:	28 41 00 00 	lw r1,(r2+0)
  109e1c:	36 24 00 20 	addi r4,r17,32
  109e20:	5a 21 00 18 	sw (r17+24),r1
  109e24:	28 41 00 04 	lw r1,(r2+4)
  109e28:	34 42 00 08 	addi r2,r2,8
  109e2c:	5a 21 00 1c 	sw (r17+28),r1
  109e30:	28 41 00 00 	lw r1,(r2+0)
  109e34:	ba a0 80 00 	mv r16,r21
  109e38:	ba 20 18 00 	mv r3,r17
  109e3c:	58 81 00 00 	sw (r4+0),r1
  109e40:	28 41 00 04 	lw r1,(r2+4)
  109e44:	58 81 00 04 	sw (r4+4),r1
  109e48:	28 41 00 08 	lw r1,(r2+8)
  109e4c:	58 81 00 08 	sw (r4+8),r1
  109e50:	2a 24 00 04 	lw r4,(r17+4)
  109e54:	e3 ff ff 6f 	bi 109c10 <_realloc_r+0x1b8>
  109e58:	b8 60 10 00 	mv r2,r3
  109e5c:	fb ff f1 27 	calli 1062f8 <_malloc_r>
  109e60:	b8 20 70 00 	mv r14,r1
  109e64:	e3 ff ff 85 	bi 109c78 <_realloc_r+0x220>
  109e68:	34 01 00 0c 	mvi r1,12
  109e6c:	5a 41 00 00 	sw (r18+0),r1
  109e70:	34 0e 00 00 	mvi r14,0
  109e74:	e3 ff ff 81 	bi 109c78 <_realloc_r+0x220>
  109e78:	28 23 00 04 	lw r3,(r1+4)
  109e7c:	35 67 00 10 	addi r7,r11,16
  109e80:	b8 20 28 00 	mv r5,r1
  109e84:	a0 c3 30 00 	and r6,r6,r3
  109e88:	b4 cf 18 00 	add r3,r6,r15
  109e8c:	48 e3 ff 28 	bg r7,r3,109b2c <_realloc_r+0xd4>
  109e90:	c8 6b 08 00 	sub r1,r3,r11
  109e94:	b5 ab 10 00 	add r2,r13,r11
  109e98:	38 21 00 01 	ori r1,r1,0x1
  109e9c:	58 41 00 04 	sw (r2+4),r1
  109ea0:	29 a3 00 04 	lw r3,(r13+4)
  109ea4:	5a 82 00 08 	sw (r20+8),r2
  109ea8:	ba 40 08 00 	mv r1,r18
  109eac:	20 62 00 01 	andi r2,r3,0x1
  109eb0:	b9 62 58 00 	or r11,r11,r2
  109eb4:	59 ab 00 04 	sw (r13+4),r11
  109eb8:	fb ff f3 5b 	calli 106c24 <__malloc_unlock>
  109ebc:	b9 80 70 00 	mv r14,r12
  109ec0:	e3 ff ff 6e 	bi 109c78 <_realloc_r+0x220>
  109ec4:	b9 c0 08 00 	mv r1,r14
  109ec8:	b9 80 10 00 	mv r2,r12
  109ecc:	fb ff fe 7c 	calli 1098bc <memmove>
  109ed0:	2a 24 00 04 	lw r4,(r17+4)
  109ed4:	ba a0 80 00 	mv r16,r21
  109ed8:	ba 20 18 00 	mv r3,r17
  109edc:	e3 ff ff 4d 	bi 109c10 <_realloc_r+0x1b8>
  109ee0:	b9 80 10 00 	mv r2,r12
  109ee4:	fb ff fe 76 	calli 1098bc <memmove>
  109ee8:	e3 ff ff a9 	bi 109d8c <_realloc_r+0x334>
  109eec:	b6 af a8 00 	add r21,r21,r15
  109ef0:	b4 d5 80 00 	add r16,r6,r21
  109ef4:	35 61 00 10 	addi r1,r11,16
  109ef8:	48 30 ff ac 	bg r1,r16,109da8 <_realloc_r+0x350>
  109efc:	2a 21 00 0c 	lw r1,(r17+12)
  109f00:	2a 22 00 08 	lw r2,(r17+8)
  109f04:	35 e3 ff fc 	addi r3,r15,-4
  109f08:	34 04 00 24 	mvi r4,36
  109f0c:	58 41 00 0c 	sw (r2+12),r1
  109f10:	58 22 00 08 	sw (r1+8),r2
  109f14:	36 2e 00 08 	addi r14,r17,8
  109f18:	54 64 00 39 	bgu r3,r4,109ffc <_realloc_r+0x5a4>
  109f1c:	34 05 00 13 	mvi r5,19
  109f20:	b9 80 08 00 	mv r1,r12
  109f24:	b9 c0 10 00 	mv r2,r14
  109f28:	50 a3 00 16 	bgeu r5,r3,109f80 <_realloc_r+0x528>
  109f2c:	29 85 00 00 	lw r5,(r12+0)
  109f30:	36 22 00 10 	addi r2,r17,16
  109f34:	35 81 00 08 	addi r1,r12,8
  109f38:	5a 25 00 08 	sw (r17+8),r5
  109f3c:	29 85 00 04 	lw r5,(r12+4)
  109f40:	5a 25 00 0c 	sw (r17+12),r5
  109f44:	34 05 00 1b 	mvi r5,27
  109f48:	50 a3 00 0e 	bgeu r5,r3,109f80 <_realloc_r+0x528>
  109f4c:	29 85 00 08 	lw r5,(r12+8)
  109f50:	36 22 00 18 	addi r2,r17,24
  109f54:	5a 25 00 10 	sw (r17+16),r5
  109f58:	28 25 00 04 	lw r5,(r1+4)
  109f5c:	34 21 00 08 	addi r1,r1,8
  109f60:	5a 25 00 14 	sw (r17+20),r5
  109f64:	5c 64 00 07 	bne r3,r4,109f80 <_realloc_r+0x528>
  109f68:	28 23 00 00 	lw r3,(r1+0)
  109f6c:	36 22 00 20 	addi r2,r17,32
  109f70:	5a 23 00 18 	sw (r17+24),r3
  109f74:	28 23 00 04 	lw r3,(r1+4)
  109f78:	34 21 00 08 	addi r1,r1,8
  109f7c:	5a 23 00 1c 	sw (r17+28),r3
  109f80:	28 23 00 00 	lw r3,(r1+0)
  109f84:	58 43 00 00 	sw (r2+0),r3
  109f88:	28 23 00 04 	lw r3,(r1+4)
  109f8c:	58 43 00 04 	sw (r2+4),r3
  109f90:	28 21 00 08 	lw r1,(r1+8)
  109f94:	58 41 00 08 	sw (r2+8),r1
  109f98:	ca 0b 08 00 	sub r1,r16,r11
  109f9c:	b6 2b 10 00 	add r2,r17,r11
  109fa0:	38 21 00 01 	ori r1,r1,0x1
  109fa4:	58 41 00 04 	sw (r2+4),r1
  109fa8:	2a 23 00 04 	lw r3,(r17+4)
  109fac:	5a 82 00 08 	sw (r20+8),r2
  109fb0:	ba 40 08 00 	mv r1,r18
  109fb4:	20 62 00 01 	andi r2,r3,0x1
  109fb8:	b9 62 58 00 	or r11,r11,r2
  109fbc:	5a 2b 00 04 	sw (r17+4),r11
  109fc0:	fb ff f3 19 	calli 106c24 <__malloc_unlock>
  109fc4:	e3 ff ff 2d 	bi 109c78 <_realloc_r+0x220>
  109fc8:	28 41 00 04 	lw r1,(r2+4)
  109fcc:	34 10 ff fc 	mvi r16,-4
  109fd0:	35 ae 00 08 	addi r14,r13,8
  109fd4:	a2 01 80 00 	and r16,r16,r1
  109fd8:	b6 0f 80 00 	add r16,r16,r15
  109fdc:	b9 a0 18 00 	mv r3,r13
  109fe0:	e3 ff ff 0c 	bi 109c10 <_realloc_r+0x1b8>
  109fe4:	b9 c0 08 00 	mv r1,r14
  109fe8:	b9 80 10 00 	mv r2,r12
  109fec:	fb ff fe 34 	calli 1098bc <memmove>
  109ff0:	2a 24 00 04 	lw r4,(r17+4)
  109ff4:	ba 20 18 00 	mv r3,r17
  109ff8:	e3 ff ff 06 	bi 109c10 <_realloc_r+0x1b8>
  109ffc:	b9 c0 08 00 	mv r1,r14
  10a000:	b9 80 10 00 	mv r2,r12
  10a004:	fb ff fe 2e 	calli 1098bc <memmove>
  10a008:	e3 ff ff e4 	bi 109f98 <_realloc_r+0x540>

0010a00c <cleanup_glue>:
  10a00c:	37 9c ff f4 	addi sp,sp,-12
  10a010:	5b 8b 00 0c 	sw (sp+12),r11
  10a014:	5b 8c 00 08 	sw (sp+8),r12
  10a018:	5b 9d 00 04 	sw (sp+4),ra
  10a01c:	28 43 00 00 	lw r3,(r2+0)
  10a020:	b8 40 58 00 	mv r11,r2
  10a024:	b8 20 60 00 	mv r12,r1
  10a028:	44 60 00 03 	be r3,r0,10a034 <cleanup_glue+0x28>
  10a02c:	b8 60 10 00 	mv r2,r3
  10a030:	fb ff ff f7 	calli 10a00c <cleanup_glue>
  10a034:	b9 80 08 00 	mv r1,r12
  10a038:	b9 60 10 00 	mv r2,r11
  10a03c:	fb ff ef 07 	calli 105c58 <_free_r>
  10a040:	2b 9d 00 04 	lw ra,(sp+4)
  10a044:	2b 8b 00 0c 	lw r11,(sp+12)
  10a048:	2b 8c 00 08 	lw r12,(sp+8)
  10a04c:	37 9c 00 0c 	addi sp,sp,12
  10a050:	c3 a0 00 00 	ret

0010a054 <_reclaim_reent>:
  10a054:	37 9c ff ec 	addi sp,sp,-20
  10a058:	5b 8b 00 14 	sw (sp+20),r11
  10a05c:	5b 8c 00 10 	sw (sp+16),r12
  10a060:	5b 8d 00 0c 	sw (sp+12),r13
  10a064:	5b 8e 00 08 	sw (sp+8),r14
  10a068:	5b 9d 00 04 	sw (sp+4),ra
  10a06c:	78 02 00 10 	mvhi r2,0x10
  10a070:	38 42 cf 08 	ori r2,r2,0xcf08
  10a074:	28 42 00 00 	lw r2,(r2+0)
  10a078:	b8 20 60 00 	mv r12,r1
  10a07c:	44 22 00 2b 	be r1,r2,10a128 <_reclaim_reent+0xd4>
  10a080:	28 23 00 4c 	lw r3,(r1+76)
  10a084:	44 60 00 15 	be r3,r0,10a0d8 <_reclaim_reent+0x84>
  10a088:	34 01 00 00 	mvi r1,0
  10a08c:	34 0d 00 00 	mvi r13,0
  10a090:	34 0e 00 20 	mvi r14,32
  10a094:	3c 21 00 02 	sli r1,r1,2
  10a098:	b4 61 08 00 	add r1,r3,r1
  10a09c:	28 22 00 00 	lw r2,(r1+0)
  10a0a0:	5c 40 00 03 	bne r2,r0,10a0ac <_reclaim_reent+0x58>
  10a0a4:	e0 00 00 07 	bi 10a0c0 <_reclaim_reent+0x6c>
  10a0a8:	b9 60 10 00 	mv r2,r11
  10a0ac:	28 4b 00 00 	lw r11,(r2+0)
  10a0b0:	b9 80 08 00 	mv r1,r12
  10a0b4:	fb ff ee e9 	calli 105c58 <_free_r>
  10a0b8:	5d 60 ff fc 	bne r11,r0,10a0a8 <_reclaim_reent+0x54>
  10a0bc:	29 83 00 4c 	lw r3,(r12+76)
  10a0c0:	35 ad 00 01 	addi r13,r13,1
  10a0c4:	b9 a0 08 00 	mv r1,r13
  10a0c8:	5d ae ff f3 	bne r13,r14,10a094 <_reclaim_reent+0x40>
  10a0cc:	b9 80 08 00 	mv r1,r12
  10a0d0:	b8 60 10 00 	mv r2,r3
  10a0d4:	fb ff ee e1 	calli 105c58 <_free_r>
  10a0d8:	29 82 00 40 	lw r2,(r12+64)
  10a0dc:	44 40 00 03 	be r2,r0,10a0e8 <_reclaim_reent+0x94>
  10a0e0:	b9 80 08 00 	mv r1,r12
  10a0e4:	fb ff ee dd 	calli 105c58 <_free_r>
  10a0e8:	29 82 01 48 	lw r2,(r12+328)
  10a0ec:	44 40 00 09 	be r2,r0,10a110 <_reclaim_reent+0xbc>
  10a0f0:	35 8d 01 4c 	addi r13,r12,332
  10a0f4:	5c 4d 00 03 	bne r2,r13,10a100 <_reclaim_reent+0xac>
  10a0f8:	e0 00 00 06 	bi 10a110 <_reclaim_reent+0xbc>
  10a0fc:	b9 60 10 00 	mv r2,r11
  10a100:	28 4b 00 00 	lw r11,(r2+0)
  10a104:	b9 80 08 00 	mv r1,r12
  10a108:	fb ff ee d4 	calli 105c58 <_free_r>
  10a10c:	5d ab ff fc 	bne r13,r11,10a0fc <_reclaim_reent+0xa8>
  10a110:	29 82 00 54 	lw r2,(r12+84)
  10a114:	44 40 00 03 	be r2,r0,10a120 <_reclaim_reent+0xcc>
  10a118:	b9 80 08 00 	mv r1,r12
  10a11c:	fb ff ee cf 	calli 105c58 <_free_r>
  10a120:	29 81 00 38 	lw r1,(r12+56)
  10a124:	5c 20 00 08 	bne r1,r0,10a144 <_reclaim_reent+0xf0>
  10a128:	2b 9d 00 04 	lw ra,(sp+4)
  10a12c:	2b 8b 00 14 	lw r11,(sp+20)
  10a130:	2b 8c 00 10 	lw r12,(sp+16)
  10a134:	2b 8d 00 0c 	lw r13,(sp+12)
  10a138:	2b 8e 00 08 	lw r14,(sp+8)
  10a13c:	37 9c 00 14 	addi sp,sp,20
  10a140:	c3 a0 00 00 	ret
  10a144:	29 82 00 3c 	lw r2,(r12+60)
  10a148:	b9 80 08 00 	mv r1,r12
  10a14c:	d8 40 00 00 	call r2
  10a150:	29 82 02 e0 	lw r2,(r12+736)
  10a154:	44 40 ff f5 	be r2,r0,10a128 <_reclaim_reent+0xd4>
  10a158:	b9 80 08 00 	mv r1,r12
  10a15c:	fb ff ff ac 	calli 10a00c <cleanup_glue>
  10a160:	2b 9d 00 04 	lw ra,(sp+4)
  10a164:	2b 8b 00 14 	lw r11,(sp+20)
  10a168:	2b 8c 00 10 	lw r12,(sp+16)
  10a16c:	2b 8d 00 0c 	lw r13,(sp+12)
  10a170:	2b 8e 00 08 	lw r14,(sp+8)
  10a174:	37 9c 00 14 	addi sp,sp,20
  10a178:	c3 a0 00 00 	ret

0010a17c <_wrapup_reent>:
  10a17c:	37 9c ff ec 	addi sp,sp,-20
  10a180:	5b 8b 00 14 	sw (sp+20),r11
  10a184:	5b 8c 00 10 	sw (sp+16),r12
  10a188:	5b 8d 00 0c 	sw (sp+12),r13
  10a18c:	5b 8e 00 08 	sw (sp+8),r14
  10a190:	5b 9d 00 04 	sw (sp+4),ra
  10a194:	b8 20 70 00 	mv r14,r1
  10a198:	44 20 00 1b 	be r1,r0,10a204 <_wrapup_reent+0x88>
  10a19c:	29 cd 01 48 	lw r13,(r14+328)
  10a1a0:	45 a0 00 0e 	be r13,r0,10a1d8 <_wrapup_reent+0x5c>
  10a1a4:	29 a2 00 04 	lw r2,(r13+4)
  10a1a8:	34 4b ff ff 	addi r11,r2,-1
  10a1ac:	48 0b 00 09 	bg r0,r11,10a1d0 <_wrapup_reent+0x54>
  10a1b0:	34 4c 00 01 	addi r12,r2,1
  10a1b4:	3d 8c 00 02 	sli r12,r12,2
  10a1b8:	b5 ac 60 00 	add r12,r13,r12
  10a1bc:	29 82 00 00 	lw r2,(r12+0)
  10a1c0:	35 6b ff ff 	addi r11,r11,-1
  10a1c4:	35 8c ff fc 	addi r12,r12,-4
  10a1c8:	d8 40 00 00 	call r2
  10a1cc:	4d 60 ff fc 	bge r11,r0,10a1bc <_wrapup_reent+0x40>
  10a1d0:	29 ad 00 00 	lw r13,(r13+0)
  10a1d4:	5d a0 ff f4 	bne r13,r0,10a1a4 <_wrapup_reent+0x28>
  10a1d8:	29 c2 00 3c 	lw r2,(r14+60)
  10a1dc:	44 40 00 03 	be r2,r0,10a1e8 <_wrapup_reent+0x6c>
  10a1e0:	b9 c0 08 00 	mv r1,r14
  10a1e4:	d8 40 00 00 	call r2
  10a1e8:	2b 9d 00 04 	lw ra,(sp+4)
  10a1ec:	2b 8b 00 14 	lw r11,(sp+20)
  10a1f0:	2b 8c 00 10 	lw r12,(sp+16)
  10a1f4:	2b 8d 00 0c 	lw r13,(sp+12)
  10a1f8:	2b 8e 00 08 	lw r14,(sp+8)
  10a1fc:	37 9c 00 14 	addi sp,sp,20
  10a200:	c3 a0 00 00 	ret
  10a204:	78 01 00 10 	mvhi r1,0x10
  10a208:	38 21 cf 08 	ori r1,r1,0xcf08
  10a20c:	28 2e 00 00 	lw r14,(r1+0)
  10a210:	e3 ff ff e3 	bi 10a19c <_wrapup_reent+0x20>

0010a214 <__swbuf_r>:
  10a214:	37 9c ff ec 	addi sp,sp,-20
  10a218:	5b 8b 00 14 	sw (sp+20),r11
  10a21c:	5b 8c 00 10 	sw (sp+16),r12
  10a220:	5b 8d 00 0c 	sw (sp+12),r13
  10a224:	5b 8e 00 08 	sw (sp+8),r14
  10a228:	5b 9d 00 04 	sw (sp+4),ra
  10a22c:	b8 20 68 00 	mv r13,r1
  10a230:	b8 40 70 00 	mv r14,r2
  10a234:	b8 60 58 00 	mv r11,r3
  10a238:	44 20 00 03 	be r1,r0,10a244 <__swbuf_r+0x30>
  10a23c:	28 22 00 38 	lw r2,(r1+56)
  10a240:	44 40 00 34 	be r2,r0,10a310 <__swbuf_r+0xfc>
  10a244:	1d 63 00 0c 	lh r3,(r11+12)
  10a248:	29 62 00 18 	lw r2,(r11+24)
  10a24c:	20 61 ff ff 	andi r1,r3,0xffff
  10a250:	59 62 00 08 	sw (r11+8),r2
  10a254:	20 24 00 08 	andi r4,r1,0x8
  10a258:	44 80 00 26 	be r4,r0,10a2f0 <__swbuf_r+0xdc>
  10a25c:	29 64 00 10 	lw r4,(r11+16)
  10a260:	44 80 00 24 	be r4,r0,10a2f0 <__swbuf_r+0xdc>
  10a264:	20 21 20 00 	andi r1,r1,0x2000
  10a268:	44 20 00 1b 	be r1,r0,10a2d4 <__swbuf_r+0xc0>
  10a26c:	29 61 00 00 	lw r1,(r11+0)
  10a270:	29 62 00 14 	lw r2,(r11+20)
  10a274:	c8 24 20 00 	sub r4,r1,r4
  10a278:	4c 82 00 2e 	bge r4,r2,10a330 <__swbuf_r+0x11c>
  10a27c:	34 84 00 01 	addi r4,r4,1
  10a280:	29 63 00 08 	lw r3,(r11+8)
  10a284:	21 cc 00 ff 	andi r12,r14,0xff
  10a288:	34 22 00 01 	addi r2,r1,1
  10a28c:	34 63 ff ff 	addi r3,r3,-1
  10a290:	59 63 00 08 	sw (r11+8),r3
  10a294:	30 2c 00 00 	sb (r1+0),r12
  10a298:	29 61 00 14 	lw r1,(r11+20)
  10a29c:	59 62 00 00 	sw (r11+0),r2
  10a2a0:	44 24 00 1e 	be r1,r4,10a318 <__swbuf_r+0x104>
  10a2a4:	2d 62 00 0c 	lhu r2,(r11+12)
  10a2a8:	65 81 00 0a 	cmpei r1,r12,10
  10a2ac:	a0 41 08 00 	and r1,r2,r1
  10a2b0:	5c 20 00 1a 	bne r1,r0,10a318 <__swbuf_r+0x104>
  10a2b4:	b9 80 08 00 	mv r1,r12
  10a2b8:	2b 9d 00 04 	lw ra,(sp+4)
  10a2bc:	2b 8b 00 14 	lw r11,(sp+20)
  10a2c0:	2b 8c 00 10 	lw r12,(sp+16)
  10a2c4:	2b 8d 00 0c 	lw r13,(sp+12)
  10a2c8:	2b 8e 00 08 	lw r14,(sp+8)
  10a2cc:	37 9c 00 14 	addi sp,sp,20
  10a2d0:	c3 a0 00 00 	ret
  10a2d4:	29 62 00 64 	lw r2,(r11+100)
  10a2d8:	34 01 df ff 	mvi r1,-8193
  10a2dc:	38 63 20 00 	ori r3,r3,0x2000
  10a2e0:	a0 41 08 00 	and r1,r2,r1
  10a2e4:	0d 63 00 0c 	sh (r11+12),r3
  10a2e8:	59 61 00 64 	sw (r11+100),r1
  10a2ec:	e3 ff ff e0 	bi 10a26c <__swbuf_r+0x58>
  10a2f0:	b9 a0 08 00 	mv r1,r13
  10a2f4:	b9 60 10 00 	mv r2,r11
  10a2f8:	fb ff e6 90 	calli 103d38 <__swsetup_r>
  10a2fc:	5c 20 00 15 	bne r1,r0,10a350 <__swbuf_r+0x13c>
  10a300:	1d 63 00 0c 	lh r3,(r11+12)
  10a304:	29 64 00 10 	lw r4,(r11+16)
  10a308:	20 61 ff ff 	andi r1,r3,0xffff
  10a30c:	e3 ff ff d6 	bi 10a264 <__swbuf_r+0x50>
  10a310:	fb ff ed 42 	calli 105818 <__sinit>
  10a314:	e3 ff ff cc 	bi 10a244 <__swbuf_r+0x30>
  10a318:	b9 a0 08 00 	mv r1,r13
  10a31c:	b9 60 10 00 	mv r2,r11
  10a320:	fb ff ec 70 	calli 1054e0 <_fflush_r>
  10a324:	44 20 ff e4 	be r1,r0,10a2b4 <__swbuf_r+0xa0>
  10a328:	34 0c ff ff 	mvi r12,-1
  10a32c:	e3 ff ff e2 	bi 10a2b4 <__swbuf_r+0xa0>
  10a330:	b9 a0 08 00 	mv r1,r13
  10a334:	b9 60 10 00 	mv r2,r11
  10a338:	fb ff ec 6a 	calli 1054e0 <_fflush_r>
  10a33c:	34 0c ff ff 	mvi r12,-1
  10a340:	5c 20 ff dd 	bne r1,r0,10a2b4 <__swbuf_r+0xa0>
  10a344:	29 61 00 00 	lw r1,(r11+0)
  10a348:	34 04 00 01 	mvi r4,1
  10a34c:	e3 ff ff cd 	bi 10a280 <__swbuf_r+0x6c>
  10a350:	2d 61 00 0c 	lhu r1,(r11+12)
  10a354:	34 0c ff ff 	mvi r12,-1
  10a358:	38 21 00 40 	ori r1,r1,0x40
  10a35c:	0d 61 00 0c 	sh (r11+12),r1
  10a360:	34 01 00 09 	mvi r1,9
  10a364:	59 a1 00 00 	sw (r13+0),r1
  10a368:	e3 ff ff d3 	bi 10a2b4 <__swbuf_r+0xa0>

0010a36c <__swbuf>:
  10a36c:	37 9c ff fc 	addi sp,sp,-4
  10a370:	5b 9d 00 04 	sw (sp+4),ra
  10a374:	78 03 00 10 	mvhi r3,0x10
  10a378:	38 63 cf 08 	ori r3,r3,0xcf08
  10a37c:	b8 20 20 00 	mv r4,r1
  10a380:	28 61 00 00 	lw r1,(r3+0)
  10a384:	b8 40 18 00 	mv r3,r2
  10a388:	b8 80 10 00 	mv r2,r4
  10a38c:	fb ff ff a2 	calli 10a214 <__swbuf_r>
  10a390:	2b 9d 00 04 	lw ra,(sp+4)
  10a394:	37 9c 00 04 	addi sp,sp,4
  10a398:	c3 a0 00 00 	ret

0010a39c <_wcrtomb_r>:
  10a39c:	37 9c ff dc 	addi sp,sp,-36
  10a3a0:	5b 8b 00 10 	sw (sp+16),r11
  10a3a4:	5b 8c 00 0c 	sw (sp+12),r12
  10a3a8:	5b 8d 00 08 	sw (sp+8),r13
  10a3ac:	5b 9d 00 04 	sw (sp+4),ra
  10a3b0:	b8 20 58 00 	mv r11,r1
  10a3b4:	b8 80 60 00 	mv r12,r4
  10a3b8:	44 40 00 1a 	be r2,r0,10a420 <_wcrtomb_r+0x84>
  10a3bc:	78 06 00 10 	mvhi r6,0x10
  10a3c0:	38 c6 d7 8c 	ori r6,r6,0xd78c
  10a3c4:	28 cd 00 00 	lw r13,(r6+0)
  10a3c8:	5b 82 00 18 	sw (sp+24),r2
  10a3cc:	5b 83 00 14 	sw (sp+20),r3
  10a3d0:	fb ff ef 45 	calli 1060e4 <__locale_charset>
  10a3d4:	2b 82 00 18 	lw r2,(sp+24)
  10a3d8:	2b 83 00 14 	lw r3,(sp+20)
  10a3dc:	b8 20 20 00 	mv r4,r1
  10a3e0:	b9 80 28 00 	mv r5,r12
  10a3e4:	b9 60 08 00 	mv r1,r11
  10a3e8:	d9 a0 00 00 	call r13
  10a3ec:	b8 20 10 00 	mv r2,r1
  10a3f0:	34 01 ff ff 	mvi r1,-1
  10a3f4:	5c 41 00 04 	bne r2,r1,10a404 <_wcrtomb_r+0x68>
  10a3f8:	59 80 00 00 	sw (r12+0),r0
  10a3fc:	34 01 00 8a 	mvi r1,138
  10a400:	59 61 00 00 	sw (r11+0),r1
  10a404:	b8 40 08 00 	mv r1,r2
  10a408:	2b 9d 00 04 	lw ra,(sp+4)
  10a40c:	2b 8b 00 10 	lw r11,(sp+16)
  10a410:	2b 8c 00 0c 	lw r12,(sp+12)
  10a414:	2b 8d 00 08 	lw r13,(sp+8)
  10a418:	37 9c 00 24 	addi sp,sp,36
  10a41c:	c3 a0 00 00 	ret
  10a420:	78 01 00 10 	mvhi r1,0x10
  10a424:	38 21 d7 8c 	ori r1,r1,0xd78c
  10a428:	28 2d 00 00 	lw r13,(r1+0)
  10a42c:	fb ff ef 2e 	calli 1060e4 <__locale_charset>
  10a430:	b8 20 20 00 	mv r4,r1
  10a434:	37 82 00 1c 	addi r2,sp,28
  10a438:	b9 60 08 00 	mv r1,r11
  10a43c:	34 03 00 00 	mvi r3,0
  10a440:	b9 80 28 00 	mv r5,r12
  10a444:	d9 a0 00 00 	call r13
  10a448:	e3 ff ff e9 	bi 10a3ec <_wcrtomb_r+0x50>

0010a44c <wcrtomb>:
  10a44c:	37 9c ff d8 	addi sp,sp,-40
  10a450:	5b 8b 00 1c 	sw (sp+28),r11
  10a454:	5b 8c 00 18 	sw (sp+24),r12
  10a458:	5b 8d 00 14 	sw (sp+20),r13
  10a45c:	5b 8e 00 10 	sw (sp+16),r14
  10a460:	5b 8f 00 0c 	sw (sp+12),r15
  10a464:	5b 90 00 08 	sw (sp+8),r16
  10a468:	5b 9d 00 04 	sw (sp+4),ra
  10a46c:	b8 20 68 00 	mv r13,r1
  10a470:	b8 40 70 00 	mv r14,r2
  10a474:	b8 60 60 00 	mv r12,r3
  10a478:	44 20 00 1d 	be r1,r0,10a4ec <wcrtomb+0xa0>
  10a47c:	78 0b 00 10 	mvhi r11,0x10
  10a480:	78 04 00 10 	mvhi r4,0x10
  10a484:	39 6b cf 08 	ori r11,r11,0xcf08
  10a488:	38 84 d7 8c 	ori r4,r4,0xd78c
  10a48c:	29 70 00 00 	lw r16,(r11+0)
  10a490:	28 8f 00 00 	lw r15,(r4+0)
  10a494:	fb ff ef 14 	calli 1060e4 <__locale_charset>
  10a498:	b8 20 20 00 	mv r4,r1
  10a49c:	b9 a0 10 00 	mv r2,r13
  10a4a0:	ba 00 08 00 	mv r1,r16
  10a4a4:	b9 c0 18 00 	mv r3,r14
  10a4a8:	b9 80 28 00 	mv r5,r12
  10a4ac:	d9 e0 00 00 	call r15
  10a4b0:	34 02 ff ff 	mvi r2,-1
  10a4b4:	5c 22 00 05 	bne r1,r2,10a4c8 <wcrtomb+0x7c>
  10a4b8:	29 62 00 00 	lw r2,(r11+0)
  10a4bc:	34 03 00 8a 	mvi r3,138
  10a4c0:	59 80 00 00 	sw (r12+0),r0
  10a4c4:	58 43 00 00 	sw (r2+0),r3
  10a4c8:	2b 9d 00 04 	lw ra,(sp+4)
  10a4cc:	2b 8b 00 1c 	lw r11,(sp+28)
  10a4d0:	2b 8c 00 18 	lw r12,(sp+24)
  10a4d4:	2b 8d 00 14 	lw r13,(sp+20)
  10a4d8:	2b 8e 00 10 	lw r14,(sp+16)
  10a4dc:	2b 8f 00 0c 	lw r15,(sp+12)
  10a4e0:	2b 90 00 08 	lw r16,(sp+8)
  10a4e4:	37 9c 00 28 	addi sp,sp,40
  10a4e8:	c3 a0 00 00 	ret
  10a4ec:	78 0b 00 10 	mvhi r11,0x10
  10a4f0:	39 6b cf 08 	ori r11,r11,0xcf08
  10a4f4:	78 02 00 10 	mvhi r2,0x10
  10a4f8:	29 6e 00 00 	lw r14,(r11+0)
  10a4fc:	38 42 d7 8c 	ori r2,r2,0xd78c
  10a500:	28 4d 00 00 	lw r13,(r2+0)
  10a504:	fb ff ee f8 	calli 1060e4 <__locale_charset>
  10a508:	b8 20 20 00 	mv r4,r1
  10a50c:	37 82 00 20 	addi r2,sp,32
  10a510:	b9 c0 08 00 	mv r1,r14
  10a514:	34 03 00 00 	mvi r3,0
  10a518:	b9 80 28 00 	mv r5,r12
  10a51c:	d9 a0 00 00 	call r13
  10a520:	e3 ff ff e4 	bi 10a4b0 <wcrtomb+0x64>

0010a524 <__ascii_wctomb>:
  10a524:	b8 20 20 00 	mv r4,r1
  10a528:	34 01 00 00 	mvi r1,0
  10a52c:	44 40 00 09 	be r2,r0,10a550 <__ascii_wctomb+0x2c>
  10a530:	34 01 00 ff 	mvi r1,255
  10a534:	50 23 00 05 	bgeu r1,r3,10a548 <__ascii_wctomb+0x24>
  10a538:	34 01 00 8a 	mvi r1,138
  10a53c:	58 81 00 00 	sw (r4+0),r1
  10a540:	34 01 ff ff 	mvi r1,-1
  10a544:	c3 a0 00 00 	ret
  10a548:	30 43 00 00 	sb (r2+0),r3
  10a54c:	34 01 00 01 	mvi r1,1
  10a550:	c3 a0 00 00 	ret

0010a554 <_wctomb_r>:
  10a554:	37 9c ff e8 	addi sp,sp,-24
  10a558:	5b 8b 00 10 	sw (sp+16),r11
  10a55c:	5b 8c 00 0c 	sw (sp+12),r12
  10a560:	5b 8d 00 08 	sw (sp+8),r13
  10a564:	5b 9d 00 04 	sw (sp+4),ra
  10a568:	78 05 00 10 	mvhi r5,0x10
  10a56c:	38 a5 d7 8c 	ori r5,r5,0xd78c
  10a570:	28 ab 00 00 	lw r11,(r5+0)
  10a574:	b8 80 60 00 	mv r12,r4
  10a578:	b8 20 68 00 	mv r13,r1
  10a57c:	5b 82 00 18 	sw (sp+24),r2
  10a580:	5b 83 00 14 	sw (sp+20),r3
  10a584:	fb ff ee d8 	calli 1060e4 <__locale_charset>
  10a588:	2b 82 00 18 	lw r2,(sp+24)
  10a58c:	2b 83 00 14 	lw r3,(sp+20)
  10a590:	b8 20 20 00 	mv r4,r1
  10a594:	b9 80 28 00 	mv r5,r12
  10a598:	b9 a0 08 00 	mv r1,r13
  10a59c:	d9 60 00 00 	call r11
  10a5a0:	2b 9d 00 04 	lw ra,(sp+4)
  10a5a4:	2b 8b 00 10 	lw r11,(sp+16)
  10a5a8:	2b 8c 00 0c 	lw r12,(sp+12)
  10a5ac:	2b 8d 00 08 	lw r13,(sp+8)
  10a5b0:	37 9c 00 18 	addi sp,sp,24
  10a5b4:	c3 a0 00 00 	ret

0010a5b8 <__adddf3>:
  10a5b8:	37 9c ff ec 	addi sp,sp,-20
  10a5bc:	5b 8b 00 14 	sw (sp+20),r11
  10a5c0:	5b 8c 00 10 	sw (sp+16),r12
  10a5c4:	5b 8d 00 0c 	sw (sp+12),r13
  10a5c8:	5b 8e 00 08 	sw (sp+8),r14
  10a5cc:	5b 9d 00 04 	sw (sp+4),ra
  10a5d0:	78 05 00 10 	mvhi r5,0x10
  10a5d4:	38 a5 c7 74 	ori r5,r5,0xc774
  10a5d8:	28 a8 00 00 	lw r8,(r5+0)
  10a5dc:	00 27 00 14 	srui r7,r1,20
  10a5e0:	00 4a 00 1d 	srui r10,r2,29
  10a5e4:	a0 28 48 00 	and r9,r1,r8
  10a5e8:	a0 68 40 00 	and r8,r3,r8
  10a5ec:	00 6c 00 14 	srui r12,r3,20
  10a5f0:	00 86 00 1d 	srui r6,r4,29
  10a5f4:	3d 29 00 03 	sli r9,r9,3
  10a5f8:	3d 08 00 03 	sli r8,r8,3
  10a5fc:	00 21 00 1f 	srui r1,r1,31
  10a600:	00 63 00 1f 	srui r3,r3,31
  10a604:	20 e7 07 ff 	andi r7,r7,0x7ff
  10a608:	b9 2a 48 00 	or r9,r9,r10
  10a60c:	3c 42 00 03 	sli r2,r2,3
  10a610:	21 8c 07 ff 	andi r12,r12,0x7ff
  10a614:	b9 06 40 00 	or r8,r8,r6
  10a618:	3c 84 00 03 	sli r4,r4,3
  10a61c:	44 23 00 77 	be r1,r3,10a7f8 <__adddf3+0x240>
  10a620:	c8 ec 28 00 	sub r5,r7,r12
  10a624:	4c 05 00 aa 	bge r0,r5,10a8cc <__adddf3+0x314>
  10a628:	5d 80 00 39 	bne r12,r0,10a70c <__adddf3+0x154>
  10a62c:	b9 04 18 00 	or r3,r8,r4
  10a630:	5c 6c 00 87 	bne r3,r12,10a84c <__adddf3+0x294>
  10a634:	34 e6 00 01 	addi r6,r7,1
  10a638:	b9 20 28 00 	mv r5,r9
  10a63c:	b8 40 58 00 	mv r11,r2
  10a640:	b8 e0 60 00 	mv r12,r7
  10a644:	b8 20 68 00 	mv r13,r1
  10a648:	21 62 00 0f 	andi r2,r11,0xf
  10a64c:	34 01 00 04 	mvi r1,4
  10a650:	b9 60 20 00 	mv r4,r11
  10a654:	44 41 00 05 	be r2,r1,10a668 <__adddf3+0xb0>
  10a658:	35 64 00 04 	addi r4,r11,4
  10a65c:	f5 64 58 00 	cmpgu r11,r11,r4
  10a660:	35 86 00 01 	addi r6,r12,1
  10a664:	b4 ab 28 00 	add r5,r5,r11
  10a668:	78 01 00 80 	mvhi r1,0x80
  10a66c:	a0 a1 08 00 	and r1,r5,r1
  10a670:	44 20 00 0c 	be r1,r0,10a6a0 <__adddf3+0xe8>
  10a674:	34 01 07 ff 	mvi r1,2047
  10a678:	34 0c 07 ff 	mvi r12,2047
  10a67c:	34 03 00 00 	mvi r3,0
  10a680:	34 02 00 00 	mvi r2,0
  10a684:	44 c1 00 13 	be r6,r1,10a6d0 <__adddf3+0x118>
  10a688:	78 02 00 10 	mvhi r2,0x10
  10a68c:	38 42 cd b8 	ori r2,r2,0xcdb8
  10a690:	28 41 00 00 	lw r1,(r2+0)
  10a694:	b8 c0 60 00 	mv r12,r6
  10a698:	34 c6 00 01 	addi r6,r6,1
  10a69c:	a0 a1 28 00 	and r5,r5,r1
  10a6a0:	3c a2 00 1d 	sli r2,r5,29
  10a6a4:	00 84 00 03 	srui r4,r4,3
  10a6a8:	20 c6 07 ff 	andi r6,r6,0x7ff
  10a6ac:	34 01 00 01 	mvi r1,1
  10a6b0:	b8 44 10 00 	or r2,r2,r4
  10a6b4:	00 a5 00 03 	srui r5,r5,3
  10a6b8:	4c 26 00 7a 	bge r1,r6,10a8a0 <__adddf3+0x2e8>
  10a6bc:	78 04 00 10 	mvhi r4,0x10
  10a6c0:	38 84 c7 74 	ori r4,r4,0xc774
  10a6c4:	28 83 00 00 	lw r3,(r4+0)
  10a6c8:	21 8c 07 ff 	andi r12,r12,0x7ff
  10a6cc:	a0 a3 18 00 	and r3,r5,r3
  10a6d0:	78 05 00 10 	mvhi r5,0x10
  10a6d4:	38 a5 c7 74 	ori r5,r5,0xc774
  10a6d8:	28 a1 00 00 	lw r1,(r5+0)
  10a6dc:	3d 8c 00 14 	sli r12,r12,20
  10a6e0:	3d ad 00 1f 	sli r13,r13,31
  10a6e4:	a0 61 18 00 	and r3,r3,r1
  10a6e8:	b8 6c 08 00 	or r1,r3,r12
  10a6ec:	b8 2d 08 00 	or r1,r1,r13
  10a6f0:	2b 9d 00 04 	lw ra,(sp+4)
  10a6f4:	2b 8b 00 14 	lw r11,(sp+20)
  10a6f8:	2b 8c 00 10 	lw r12,(sp+16)
  10a6fc:	2b 8d 00 0c 	lw r13,(sp+12)
  10a700:	2b 8e 00 08 	lw r14,(sp+8)
  10a704:	37 9c 00 14 	addi sp,sp,20
  10a708:	c3 a0 00 00 	ret
  10a70c:	34 03 07 ff 	mvi r3,2047
  10a710:	44 e3 00 54 	be r7,r3,10a860 <__adddf3+0x2a8>
  10a714:	78 03 00 80 	mvhi r3,0x80
  10a718:	b9 03 40 00 	or r8,r8,r3
  10a71c:	34 03 00 38 	mvi r3,56
  10a720:	48 a3 00 98 	bg r5,r3,10a980 <__adddf3+0x3c8>
  10a724:	34 03 00 1f 	mvi r3,31
  10a728:	48 a3 00 c5 	bg r5,r3,10aa3c <__adddf3+0x484>
  10a72c:	34 03 00 20 	mvi r3,32
  10a730:	c8 65 18 00 	sub r3,r3,r5
  10a734:	bc 83 30 00 	sl r6,r4,r3
  10a738:	bd 03 18 00 	sl r3,r8,r3
  10a73c:	80 85 20 00 	sru r4,r4,r5
  10a740:	7c c6 00 00 	cmpnei r6,r6,0
  10a744:	b8 64 58 00 	or r11,r3,r4
  10a748:	81 05 40 00 	sru r8,r8,r5
  10a74c:	b9 66 58 00 	or r11,r11,r6
  10a750:	c8 4b 58 00 	sub r11,r2,r11
  10a754:	f5 62 10 00 	cmpgu r2,r11,r2
  10a758:	c9 28 28 00 	sub r5,r9,r8
  10a75c:	c8 a2 28 00 	sub r5,r5,r2
  10a760:	b8 e0 60 00 	mv r12,r7
  10a764:	b8 20 68 00 	mv r13,r1
  10a768:	78 02 00 10 	mvhi r2,0x10
  10a76c:	38 42 c6 e0 	ori r2,r2,0xc6e0
  10a770:	28 4e 00 00 	lw r14,(r2+0)
  10a774:	78 01 00 80 	mvhi r1,0x80
  10a778:	a0 a1 08 00 	and r1,r5,r1
  10a77c:	a0 ae 70 00 	and r14,r5,r14
  10a780:	35 86 00 01 	addi r6,r12,1
  10a784:	44 20 ff b1 	be r1,r0,10a648 <__adddf3+0x90>
  10a788:	45 c0 00 6f 	be r14,r0,10a944 <__adddf3+0x38c>
  10a78c:	b9 c0 08 00 	mv r1,r14
  10a790:	fb ff dd 99 	calli 101df4 <__clzsi2>
  10a794:	34 22 ff f8 	addi r2,r1,-8
  10a798:	34 03 00 1f 	mvi r3,31
  10a79c:	48 43 00 75 	bg r2,r3,10a970 <__adddf3+0x3b8>
  10a7a0:	c8 02 28 00 	sub r5,r0,r2
  10a7a4:	81 65 28 00 	sru r5,r11,r5
  10a7a8:	bd c2 70 00 	sl r14,r14,r2
  10a7ac:	bd 62 58 00 	sl r11,r11,r2
  10a7b0:	b8 ae 28 00 	or r5,r5,r14
  10a7b4:	49 82 00 68 	bg r12,r2,10a954 <__adddf3+0x39c>
  10a7b8:	c8 4c 10 00 	sub r2,r2,r12
  10a7bc:	34 42 00 01 	addi r2,r2,1
  10a7c0:	34 01 00 1f 	mvi r1,31
  10a7c4:	48 41 00 91 	bg r2,r1,10aa08 <__adddf3+0x450>
  10a7c8:	34 01 00 20 	mvi r1,32
  10a7cc:	c8 22 08 00 	sub r1,r1,r2
  10a7d0:	bd 61 18 00 	sl r3,r11,r1
  10a7d4:	bc a1 08 00 	sl r1,r5,r1
  10a7d8:	81 62 58 00 	sru r11,r11,r2
  10a7dc:	7c 63 00 00 	cmpnei r3,r3,0
  10a7e0:	b9 61 58 00 	or r11,r11,r1
  10a7e4:	b9 63 58 00 	or r11,r11,r3
  10a7e8:	80 a2 28 00 	sru r5,r5,r2
  10a7ec:	34 06 00 01 	mvi r6,1
  10a7f0:	34 0c 00 00 	mvi r12,0
  10a7f4:	e3 ff ff 95 	bi 10a648 <__adddf3+0x90>
  10a7f8:	c8 ec 18 00 	sub r3,r7,r12
  10a7fc:	4c 03 00 6a 	bge r0,r3,10a9a4 <__adddf3+0x3ec>
  10a800:	45 80 00 1e 	be r12,r0,10a878 <__adddf3+0x2c0>
  10a804:	34 05 07 ff 	mvi r5,2047
  10a808:	44 e5 00 16 	be r7,r5,10a860 <__adddf3+0x2a8>
  10a80c:	78 05 00 80 	mvhi r5,0x80
  10a810:	b9 05 40 00 	or r8,r8,r5
  10a814:	34 05 00 38 	mvi r5,56
  10a818:	48 65 00 b7 	bg r3,r5,10aaf4 <__adddf3+0x53c>
  10a81c:	34 05 00 1f 	mvi r5,31
  10a820:	48 65 00 ec 	bg r3,r5,10abd0 <__adddf3+0x618>
  10a824:	34 05 00 20 	mvi r5,32
  10a828:	c8 a3 28 00 	sub r5,r5,r3
  10a82c:	bc 85 30 00 	sl r6,r4,r5
  10a830:	80 83 20 00 	sru r4,r4,r3
  10a834:	bd 05 28 00 	sl r5,r8,r5
  10a838:	7c c6 00 00 	cmpnei r6,r6,0
  10a83c:	b8 a4 58 00 	or r11,r5,r4
  10a840:	b9 66 58 00 	or r11,r11,r6
  10a844:	81 03 18 00 	sru r3,r8,r3
  10a848:	e0 00 00 ae 	bi 10ab00 <__adddf3+0x548>
  10a84c:	34 a5 ff ff 	addi r5,r5,-1
  10a850:	c8 44 58 00 	sub r11,r2,r4
  10a854:	44 a0 ff c0 	be r5,r0,10a754 <__adddf3+0x19c>
  10a858:	34 03 07 ff 	mvi r3,2047
  10a85c:	5c e3 ff b0 	bne r7,r3,10a71c <__adddf3+0x164>
  10a860:	b9 20 28 00 	mv r5,r9
  10a864:	b8 40 58 00 	mv r11,r2
  10a868:	b8 20 68 00 	mv r13,r1
  10a86c:	34 06 08 00 	mvi r6,2048
  10a870:	34 0c 07 ff 	mvi r12,2047
  10a874:	e3 ff ff 75 	bi 10a648 <__adddf3+0x90>
  10a878:	b9 04 28 00 	or r5,r8,r4
  10a87c:	44 ac ff 6e 	be r5,r12,10a634 <__adddf3+0x7c>
  10a880:	34 63 ff ff 	addi r3,r3,-1
  10a884:	5c 60 00 cb 	bne r3,r0,10abb0 <__adddf3+0x5f8>
  10a888:	b4 82 58 00 	add r11,r4,r2
  10a88c:	f4 4b 10 00 	cmpgu r2,r2,r11
  10a890:	b5 09 28 00 	add r5,r8,r9
  10a894:	b4 a2 28 00 	add r5,r5,r2
  10a898:	b8 e0 60 00 	mv r12,r7
  10a89c:	e0 00 00 9e 	bi 10ab14 <__adddf3+0x55c>
  10a8a0:	b8 45 08 00 	or r1,r2,r5
  10a8a4:	44 20 01 83 	be r1,r0,10aeb0 <__adddf3+0x8f8>
  10a8a8:	45 80 00 3a 	be r12,r0,10a990 <__adddf3+0x3d8>
  10a8ac:	78 04 00 10 	mvhi r4,0x10
  10a8b0:	38 84 c7 74 	ori r4,r4,0xc774
  10a8b4:	28 81 00 00 	lw r1,(r4+0)
  10a8b8:	78 03 00 08 	mvhi r3,0x8
  10a8bc:	b8 a3 18 00 	or r3,r5,r3
  10a8c0:	a0 61 18 00 	and r3,r3,r1
  10a8c4:	21 8c 07 ff 	andi r12,r12,0x7ff
  10a8c8:	e3 ff ff 82 	bi 10a6d0 <__adddf3+0x118>
  10a8cc:	5c a0 00 67 	bne r5,r0,10aa68 <__adddf3+0x4b0>
  10a8d0:	34 e6 00 01 	addi r6,r7,1
  10a8d4:	20 c6 07 ff 	andi r6,r6,0x7ff
  10a8d8:	34 05 00 01 	mvi r5,1
  10a8dc:	48 c5 00 0c 	bg r6,r5,10a90c <__adddf3+0x354>
  10a8e0:	5c e0 00 d0 	bne r7,r0,10ac20 <__adddf3+0x668>
  10a8e4:	b9 22 28 00 	or r5,r9,r2
  10a8e8:	5c a7 01 1d 	bne r5,r7,10ad5c <__adddf3+0x7a4>
  10a8ec:	b9 04 08 00 	or r1,r8,r4
  10a8f0:	44 25 00 7b 	be r1,r5,10aadc <__adddf3+0x524>
  10a8f4:	b9 00 28 00 	mv r5,r8
  10a8f8:	b8 80 58 00 	mv r11,r4
  10a8fc:	b8 60 68 00 	mv r13,r3
  10a900:	34 06 00 01 	mvi r6,1
  10a904:	34 0c 00 00 	mvi r12,0
  10a908:	e3 ff ff 50 	bi 10a648 <__adddf3+0x90>
  10a90c:	c8 44 58 00 	sub r11,r2,r4
  10a910:	f5 62 28 00 	cmpgu r5,r11,r2
  10a914:	c9 28 70 00 	sub r14,r9,r8
  10a918:	c9 c5 70 00 	sub r14,r14,r5
  10a91c:	78 05 00 80 	mvhi r5,0x80
  10a920:	a1 c5 28 00 	and r5,r14,r5
  10a924:	44 a0 00 6a 	be r5,r0,10aacc <__adddf3+0x514>
  10a928:	c8 82 58 00 	sub r11,r4,r2
  10a92c:	f5 64 20 00 	cmpgu r4,r11,r4
  10a930:	c9 09 40 00 	sub r8,r8,r9
  10a934:	c9 04 70 00 	sub r14,r8,r4
  10a938:	b8 e0 60 00 	mv r12,r7
  10a93c:	b8 60 68 00 	mv r13,r3
  10a940:	5d c0 ff 93 	bne r14,r0,10a78c <__adddf3+0x1d4>
  10a944:	b9 60 08 00 	mv r1,r11
  10a948:	fb ff dd 2b 	calli 101df4 <__clzsi2>
  10a94c:	34 21 00 20 	addi r1,r1,32
  10a950:	e3 ff ff 91 	bi 10a794 <__adddf3+0x1dc>
  10a954:	78 04 00 10 	mvhi r4,0x10
  10a958:	38 84 cd b8 	ori r4,r4,0xcdb8
  10a95c:	28 81 00 00 	lw r1,(r4+0)
  10a960:	c9 82 60 00 	sub r12,r12,r2
  10a964:	35 86 00 01 	addi r6,r12,1
  10a968:	a0 a1 28 00 	and r5,r5,r1
  10a96c:	e3 ff ff 37 	bi 10a648 <__adddf3+0x90>
  10a970:	34 25 ff d8 	addi r5,r1,-40
  10a974:	bd 65 28 00 	sl r5,r11,r5
  10a978:	34 0b 00 00 	mvi r11,0
  10a97c:	e3 ff ff 8e 	bi 10a7b4 <__adddf3+0x1fc>
  10a980:	b9 04 58 00 	or r11,r8,r4
  10a984:	7d 6b 00 00 	cmpnei r11,r11,0
  10a988:	34 08 00 00 	mvi r8,0
  10a98c:	e3 ff ff 71 	bi 10a750 <__adddf3+0x198>
  10a990:	78 01 00 10 	mvhi r1,0x10
  10a994:	38 21 c7 74 	ori r1,r1,0xc774
  10a998:	28 23 00 00 	lw r3,(r1+0)
  10a99c:	a0 a3 18 00 	and r3,r5,r3
  10a9a0:	e3 ff ff 4c 	bi 10a6d0 <__adddf3+0x118>
  10a9a4:	5c 60 00 96 	bne r3,r0,10abfc <__adddf3+0x644>
  10a9a8:	34 ec 00 01 	addi r12,r7,1
  10a9ac:	21 85 07 ff 	andi r5,r12,0x7ff
  10a9b0:	34 03 00 01 	mvi r3,1
  10a9b4:	48 a3 00 6b 	bg r5,r3,10ab60 <__adddf3+0x5a8>
  10a9b8:	5c e0 00 fa 	bne r7,r0,10ada0 <__adddf3+0x7e8>
  10a9bc:	b9 22 18 00 	or r3,r9,r2
  10a9c0:	44 67 01 36 	be r3,r7,10ae98 <__adddf3+0x8e0>
  10a9c4:	b9 04 18 00 	or r3,r8,r4
  10a9c8:	44 60 01 4c 	be r3,r0,10aef8 <__adddf3+0x940>
  10a9cc:	b4 82 58 00 	add r11,r4,r2
  10a9d0:	f4 4b 10 00 	cmpgu r2,r2,r11
  10a9d4:	b5 09 28 00 	add r5,r8,r9
  10a9d8:	b4 a2 28 00 	add r5,r5,r2
  10a9dc:	78 02 00 80 	mvhi r2,0x80
  10a9e0:	a0 a2 10 00 	and r2,r5,r2
  10a9e4:	44 40 01 13 	be r2,r0,10ae30 <__adddf3+0x878>
  10a9e8:	78 02 00 10 	mvhi r2,0x10
  10a9ec:	38 42 cd b8 	ori r2,r2,0xcdb8
  10a9f0:	b8 20 68 00 	mv r13,r1
  10a9f4:	28 41 00 00 	lw r1,(r2+0)
  10a9f8:	34 06 00 02 	mvi r6,2
  10a9fc:	34 0c 00 01 	mvi r12,1
  10aa00:	a0 a1 28 00 	and r5,r5,r1
  10aa04:	e3 ff ff 11 	bi 10a648 <__adddf3+0x90>
  10aa08:	34 04 00 20 	mvi r4,32
  10aa0c:	80 a2 18 00 	sru r3,r5,r2
  10aa10:	34 01 00 00 	mvi r1,0
  10aa14:	44 44 00 03 	be r2,r4,10aa20 <__adddf3+0x468>
  10aa18:	c8 02 08 00 	sub r1,r0,r2
  10aa1c:	bc a1 08 00 	sl r1,r5,r1
  10aa20:	b8 2b 58 00 	or r11,r1,r11
  10aa24:	7d 6b 00 00 	cmpnei r11,r11,0
  10aa28:	34 06 00 01 	mvi r6,1
  10aa2c:	b9 63 58 00 	or r11,r11,r3
  10aa30:	34 05 00 00 	mvi r5,0
  10aa34:	34 0c 00 00 	mvi r12,0
  10aa38:	e3 ff ff 04 	bi 10a648 <__adddf3+0x90>
  10aa3c:	34 0a 00 20 	mvi r10,32
  10aa40:	81 05 30 00 	sru r6,r8,r5
  10aa44:	34 03 00 00 	mvi r3,0
  10aa48:	44 aa 00 03 	be r5,r10,10aa54 <__adddf3+0x49c>
  10aa4c:	c8 05 18 00 	sub r3,r0,r5
  10aa50:	bd 03 18 00 	sl r3,r8,r3
  10aa54:	b8 64 58 00 	or r11,r3,r4
  10aa58:	7d 6b 00 00 	cmpnei r11,r11,0
  10aa5c:	34 08 00 00 	mvi r8,0
  10aa60:	b9 66 58 00 	or r11,r11,r6
  10aa64:	e3 ff ff 3b 	bi 10a750 <__adddf3+0x198>
  10aa68:	c8 05 28 00 	sub r5,r0,r5
  10aa6c:	44 e0 00 4a 	be r7,r0,10ab94 <__adddf3+0x5dc>
  10aa70:	34 01 07 ff 	mvi r1,2047
  10aa74:	45 81 00 79 	be r12,r1,10ac58 <__adddf3+0x6a0>
  10aa78:	78 01 00 80 	mvhi r1,0x80
  10aa7c:	b9 21 48 00 	or r9,r9,r1
  10aa80:	34 01 00 38 	mvi r1,56
  10aa84:	48 a1 00 83 	bg r5,r1,10ac90 <__adddf3+0x6d8>
  10aa88:	34 01 00 1f 	mvi r1,31
  10aa8c:	48 a1 00 ed 	bg r5,r1,10ae40 <__adddf3+0x888>
  10aa90:	34 01 00 20 	mvi r1,32
  10aa94:	c8 25 08 00 	sub r1,r1,r5
  10aa98:	bc 41 30 00 	sl r6,r2,r1
  10aa9c:	bd 21 08 00 	sl r1,r9,r1
  10aaa0:	80 45 10 00 	sru r2,r2,r5
  10aaa4:	7c c6 00 00 	cmpnei r6,r6,0
  10aaa8:	b8 22 58 00 	or r11,r1,r2
  10aaac:	81 25 48 00 	sru r9,r9,r5
  10aab0:	b9 66 58 00 	or r11,r11,r6
  10aab4:	c8 8b 58 00 	sub r11,r4,r11
  10aab8:	f5 64 20 00 	cmpgu r4,r11,r4
  10aabc:	c9 09 28 00 	sub r5,r8,r9
  10aac0:	c8 a4 28 00 	sub r5,r5,r4
  10aac4:	b8 60 68 00 	mv r13,r3
  10aac8:	e3 ff ff 28 	bi 10a768 <__adddf3+0x1b0>
  10aacc:	b9 cb 10 00 	or r2,r14,r11
  10aad0:	b8 e0 60 00 	mv r12,r7
  10aad4:	b8 20 68 00 	mv r13,r1
  10aad8:	5c 45 ff 2c 	bne r2,r5,10a788 <__adddf3+0x1d0>
  10aadc:	34 0d 00 00 	mvi r13,0
  10aae0:	34 06 00 01 	mvi r6,1
  10aae4:	34 05 00 00 	mvi r5,0
  10aae8:	34 04 00 04 	mvi r4,4
  10aaec:	34 0c 00 00 	mvi r12,0
  10aaf0:	e3 ff fe de 	bi 10a668 <__adddf3+0xb0>
  10aaf4:	b9 04 58 00 	or r11,r8,r4
  10aaf8:	7d 6b 00 00 	cmpnei r11,r11,0
  10aafc:	34 03 00 00 	mvi r3,0
  10ab00:	b5 62 58 00 	add r11,r11,r2
  10ab04:	f4 4b 10 00 	cmpgu r2,r2,r11
  10ab08:	b4 69 18 00 	add r3,r3,r9
  10ab0c:	b4 62 28 00 	add r5,r3,r2
  10ab10:	b8 e0 60 00 	mv r12,r7
  10ab14:	78 02 00 80 	mvhi r2,0x80
  10ab18:	a0 a2 10 00 	and r2,r5,r2
  10ab1c:	44 40 00 0e 	be r2,r0,10ab54 <__adddf3+0x59c>
  10ab20:	35 8c 00 01 	addi r12,r12,1
  10ab24:	34 02 07 ff 	mvi r2,2047
  10ab28:	45 82 00 25 	be r12,r2,10abbc <__adddf3+0x604>
  10ab2c:	78 04 00 10 	mvhi r4,0x10
  10ab30:	38 84 cd b8 	ori r4,r4,0xcdb8
  10ab34:	28 82 00 00 	lw r2,(r4+0)
  10ab38:	01 63 00 01 	srui r3,r11,1
  10ab3c:	21 6b 00 01 	andi r11,r11,0x1
  10ab40:	a0 a2 28 00 	and r5,r5,r2
  10ab44:	3c a2 00 1f 	sli r2,r5,31
  10ab48:	b9 63 58 00 	or r11,r11,r3
  10ab4c:	00 a5 00 01 	srui r5,r5,1
  10ab50:	b9 62 58 00 	or r11,r11,r2
  10ab54:	35 86 00 01 	addi r6,r12,1
  10ab58:	b8 20 68 00 	mv r13,r1
  10ab5c:	e3 ff fe bb 	bi 10a648 <__adddf3+0x90>
  10ab60:	34 03 07 ff 	mvi r3,2047
  10ab64:	45 83 00 16 	be r12,r3,10abbc <__adddf3+0x604>
  10ab68:	b4 82 20 00 	add r4,r4,r2
  10ab6c:	f4 44 10 00 	cmpgu r2,r2,r4
  10ab70:	b5 09 28 00 	add r5,r8,r9
  10ab74:	b4 a2 28 00 	add r5,r5,r2
  10ab78:	3c a2 00 1f 	sli r2,r5,31
  10ab7c:	00 84 00 01 	srui r4,r4,1
  10ab80:	00 a5 00 01 	srui r5,r5,1
  10ab84:	b8 82 58 00 	or r11,r4,r2
  10ab88:	34 e6 00 02 	addi r6,r7,2
  10ab8c:	b8 20 68 00 	mv r13,r1
  10ab90:	e3 ff fe ae 	bi 10a648 <__adddf3+0x90>
  10ab94:	b9 22 08 00 	or r1,r9,r2
  10ab98:	5c 27 00 36 	bne r1,r7,10ac70 <__adddf3+0x6b8>
  10ab9c:	35 86 00 01 	addi r6,r12,1
  10aba0:	b9 00 28 00 	mv r5,r8
  10aba4:	b8 80 58 00 	mv r11,r4
  10aba8:	b8 60 68 00 	mv r13,r3
  10abac:	e3 ff fe a7 	bi 10a648 <__adddf3+0x90>
  10abb0:	34 05 07 ff 	mvi r5,2047
  10abb4:	5c e5 ff 18 	bne r7,r5,10a814 <__adddf3+0x25c>
  10abb8:	e3 ff ff 2a 	bi 10a860 <__adddf3+0x2a8>
  10abbc:	b8 20 68 00 	mv r13,r1
  10abc0:	34 06 08 00 	mvi r6,2048
  10abc4:	34 05 00 00 	mvi r5,0
  10abc8:	34 04 00 04 	mvi r4,4
  10abcc:	e3 ff fe a7 	bi 10a668 <__adddf3+0xb0>
  10abd0:	34 0a 00 20 	mvi r10,32
  10abd4:	81 03 30 00 	sru r6,r8,r3
  10abd8:	34 05 00 00 	mvi r5,0
  10abdc:	44 6a 00 03 	be r3,r10,10abe8 <__adddf3+0x630>
  10abe0:	c8 03 18 00 	sub r3,r0,r3
  10abe4:	bd 03 28 00 	sl r5,r8,r3
  10abe8:	b8 a4 58 00 	or r11,r5,r4
  10abec:	7d 6b 00 00 	cmpnei r11,r11,0
  10abf0:	34 03 00 00 	mvi r3,0
  10abf4:	b9 66 58 00 	or r11,r11,r6
  10abf8:	e3 ff ff c2 	bi 10ab00 <__adddf3+0x548>
  10abfc:	c8 03 18 00 	sub r3,r0,r3
  10ac00:	5c e0 00 28 	bne r7,r0,10aca0 <__adddf3+0x6e8>
  10ac04:	b9 22 28 00 	or r5,r9,r2
  10ac08:	5c a7 00 99 	bne r5,r7,10ae6c <__adddf3+0x8b4>
  10ac0c:	35 86 00 01 	addi r6,r12,1
  10ac10:	b9 00 28 00 	mv r5,r8
  10ac14:	b8 80 58 00 	mv r11,r4
  10ac18:	b8 20 68 00 	mv r13,r1
  10ac1c:	e3 ff fe 8b 	bi 10a648 <__adddf3+0x90>
  10ac20:	b9 22 28 00 	or r5,r9,r2
  10ac24:	5c a0 00 35 	bne r5,r0,10acf8 <__adddf3+0x740>
  10ac28:	b9 04 08 00 	or r1,r8,r4
  10ac2c:	5c 25 00 0b 	bne r1,r5,10ac58 <__adddf3+0x6a0>
  10ac30:	78 01 00 10 	mvhi r1,0x10
  10ac34:	38 21 c6 e0 	ori r1,r1,0xc6e0
  10ac38:	34 0d 00 00 	mvi r13,0
  10ac3c:	34 06 08 00 	mvi r6,2048
  10ac40:	28 25 00 00 	lw r5,(r1+0)
  10ac44:	34 04 ff fc 	mvi r4,-4
  10ac48:	34 0c 07 ff 	mvi r12,2047
  10ac4c:	e3 ff fe 87 	bi 10a668 <__adddf3+0xb0>
  10ac50:	34 01 07 ff 	mvi r1,2047
  10ac54:	5d 81 ff 8b 	bne r12,r1,10aa80 <__adddf3+0x4c8>
  10ac58:	b9 00 28 00 	mv r5,r8
  10ac5c:	b8 80 58 00 	mv r11,r4
  10ac60:	b8 60 68 00 	mv r13,r3
  10ac64:	34 06 08 00 	mvi r6,2048
  10ac68:	34 0c 07 ff 	mvi r12,2047
  10ac6c:	e3 ff fe 77 	bi 10a648 <__adddf3+0x90>
  10ac70:	34 a5 ff ff 	addi r5,r5,-1
  10ac74:	5c a0 ff f7 	bne r5,r0,10ac50 <__adddf3+0x698>
  10ac78:	c8 82 58 00 	sub r11,r4,r2
  10ac7c:	f5 64 20 00 	cmpgu r4,r11,r4
  10ac80:	c9 09 28 00 	sub r5,r8,r9
  10ac84:	c8 a4 28 00 	sub r5,r5,r4
  10ac88:	b8 60 68 00 	mv r13,r3
  10ac8c:	e3 ff fe b7 	bi 10a768 <__adddf3+0x1b0>
  10ac90:	b9 22 10 00 	or r2,r9,r2
  10ac94:	7c 4b 00 00 	cmpnei r11,r2,0
  10ac98:	34 09 00 00 	mvi r9,0
  10ac9c:	e3 ff ff 86 	bi 10aab4 <__adddf3+0x4fc>
  10aca0:	34 05 07 ff 	mvi r5,2047
  10aca4:	45 85 00 5b 	be r12,r5,10ae10 <__adddf3+0x858>
  10aca8:	78 05 00 80 	mvhi r5,0x80
  10acac:	b9 25 48 00 	or r9,r9,r5
  10acb0:	34 05 00 38 	mvi r5,56
  10acb4:	48 65 00 75 	bg r3,r5,10ae88 <__adddf3+0x8d0>
  10acb8:	34 05 00 1f 	mvi r5,31
  10acbc:	48 65 00 84 	bg r3,r5,10aecc <__adddf3+0x914>
  10acc0:	34 05 00 20 	mvi r5,32
  10acc4:	c8 a3 28 00 	sub r5,r5,r3
  10acc8:	bc 45 30 00 	sl r6,r2,r5
  10accc:	80 43 10 00 	sru r2,r2,r3
  10acd0:	bd 25 28 00 	sl r5,r9,r5
  10acd4:	7c c6 00 00 	cmpnei r6,r6,0
  10acd8:	b8 a2 58 00 	or r11,r5,r2
  10acdc:	81 23 18 00 	sru r3,r9,r3
  10ace0:	b9 66 58 00 	or r11,r11,r6
  10ace4:	b5 64 58 00 	add r11,r11,r4
  10ace8:	f4 8b 20 00 	cmpgu r4,r4,r11
  10acec:	b4 68 18 00 	add r3,r3,r8
  10acf0:	b4 64 28 00 	add r5,r3,r4
  10acf4:	e3 ff ff 88 	bi 10ab14 <__adddf3+0x55c>
  10acf8:	b9 04 28 00 	or r5,r8,r4
  10acfc:	44 a0 fe d9 	be r5,r0,10a860 <__adddf3+0x2a8>
  10ad00:	01 25 00 03 	srui r5,r9,3
  10ad04:	00 42 00 03 	srui r2,r2,3
  10ad08:	3d 29 00 1d 	sli r9,r9,29
  10ad0c:	78 06 00 08 	mvhi r6,0x8
  10ad10:	a0 a6 38 00 	and r7,r5,r6
  10ad14:	b9 22 58 00 	or r11,r9,r2
  10ad18:	b8 20 68 00 	mv r13,r1
  10ad1c:	44 e0 00 09 	be r7,r0,10ad40 <__adddf3+0x788>
  10ad20:	01 01 00 03 	srui r1,r8,3
  10ad24:	a0 26 30 00 	and r6,r1,r6
  10ad28:	5c c0 00 06 	bne r6,r0,10ad40 <__adddf3+0x788>
  10ad2c:	00 84 00 03 	srui r4,r4,3
  10ad30:	3d 08 00 1d 	sli r8,r8,29
  10ad34:	b8 20 28 00 	mv r5,r1
  10ad38:	b9 04 58 00 	or r11,r8,r4
  10ad3c:	b8 60 68 00 	mv r13,r3
  10ad40:	01 61 00 1d 	srui r1,r11,29
  10ad44:	3c a5 00 03 	sli r5,r5,3
  10ad48:	3d 6b 00 03 	sli r11,r11,3
  10ad4c:	b8 25 28 00 	or r5,r1,r5
  10ad50:	34 06 08 00 	mvi r6,2048
  10ad54:	34 0c 07 ff 	mvi r12,2047
  10ad58:	e3 ff fe 3c 	bi 10a648 <__adddf3+0x90>
  10ad5c:	b9 04 28 00 	or r5,r8,r4
  10ad60:	44 a0 00 32 	be r5,r0,10ae28 <__adddf3+0x870>
  10ad64:	c8 44 58 00 	sub r11,r2,r4
  10ad68:	f5 62 28 00 	cmpgu r5,r11,r2
  10ad6c:	c9 28 30 00 	sub r6,r9,r8
  10ad70:	c8 c5 28 00 	sub r5,r6,r5
  10ad74:	78 06 00 80 	mvhi r6,0x80
  10ad78:	a0 a6 30 00 	and r6,r5,r6
  10ad7c:	44 c0 00 51 	be r6,r0,10aec0 <__adddf3+0x908>
  10ad80:	c8 82 58 00 	sub r11,r4,r2
  10ad84:	f5 64 20 00 	cmpgu r4,r11,r4
  10ad88:	c9 09 28 00 	sub r5,r8,r9
  10ad8c:	c8 a4 28 00 	sub r5,r5,r4
  10ad90:	b8 60 68 00 	mv r13,r3
  10ad94:	34 06 00 01 	mvi r6,1
  10ad98:	34 0c 00 00 	mvi r12,0
  10ad9c:	e3 ff fe 2b 	bi 10a648 <__adddf3+0x90>
  10ada0:	b9 22 18 00 	or r3,r9,r2
  10ada4:	44 60 00 1b 	be r3,r0,10ae10 <__adddf3+0x858>
  10ada8:	b9 04 18 00 	or r3,r8,r4
  10adac:	44 60 fe ad 	be r3,r0,10a860 <__adddf3+0x2a8>
  10adb0:	01 23 00 03 	srui r3,r9,3
  10adb4:	00 42 00 03 	srui r2,r2,3
  10adb8:	3d 29 00 1d 	sli r9,r9,29
  10adbc:	78 05 00 08 	mvhi r5,0x8
  10adc0:	a0 65 30 00 	and r6,r3,r5
  10adc4:	b9 22 58 00 	or r11,r9,r2
  10adc8:	b8 20 68 00 	mv r13,r1
  10adcc:	44 c0 00 08 	be r6,r0,10adec <__adddf3+0x834>
  10add0:	01 01 00 03 	srui r1,r8,3
  10add4:	a0 25 28 00 	and r5,r1,r5
  10add8:	5c a0 00 05 	bne r5,r0,10adec <__adddf3+0x834>
  10addc:	00 84 00 03 	srui r4,r4,3
  10ade0:	3d 08 00 1d 	sli r8,r8,29
  10ade4:	b8 20 18 00 	mv r3,r1
  10ade8:	b9 04 58 00 	or r11,r8,r4
  10adec:	01 65 00 1d 	srui r5,r11,29
  10adf0:	3c 63 00 03 	sli r3,r3,3
  10adf4:	3d 6b 00 03 	sli r11,r11,3
  10adf8:	b8 a3 28 00 	or r5,r5,r3
  10adfc:	34 06 08 00 	mvi r6,2048
  10ae00:	34 0c 07 ff 	mvi r12,2047
  10ae04:	e3 ff fe 11 	bi 10a648 <__adddf3+0x90>
  10ae08:	34 05 07 ff 	mvi r5,2047
  10ae0c:	5d 85 ff a9 	bne r12,r5,10acb0 <__adddf3+0x6f8>
  10ae10:	b9 00 28 00 	mv r5,r8
  10ae14:	b8 80 58 00 	mv r11,r4
  10ae18:	b8 20 68 00 	mv r13,r1
  10ae1c:	34 06 08 00 	mvi r6,2048
  10ae20:	34 0c 07 ff 	mvi r12,2047
  10ae24:	e3 ff fe 09 	bi 10a648 <__adddf3+0x90>
  10ae28:	b9 20 28 00 	mv r5,r9
  10ae2c:	b8 40 58 00 	mv r11,r2
  10ae30:	b8 20 68 00 	mv r13,r1
  10ae34:	34 06 00 01 	mvi r6,1
  10ae38:	34 0c 00 00 	mvi r12,0
  10ae3c:	e3 ff fe 03 	bi 10a648 <__adddf3+0x90>
  10ae40:	34 07 00 20 	mvi r7,32
  10ae44:	81 25 30 00 	sru r6,r9,r5
  10ae48:	34 01 00 00 	mvi r1,0
  10ae4c:	44 a7 00 03 	be r5,r7,10ae58 <__adddf3+0x8a0>
  10ae50:	c8 05 08 00 	sub r1,r0,r5
  10ae54:	bd 21 08 00 	sl r1,r9,r1
  10ae58:	b8 22 08 00 	or r1,r1,r2
  10ae5c:	7c 2b 00 00 	cmpnei r11,r1,0
  10ae60:	34 09 00 00 	mvi r9,0
  10ae64:	b9 66 58 00 	or r11,r11,r6
  10ae68:	e3 ff ff 13 	bi 10aab4 <__adddf3+0x4fc>
  10ae6c:	34 63 ff ff 	addi r3,r3,-1
  10ae70:	5c 60 ff e6 	bne r3,r0,10ae08 <__adddf3+0x850>
  10ae74:	b4 82 58 00 	add r11,r4,r2
  10ae78:	f4 8b 20 00 	cmpgu r4,r4,r11
  10ae7c:	b5 09 28 00 	add r5,r8,r9
  10ae80:	b4 a4 28 00 	add r5,r5,r4
  10ae84:	e3 ff ff 24 	bi 10ab14 <__adddf3+0x55c>
  10ae88:	b9 22 10 00 	or r2,r9,r2
  10ae8c:	7c 4b 00 00 	cmpnei r11,r2,0
  10ae90:	34 03 00 00 	mvi r3,0
  10ae94:	e3 ff ff 94 	bi 10ace4 <__adddf3+0x72c>
  10ae98:	b9 00 28 00 	mv r5,r8
  10ae9c:	b8 80 58 00 	mv r11,r4
  10aea0:	b8 20 68 00 	mv r13,r1
  10aea4:	34 06 00 01 	mvi r6,1
  10aea8:	34 0c 00 00 	mvi r12,0
  10aeac:	e3 ff fd e7 	bi 10a648 <__adddf3+0x90>
  10aeb0:	21 8c 07 ff 	andi r12,r12,0x7ff
  10aeb4:	34 03 00 00 	mvi r3,0
  10aeb8:	34 02 00 00 	mvi r2,0
  10aebc:	e3 ff fe 05 	bi 10a6d0 <__adddf3+0x118>
  10aec0:	b8 ab 10 00 	or r2,r5,r11
  10aec4:	44 46 ff 06 	be r2,r6,10aadc <__adddf3+0x524>
  10aec8:	e3 ff ff da 	bi 10ae30 <__adddf3+0x878>
  10aecc:	34 07 00 20 	mvi r7,32
  10aed0:	81 23 30 00 	sru r6,r9,r3
  10aed4:	34 05 00 00 	mvi r5,0
  10aed8:	44 67 00 03 	be r3,r7,10aee4 <__adddf3+0x92c>
  10aedc:	c8 03 18 00 	sub r3,r0,r3
  10aee0:	bd 23 28 00 	sl r5,r9,r3
  10aee4:	b8 a2 10 00 	or r2,r5,r2
  10aee8:	7c 4b 00 00 	cmpnei r11,r2,0
  10aeec:	34 03 00 00 	mvi r3,0
  10aef0:	b9 66 58 00 	or r11,r11,r6
  10aef4:	e3 ff ff 7c 	bi 10ace4 <__adddf3+0x72c>
  10aef8:	b9 20 28 00 	mv r5,r9
  10aefc:	b8 40 58 00 	mv r11,r2
  10af00:	b8 20 68 00 	mv r13,r1
  10af04:	34 06 00 01 	mvi r6,1
  10af08:	34 0c 00 00 	mvi r12,0
  10af0c:	e3 ff fd cf 	bi 10a648 <__adddf3+0x90>

0010af10 <__eqdf2>:
  10af10:	78 05 00 10 	mvhi r5,0x10
  10af14:	38 a5 c7 74 	ori r5,r5,0xc774
  10af18:	28 a6 00 00 	lw r6,(r5+0)
  10af1c:	00 25 00 14 	srui r5,r1,20
  10af20:	00 67 00 14 	srui r7,r3,20
  10af24:	00 29 00 1f 	srui r9,r1,31
  10af28:	a0 26 40 00 	and r8,r1,r6
  10af2c:	20 a5 07 ff 	andi r5,r5,0x7ff
  10af30:	34 01 07 ff 	mvi r1,2047
  10af34:	00 6a 00 1f 	srui r10,r3,31
  10af38:	20 e7 07 ff 	andi r7,r7,0x7ff
  10af3c:	a0 66 18 00 	and r3,r3,r6
  10af40:	44 a1 00 11 	be r5,r1,10af84 <__eqdf2+0x74>
  10af44:	34 01 07 ff 	mvi r1,2047
  10af48:	44 e1 00 14 	be r7,r1,10af98 <__eqdf2+0x88>
  10af4c:	34 01 00 01 	mvi r1,1
  10af50:	44 a7 00 02 	be r5,r7,10af58 <__eqdf2+0x48>
  10af54:	c3 a0 00 00 	ret
  10af58:	fd 03 18 00 	cmpne r3,r8,r3
  10af5c:	fc 82 20 00 	cmpne r4,r4,r2
  10af60:	b8 64 18 00 	or r3,r3,r4
  10af64:	5c 60 ff fc 	bne r3,r0,10af54 <__eqdf2+0x44>
  10af68:	34 01 00 00 	mvi r1,0
  10af6c:	45 49 ff fa 	be r10,r9,10af54 <__eqdf2+0x44>
  10af70:	34 01 00 01 	mvi r1,1
  10af74:	5c a0 ff f8 	bne r5,r0,10af54 <__eqdf2+0x44>
  10af78:	b9 02 08 00 	or r1,r8,r2
  10af7c:	7c 21 00 00 	cmpnei r1,r1,0
  10af80:	c3 a0 00 00 	ret
  10af84:	b9 02 30 00 	or r6,r8,r2
  10af88:	34 01 00 01 	mvi r1,1
  10af8c:	5c c0 ff f2 	bne r6,r0,10af54 <__eqdf2+0x44>
  10af90:	34 01 07 ff 	mvi r1,2047
  10af94:	5c e1 ff ee 	bne r7,r1,10af4c <__eqdf2+0x3c>
  10af98:	b8 64 30 00 	or r6,r3,r4
  10af9c:	34 01 00 01 	mvi r1,1
  10afa0:	44 c0 ff eb 	be r6,r0,10af4c <__eqdf2+0x3c>
  10afa4:	c3 a0 00 00 	ret

0010afa8 <__gedf2>:
  10afa8:	37 9c ff fc 	addi sp,sp,-4
  10afac:	5b 8b 00 04 	sw (sp+4),r11
  10afb0:	78 05 00 10 	mvhi r5,0x10
  10afb4:	38 a5 c7 74 	ori r5,r5,0xc774
  10afb8:	28 a7 00 00 	lw r7,(r5+0)
  10afbc:	00 26 00 14 	srui r6,r1,20
  10afc0:	00 65 00 14 	srui r5,r3,20
  10afc4:	a0 27 50 00 	and r10,r1,r7
  10afc8:	00 6b 00 1f 	srui r11,r3,31
  10afcc:	20 c6 07 ff 	andi r6,r6,0x7ff
  10afd0:	a0 67 18 00 	and r3,r3,r7
  10afd4:	34 07 07 ff 	mvi r7,2047
  10afd8:	00 29 00 1f 	srui r9,r1,31
  10afdc:	20 a5 07 ff 	andi r5,r5,0x7ff
  10afe0:	44 c7 00 2d 	be r6,r7,10b094 <__gedf2+0xec>
  10afe4:	34 07 07 ff 	mvi r7,2047
  10afe8:	44 a7 00 2f 	be r5,r7,10b0a4 <__gedf2+0xfc>
  10afec:	34 07 00 00 	mvi r7,0
  10aff0:	5c c0 00 03 	bne r6,r0,10affc <__gedf2+0x54>
  10aff4:	b9 42 38 00 	or r7,r10,r2
  10aff8:	64 e7 00 00 	cmpei r7,r7,0
  10affc:	34 08 00 00 	mvi r8,0
  10b000:	5c a0 00 0a 	bne r5,r0,10b028 <__gedf2+0x80>
  10b004:	b8 64 08 00 	or r1,r3,r4
  10b008:	b8 a0 40 00 	mv r8,r5
  10b00c:	5c 25 00 07 	bne r1,r5,10b028 <__gedf2+0x80>
  10b010:	34 01 00 00 	mvi r1,0
  10b014:	44 e0 00 04 	be r7,r0,10b024 <__gedf2+0x7c>
  10b018:	2b 8b 00 04 	lw r11,(sp+4)
  10b01c:	37 9c 00 04 	addi sp,sp,4
  10b020:	c3 a0 00 00 	ret
  10b024:	34 08 00 01 	mvi r8,1
  10b028:	44 e0 00 07 	be r7,r0,10b044 <__gedf2+0x9c>
  10b02c:	65 61 00 00 	cmpei r1,r11,0
  10b030:	c8 01 08 00 	sub r1,r0,r1
  10b034:	38 21 00 01 	ori r1,r1,0x1
  10b038:	2b 8b 00 04 	lw r11,(sp+4)
  10b03c:	37 9c 00 04 	addi sp,sp,4
  10b040:	c3 a0 00 00 	ret
  10b044:	5d 07 00 08 	bne r8,r7,10b064 <__gedf2+0xbc>
  10b048:	45 2b 00 0c 	be r9,r11,10b078 <__gedf2+0xd0>
  10b04c:	fd 28 08 00 	cmpne r1,r9,r8
  10b050:	c8 01 08 00 	sub r1,r0,r1
  10b054:	38 21 00 01 	ori r1,r1,0x1
  10b058:	2b 8b 00 04 	lw r11,(sp+4)
  10b05c:	37 9c 00 04 	addi sp,sp,4
  10b060:	c3 a0 00 00 	ret
  10b064:	c8 09 08 00 	sub r1,r0,r9
  10b068:	38 21 00 01 	ori r1,r1,0x1
  10b06c:	2b 8b 00 04 	lw r11,(sp+4)
  10b070:	37 9c 00 04 	addi sp,sp,4
  10b074:	c3 a0 00 00 	ret
  10b078:	4c a6 00 02 	bge r5,r6,10b080 <__gedf2+0xd8>
  10b07c:	e3 ff ff f4 	bi 10b04c <__gedf2+0xa4>
  10b080:	4c c5 00 0d 	bge r6,r5,10b0b4 <__gedf2+0x10c>
  10b084:	e5 28 08 00 	cmpe r1,r9,r8
  10b088:	c8 01 08 00 	sub r1,r0,r1
  10b08c:	38 21 00 01 	ori r1,r1,0x1
  10b090:	e3 ff ff e2 	bi 10b018 <__gedf2+0x70>
  10b094:	b9 42 38 00 	or r7,r10,r2
  10b098:	34 01 ff fe 	mvi r1,-2
  10b09c:	44 e0 ff d2 	be r7,r0,10afe4 <__gedf2+0x3c>
  10b0a0:	e3 ff ff de 	bi 10b018 <__gedf2+0x70>
  10b0a4:	b8 64 38 00 	or r7,r3,r4
  10b0a8:	34 01 ff fe 	mvi r1,-2
  10b0ac:	44 e0 ff d0 	be r7,r0,10afec <__gedf2+0x44>
  10b0b0:	e3 ff ff da 	bi 10b018 <__gedf2+0x70>
  10b0b4:	55 43 ff ec 	bgu r10,r3,10b064 <__gedf2+0xbc>
  10b0b8:	e5 43 28 00 	cmpe r5,r10,r3
  10b0bc:	f4 44 08 00 	cmpgu r1,r2,r4
  10b0c0:	a0 a1 08 00 	and r1,r5,r1
  10b0c4:	5c 28 ff e8 	bne r1,r8,10b064 <__gedf2+0xbc>
  10b0c8:	54 6a 00 05 	bgu r3,r10,10b0dc <__gedf2+0x134>
  10b0cc:	f4 82 10 00 	cmpgu r2,r4,r2
  10b0d0:	34 01 00 00 	mvi r1,0
  10b0d4:	a0 a2 28 00 	and r5,r5,r2
  10b0d8:	44 a0 ff d0 	be r5,r0,10b018 <__gedf2+0x70>
  10b0dc:	65 21 00 00 	cmpei r1,r9,0
  10b0e0:	c8 01 08 00 	sub r1,r0,r1
  10b0e4:	38 21 00 01 	ori r1,r1,0x1
  10b0e8:	e3 ff ff cc 	bi 10b018 <__gedf2+0x70>

0010b0ec <__ledf2>:
  10b0ec:	37 9c ff f8 	addi sp,sp,-8
  10b0f0:	5b 8b 00 08 	sw (sp+8),r11
  10b0f4:	5b 8c 00 04 	sw (sp+4),r12
  10b0f8:	78 05 00 10 	mvhi r5,0x10
  10b0fc:	38 a5 c7 74 	ori r5,r5,0xc774
  10b100:	28 a7 00 00 	lw r7,(r5+0)
  10b104:	00 26 00 14 	srui r6,r1,20
  10b108:	00 65 00 14 	srui r5,r3,20
  10b10c:	a0 27 48 00 	and r9,r1,r7
  10b110:	00 6c 00 1f 	srui r12,r3,31
  10b114:	20 c6 07 ff 	andi r6,r6,0x7ff
  10b118:	a0 67 18 00 	and r3,r3,r7
  10b11c:	34 07 07 ff 	mvi r7,2047
  10b120:	00 2b 00 1f 	srui r11,r1,31
  10b124:	20 a5 07 ff 	andi r5,r5,0x7ff
  10b128:	44 c7 00 24 	be r6,r7,10b1b8 <__ledf2+0xcc>
  10b12c:	34 07 07 ff 	mvi r7,2047
  10b130:	44 a7 00 0f 	be r5,r7,10b16c <__ledf2+0x80>
  10b134:	34 08 00 00 	mvi r8,0
  10b138:	5c c0 00 03 	bne r6,r0,10b144 <__ledf2+0x58>
  10b13c:	b9 22 40 00 	or r8,r9,r2
  10b140:	65 08 00 00 	cmpei r8,r8,0
  10b144:	34 0a 00 00 	mvi r10,0
  10b148:	44 a0 00 0f 	be r5,r0,10b184 <__ledf2+0x98>
  10b14c:	45 00 00 15 	be r8,r0,10b1a0 <__ledf2+0xb4>
  10b150:	65 81 00 00 	cmpei r1,r12,0
  10b154:	c8 01 08 00 	sub r1,r0,r1
  10b158:	38 21 00 01 	ori r1,r1,0x1
  10b15c:	2b 8b 00 08 	lw r11,(sp+8)
  10b160:	2b 8c 00 04 	lw r12,(sp+4)
  10b164:	37 9c 00 08 	addi sp,sp,8
  10b168:	c3 a0 00 00 	ret
  10b16c:	b8 64 38 00 	or r7,r3,r4
  10b170:	34 01 00 02 	mvi r1,2
  10b174:	5c e0 ff fa 	bne r7,r0,10b15c <__ledf2+0x70>
  10b178:	34 08 00 00 	mvi r8,0
  10b17c:	5c c0 ff f2 	bne r6,r0,10b144 <__ledf2+0x58>
  10b180:	e3 ff ff ef 	bi 10b13c <__ledf2+0x50>
  10b184:	b8 64 08 00 	or r1,r3,r4
  10b188:	b8 a0 50 00 	mv r10,r5
  10b18c:	5c 25 ff f0 	bne r1,r5,10b14c <__ledf2+0x60>
  10b190:	34 01 00 00 	mvi r1,0
  10b194:	5d 00 ff f2 	bne r8,r0,10b15c <__ledf2+0x70>
  10b198:	34 0a 00 01 	mvi r10,1
  10b19c:	5d 00 ff ed 	bne r8,r0,10b150 <__ledf2+0x64>
  10b1a0:	5d 48 00 0d 	bne r10,r8,10b1d4 <__ledf2+0xe8>
  10b1a4:	45 6c 00 12 	be r11,r12,10b1ec <__ledf2+0x100>
  10b1a8:	fd 6a 08 00 	cmpne r1,r11,r10
  10b1ac:	c8 01 08 00 	sub r1,r0,r1
  10b1b0:	38 21 00 01 	ori r1,r1,0x1
  10b1b4:	e3 ff ff ea 	bi 10b15c <__ledf2+0x70>
  10b1b8:	b9 22 38 00 	or r7,r9,r2
  10b1bc:	34 01 00 02 	mvi r1,2
  10b1c0:	44 e0 ff db 	be r7,r0,10b12c <__ledf2+0x40>
  10b1c4:	2b 8b 00 08 	lw r11,(sp+8)
  10b1c8:	2b 8c 00 04 	lw r12,(sp+4)
  10b1cc:	37 9c 00 08 	addi sp,sp,8
  10b1d0:	c3 a0 00 00 	ret
  10b1d4:	c8 0b 08 00 	sub r1,r0,r11
  10b1d8:	38 21 00 01 	ori r1,r1,0x1
  10b1dc:	2b 8b 00 08 	lw r11,(sp+8)
  10b1e0:	2b 8c 00 04 	lw r12,(sp+4)
  10b1e4:	37 9c 00 08 	addi sp,sp,8
  10b1e8:	c3 a0 00 00 	ret
  10b1ec:	4c a6 00 02 	bge r5,r6,10b1f4 <__ledf2+0x108>
  10b1f0:	e3 ff ff ee 	bi 10b1a8 <__ledf2+0xbc>
  10b1f4:	4c c5 00 05 	bge r6,r5,10b208 <__ledf2+0x11c>
  10b1f8:	e5 6a 08 00 	cmpe r1,r11,r10
  10b1fc:	c8 01 08 00 	sub r1,r0,r1
  10b200:	38 21 00 01 	ori r1,r1,0x1
  10b204:	e3 ff ff d6 	bi 10b15c <__ledf2+0x70>
  10b208:	55 23 ff f3 	bgu r9,r3,10b1d4 <__ledf2+0xe8>
  10b20c:	e5 23 28 00 	cmpe r5,r9,r3
  10b210:	f4 44 08 00 	cmpgu r1,r2,r4
  10b214:	a0 a1 08 00 	and r1,r5,r1
  10b218:	5c 2a ff ef 	bne r1,r10,10b1d4 <__ledf2+0xe8>
  10b21c:	54 69 00 05 	bgu r3,r9,10b230 <__ledf2+0x144>
  10b220:	f4 82 10 00 	cmpgu r2,r4,r2
  10b224:	34 01 00 00 	mvi r1,0
  10b228:	a0 a2 28 00 	and r5,r5,r2
  10b22c:	44 a0 ff cc 	be r5,r0,10b15c <__ledf2+0x70>
  10b230:	65 61 00 00 	cmpei r1,r11,0
  10b234:	c8 01 08 00 	sub r1,r0,r1
  10b238:	38 21 00 01 	ori r1,r1,0x1
  10b23c:	e3 ff ff c8 	bi 10b15c <__ledf2+0x70>

0010b240 <__muldf3>:
  10b240:	37 9c ff cc 	addi sp,sp,-52
  10b244:	5b 8b 00 28 	sw (sp+40),r11
  10b248:	5b 8c 00 24 	sw (sp+36),r12
  10b24c:	5b 8d 00 20 	sw (sp+32),r13
  10b250:	5b 8e 00 1c 	sw (sp+28),r14
  10b254:	5b 8f 00 18 	sw (sp+24),r15
  10b258:	5b 90 00 14 	sw (sp+20),r16
  10b25c:	5b 91 00 10 	sw (sp+16),r17
  10b260:	5b 92 00 0c 	sw (sp+12),r18
  10b264:	5b 93 00 08 	sw (sp+8),r19
  10b268:	5b 9d 00 04 	sw (sp+4),ra
  10b26c:	78 05 00 10 	mvhi r5,0x10
  10b270:	38 a5 c7 74 	ori r5,r5,0xc774
  10b274:	00 2d 00 14 	srui r13,r1,20
  10b278:	28 ab 00 00 	lw r11,(r5+0)
  10b27c:	21 ad 07 ff 	andi r13,r13,0x7ff
  10b280:	00 2f 00 1f 	srui r15,r1,31
  10b284:	a0 2b 58 00 	and r11,r1,r11
  10b288:	45 a0 00 4c 	be r13,r0,10b3b8 <__muldf3+0x178>
  10b28c:	34 01 07 ff 	mvi r1,2047
  10b290:	45 a1 00 40 	be r13,r1,10b390 <__muldf3+0x150>
  10b294:	78 01 00 10 	mvhi r1,0x10
  10b298:	b9 61 58 00 	or r11,r11,r1
  10b29c:	3d 6b 00 03 	sli r11,r11,3
  10b2a0:	00 41 00 1d 	srui r1,r2,29
  10b2a4:	3c 4e 00 03 	sli r14,r2,3
  10b2a8:	b9 61 58 00 	or r11,r11,r1
  10b2ac:	35 ad fc 01 	addi r13,r13,-1023
  10b2b0:	34 11 00 00 	mvi r17,0
  10b2b4:	34 12 00 00 	mvi r18,0
  10b2b8:	78 06 00 10 	mvhi r6,0x10
  10b2bc:	38 c6 c7 74 	ori r6,r6,0xc774
  10b2c0:	00 65 00 14 	srui r5,r3,20
  10b2c4:	28 cc 00 00 	lw r12,(r6+0)
  10b2c8:	20 a5 07 ff 	andi r5,r5,0x7ff
  10b2cc:	00 70 00 1f 	srui r16,r3,31
  10b2d0:	a0 6c 60 00 	and r12,r3,r12
  10b2d4:	44 a0 00 1a 	be r5,r0,10b33c <__muldf3+0xfc>
  10b2d8:	34 01 07 ff 	mvi r1,2047
  10b2dc:	44 a1 00 11 	be r5,r1,10b320 <__muldf3+0xe0>
  10b2e0:	78 01 00 10 	mvhi r1,0x10
  10b2e4:	b9 81 60 00 	or r12,r12,r1
  10b2e8:	3d 8c 00 03 	sli r12,r12,3
  10b2ec:	00 81 00 1d 	srui r1,r4,29
  10b2f0:	3c 84 00 03 	sli r4,r4,3
  10b2f4:	b9 81 60 00 	or r12,r12,r1
  10b2f8:	34 a5 fc 01 	addi r5,r5,-1023
  10b2fc:	34 06 00 00 	mvi r6,0
  10b300:	b8 d1 88 00 	or r17,r6,r17
  10b304:	78 03 00 10 	mvhi r3,0x10
  10b308:	3e 31 00 02 	sli r17,r17,2
  10b30c:	38 63 cd bc 	ori r3,r3,0xcdbc
  10b310:	b4 71 18 00 	add r3,r3,r17
  10b314:	28 61 00 00 	lw r1,(r3+0)
  10b318:	9a 0f 38 00 	xor r7,r16,r15
  10b31c:	c0 20 00 00 	b r1
  10b320:	b9 84 08 00 	or r1,r12,r4
  10b324:	34 06 00 03 	mvi r6,3
  10b328:	5c 20 ff f6 	bne r1,r0,10b300 <__muldf3+0xc0>
  10b32c:	34 0c 00 00 	mvi r12,0
  10b330:	34 04 00 00 	mvi r4,0
  10b334:	34 06 00 02 	mvi r6,2
  10b338:	e3 ff ff f2 	bi 10b300 <__muldf3+0xc0>
  10b33c:	b9 84 08 00 	or r1,r12,r4
  10b340:	44 25 00 3d 	be r1,r5,10b434 <__muldf3+0x1f4>
  10b344:	45 80 01 2a 	be r12,r0,10b7ec <__muldf3+0x5ac>
  10b348:	b9 80 08 00 	mv r1,r12
  10b34c:	5b 84 00 2c 	sw (sp+44),r4
  10b350:	fb ff da a9 	calli 101df4 <__clzsi2>
  10b354:	2b 84 00 2c 	lw r4,(sp+44)
  10b358:	34 22 ff f5 	addi r2,r1,-11
  10b35c:	34 03 00 1c 	mvi r3,28
  10b360:	48 43 01 1f 	bg r2,r3,10b7dc <__muldf3+0x59c>
  10b364:	34 03 00 1d 	mvi r3,29
  10b368:	34 21 ff f8 	addi r1,r1,-8
  10b36c:	c8 62 18 00 	sub r3,r3,r2
  10b370:	80 83 18 00 	sru r3,r4,r3
  10b374:	bd 81 60 00 	sl r12,r12,r1
  10b378:	bc 81 20 00 	sl r4,r4,r1
  10b37c:	b8 6c 60 00 	or r12,r3,r12
  10b380:	34 05 fc 02 	mvi r5,-1022
  10b384:	c8 a2 28 00 	sub r5,r5,r2
  10b388:	34 06 00 00 	mvi r6,0
  10b38c:	e3 ff ff dd 	bi 10b300 <__muldf3+0xc0>
  10b390:	b9 62 08 00 	or r1,r11,r2
  10b394:	b8 40 70 00 	mv r14,r2
  10b398:	34 11 00 0c 	mvi r17,12
  10b39c:	34 12 00 03 	mvi r18,3
  10b3a0:	5c 20 ff c6 	bne r1,r0,10b2b8 <__muldf3+0x78>
  10b3a4:	34 11 00 08 	mvi r17,8
  10b3a8:	34 0b 00 00 	mvi r11,0
  10b3ac:	34 0e 00 00 	mvi r14,0
  10b3b0:	34 12 00 02 	mvi r18,2
  10b3b4:	e3 ff ff c1 	bi 10b2b8 <__muldf3+0x78>
  10b3b8:	b9 62 08 00 	or r1,r11,r2
  10b3bc:	44 2d 00 19 	be r1,r13,10b420 <__muldf3+0x1e0>
  10b3c0:	45 60 00 fd 	be r11,r0,10b7b4 <__muldf3+0x574>
  10b3c4:	b9 60 08 00 	mv r1,r11
  10b3c8:	5b 82 00 34 	sw (sp+52),r2
  10b3cc:	5b 83 00 30 	sw (sp+48),r3
  10b3d0:	5b 84 00 2c 	sw (sp+44),r4
  10b3d4:	fb ff da 88 	calli 101df4 <__clzsi2>
  10b3d8:	2b 82 00 34 	lw r2,(sp+52)
  10b3dc:	2b 83 00 30 	lw r3,(sp+48)
  10b3e0:	2b 84 00 2c 	lw r4,(sp+44)
  10b3e4:	34 25 ff f5 	addi r5,r1,-11
  10b3e8:	34 06 00 1c 	mvi r6,28
  10b3ec:	48 a6 00 ee 	bg r5,r6,10b7a4 <__muldf3+0x564>
  10b3f0:	34 2e ff f8 	addi r14,r1,-8
  10b3f4:	34 01 00 1d 	mvi r1,29
  10b3f8:	c8 25 08 00 	sub r1,r1,r5
  10b3fc:	bd 6e 58 00 	sl r11,r11,r14
  10b400:	80 41 08 00 	sru r1,r2,r1
  10b404:	bc 4e 70 00 	sl r14,r2,r14
  10b408:	b8 2b 58 00 	or r11,r1,r11
  10b40c:	34 0d fc 02 	mvi r13,-1022
  10b410:	c9 a5 68 00 	sub r13,r13,r5
  10b414:	34 11 00 00 	mvi r17,0
  10b418:	34 12 00 00 	mvi r18,0
  10b41c:	e3 ff ff a7 	bi 10b2b8 <__muldf3+0x78>
  10b420:	34 11 00 04 	mvi r17,4
  10b424:	34 0b 00 00 	mvi r11,0
  10b428:	34 0e 00 00 	mvi r14,0
  10b42c:	34 12 00 01 	mvi r18,1
  10b430:	e3 ff ff a2 	bi 10b2b8 <__muldf3+0x78>
  10b434:	34 0c 00 00 	mvi r12,0
  10b438:	34 04 00 00 	mvi r4,0
  10b43c:	34 06 00 01 	mvi r6,1
  10b440:	e3 ff ff b0 	bi 10b300 <__muldf3+0xc0>
  10b444:	b9 e0 08 00 	mv r1,r15
  10b448:	b9 60 18 00 	mv r3,r11
  10b44c:	b9 c0 10 00 	mv r2,r14
  10b450:	b9 e0 38 00 	mv r7,r15
  10b454:	ba 40 30 00 	mv r6,r18
  10b458:	34 05 00 02 	mvi r5,2
  10b45c:	44 c5 00 4a 	be r6,r5,10b584 <__muldf3+0x344>
  10b460:	34 05 00 03 	mvi r5,3
  10b464:	44 c5 00 39 	be r6,r5,10b548 <__muldf3+0x308>
  10b468:	34 04 00 01 	mvi r4,1
  10b46c:	44 c4 00 ca 	be r6,r4,10b794 <__muldf3+0x554>
  10b470:	36 64 03 ff 	addi r4,r19,1023
  10b474:	4c 04 00 c3 	bge r0,r4,10b780 <__muldf3+0x540>
  10b478:	20 45 00 0f 	andi r5,r2,0xf
  10b47c:	34 01 00 04 	mvi r1,4
  10b480:	44 a1 00 05 	be r5,r1,10b494 <__muldf3+0x254>
  10b484:	34 41 00 04 	addi r1,r2,4
  10b488:	f4 41 28 00 	cmpgu r5,r2,r1
  10b48c:	b8 20 10 00 	mv r2,r1
  10b490:	b4 65 18 00 	add r3,r3,r5
  10b494:	78 01 01 00 	mvhi r1,0x100
  10b498:	a0 61 08 00 	and r1,r3,r1
  10b49c:	44 20 00 06 	be r1,r0,10b4b4 <__muldf3+0x274>
  10b4a0:	78 05 00 10 	mvhi r5,0x10
  10b4a4:	38 a5 c7 78 	ori r5,r5,0xc778
  10b4a8:	28 a1 00 00 	lw r1,(r5+0)
  10b4ac:	34 84 00 01 	addi r4,r4,1
  10b4b0:	a0 61 18 00 	and r3,r3,r1
  10b4b4:	34 01 07 fe 	mvi r1,2046
  10b4b8:	4c 24 00 d3 	bge r1,r4,10b804 <__muldf3+0x5c4>
  10b4bc:	b8 e0 08 00 	mv r1,r7
  10b4c0:	34 04 07 ff 	mvi r4,2047
  10b4c4:	34 03 00 00 	mvi r3,0
  10b4c8:	34 02 00 00 	mvi r2,0
  10b4cc:	78 06 00 10 	mvhi r6,0x10
  10b4d0:	38 c6 c7 74 	ori r6,r6,0xc774
  10b4d4:	28 c5 00 00 	lw r5,(r6+0)
  10b4d8:	3c 84 00 14 	sli r4,r4,20
  10b4dc:	3c 21 00 1f 	sli r1,r1,31
  10b4e0:	a0 65 18 00 	and r3,r3,r5
  10b4e4:	b8 64 18 00 	or r3,r3,r4
  10b4e8:	b8 61 08 00 	or r1,r3,r1
  10b4ec:	2b 9d 00 04 	lw ra,(sp+4)
  10b4f0:	2b 8b 00 28 	lw r11,(sp+40)
  10b4f4:	2b 8c 00 24 	lw r12,(sp+36)
  10b4f8:	2b 8d 00 20 	lw r13,(sp+32)
  10b4fc:	2b 8e 00 1c 	lw r14,(sp+28)
  10b500:	2b 8f 00 18 	lw r15,(sp+24)
  10b504:	2b 90 00 14 	lw r16,(sp+20)
  10b508:	2b 91 00 10 	lw r17,(sp+16)
  10b50c:	2b 92 00 0c 	lw r18,(sp+12)
  10b510:	2b 93 00 08 	lw r19,(sp+8)
  10b514:	37 9c 00 34 	addi sp,sp,52
  10b518:	c3 a0 00 00 	ret
  10b51c:	78 01 00 08 	mvhi r1,0x8
  10b520:	a1 61 28 00 	and r5,r11,r1
  10b524:	b9 60 18 00 	mv r3,r11
  10b528:	b9 c0 10 00 	mv r2,r14
  10b52c:	b9 e0 38 00 	mv r7,r15
  10b530:	44 a0 00 06 	be r5,r0,10b548 <__muldf3+0x308>
  10b534:	a1 81 08 00 	and r1,r12,r1
  10b538:	b9 80 18 00 	mv r3,r12
  10b53c:	b8 80 10 00 	mv r2,r4
  10b540:	ba 00 38 00 	mv r7,r16
  10b544:	5c 20 00 b8 	bne r1,r0,10b824 <__muldf3+0x5e4>
  10b548:	78 06 00 10 	mvhi r6,0x10
  10b54c:	78 01 00 08 	mvhi r1,0x8
  10b550:	38 c6 c7 74 	ori r6,r6,0xc774
  10b554:	b8 61 18 00 	or r3,r3,r1
  10b558:	28 c1 00 00 	lw r1,(r6+0)
  10b55c:	34 04 07 ff 	mvi r4,2047
  10b560:	a0 61 18 00 	and r3,r3,r1
  10b564:	b8 e0 08 00 	mv r1,r7
  10b568:	e3 ff ff d9 	bi 10b4cc <__muldf3+0x28c>
  10b56c:	ba 40 30 00 	mv r6,r18
  10b570:	34 05 00 02 	mvi r5,2
  10b574:	b8 e0 08 00 	mv r1,r7
  10b578:	b9 60 18 00 	mv r3,r11
  10b57c:	b9 c0 10 00 	mv r2,r14
  10b580:	5c c5 ff b8 	bne r6,r5,10b460 <__muldf3+0x220>
  10b584:	34 04 07 ff 	mvi r4,2047
  10b588:	34 03 00 00 	mvi r3,0
  10b58c:	34 02 00 00 	mvi r2,0
  10b590:	e3 ff ff cf 	bi 10b4cc <__muldf3+0x28c>
  10b594:	78 01 00 10 	mvhi r1,0x10
  10b598:	38 21 c7 74 	ori r1,r1,0xc774
  10b59c:	28 23 00 00 	lw r3,(r1+0)
  10b5a0:	34 02 ff ff 	mvi r2,-1
  10b5a4:	34 01 00 00 	mvi r1,0
  10b5a8:	34 07 00 00 	mvi r7,0
  10b5ac:	34 06 00 03 	mvi r6,3
  10b5b0:	e3 ff ff aa 	bi 10b458 <__muldf3+0x218>
  10b5b4:	b8 e0 08 00 	mv r1,r7
  10b5b8:	b9 80 18 00 	mv r3,r12
  10b5bc:	b8 80 10 00 	mv r2,r4
  10b5c0:	e3 ff ff a6 	bi 10b458 <__muldf3+0x218>
  10b5c4:	ba 00 08 00 	mv r1,r16
  10b5c8:	b9 80 18 00 	mv r3,r12
  10b5cc:	b8 80 10 00 	mv r2,r4
  10b5d0:	ba 00 38 00 	mv r7,r16
  10b5d4:	e3 ff ff a1 	bi 10b458 <__muldf3+0x218>
  10b5d8:	21 c2 ff ff 	andi r2,r14,0xffff
  10b5dc:	20 88 ff ff 	andi r8,r4,0xffff
  10b5e0:	00 86 00 10 	srui r6,r4,16
  10b5e4:	89 02 48 00 	mul r9,r8,r2
  10b5e8:	01 ce 00 10 	srui r14,r14,16
  10b5ec:	88 c2 20 00 	mul r4,r6,r2
  10b5f0:	89 0e 08 00 	mul r1,r8,r14
  10b5f4:	01 23 00 10 	srui r3,r9,16
  10b5f8:	b4 ad 98 00 	add r19,r5,r13
  10b5fc:	b4 83 18 00 	add r3,r4,r3
  10b600:	b4 61 18 00 	add r3,r3,r1
  10b604:	88 ce 50 00 	mul r10,r6,r14
  10b608:	50 61 00 03 	bgeu r3,r1,10b614 <__muldf3+0x3d4>
  10b60c:	78 01 00 01 	mvhi r1,0x1
  10b610:	b5 41 50 00 	add r10,r10,r1
  10b614:	21 81 ff ff 	andi r1,r12,0xffff
  10b618:	88 22 78 00 	mul r15,r1,r2
  10b61c:	01 8c 00 10 	srui r12,r12,16
  10b620:	88 2e 20 00 	mul r4,r1,r14
  10b624:	89 82 10 00 	mul r2,r12,r2
  10b628:	01 e5 00 10 	srui r5,r15,16
  10b62c:	3c 70 00 10 	sli r16,r3,16
  10b630:	b4 45 10 00 	add r2,r2,r5
  10b634:	21 29 ff ff 	andi r9,r9,0xffff
  10b638:	b4 44 10 00 	add r2,r2,r4
  10b63c:	00 65 00 10 	srui r5,r3,16
  10b640:	b6 09 80 00 	add r16,r16,r9
  10b644:	89 8e 70 00 	mul r14,r12,r14
  10b648:	50 44 00 03 	bgeu r2,r4,10b654 <__muldf3+0x414>
  10b64c:	78 03 00 01 	mvhi r3,0x1
  10b650:	b5 c3 70 00 	add r14,r14,r3
  10b654:	21 63 ff ff 	andi r3,r11,0xffff
  10b658:	89 03 68 00 	mul r13,r8,r3
  10b65c:	01 6b 00 10 	srui r11,r11,16
  10b660:	88 c3 90 00 	mul r18,r6,r3
  10b664:	89 0b 20 00 	mul r4,r8,r11
  10b668:	01 a9 00 10 	srui r9,r13,16
  10b66c:	00 51 00 10 	srui r17,r2,16
  10b670:	3c 48 00 10 	sli r8,r2,16
  10b674:	b6 49 48 00 	add r9,r18,r9
  10b678:	21 ef ff ff 	andi r15,r15,0xffff
  10b67c:	b5 24 48 00 	add r9,r9,r4
  10b680:	b5 d1 70 00 	add r14,r14,r17
  10b684:	b5 0f 40 00 	add r8,r8,r15
  10b688:	88 cb 30 00 	mul r6,r6,r11
  10b68c:	51 24 00 03 	bgeu r9,r4,10b698 <__muldf3+0x458>
  10b690:	78 02 00 01 	mvhi r2,0x1
  10b694:	b4 c2 30 00 	add r6,r6,r2
  10b698:	88 23 20 00 	mul r4,r1,r3
  10b69c:	89 83 18 00 	mul r3,r12,r3
  10b6a0:	88 2b 08 00 	mul r1,r1,r11
  10b6a4:	00 82 00 10 	srui r2,r4,16
  10b6a8:	01 2f 00 10 	srui r15,r9,16
  10b6ac:	b4 62 10 00 	add r2,r3,r2
  10b6b0:	3d 29 00 10 	sli r9,r9,16
  10b6b4:	21 ad ff ff 	andi r13,r13,0xffff
  10b6b8:	b4 41 10 00 	add r2,r2,r1
  10b6bc:	b4 cf 30 00 	add r6,r6,r15
  10b6c0:	b5 2d 48 00 	add r9,r9,r13
  10b6c4:	89 8b 58 00 	mul r11,r12,r11
  10b6c8:	50 41 00 03 	bgeu r2,r1,10b6d4 <__muldf3+0x494>
  10b6cc:	78 01 00 01 	mvhi r1,0x1
  10b6d0:	b5 61 58 00 	add r11,r11,r1
  10b6d4:	3c 41 00 10 	sli r1,r2,16
  10b6d8:	b5 05 28 00 	add r5,r8,r5
  10b6dc:	b4 aa 28 00 	add r5,r5,r10
  10b6e0:	20 84 ff ff 	andi r4,r4,0xffff
  10b6e4:	f5 05 40 00 	cmpgu r8,r8,r5
  10b6e8:	b4 24 50 00 	add r10,r1,r4
  10b6ec:	b4 a9 28 00 	add r5,r5,r9
  10b6f0:	b5 4e 50 00 	add r10,r10,r14
  10b6f4:	f5 25 48 00 	cmpgu r9,r9,r5
  10b6f8:	b5 48 20 00 	add r4,r10,r8
  10b6fc:	b4 c4 18 00 	add r3,r6,r4
  10b700:	b4 69 08 00 	add r1,r3,r9
  10b704:	f5 04 20 00 	cmpgu r4,r8,r4
  10b708:	f5 ca 70 00 	cmpgu r14,r14,r10
  10b70c:	f4 c3 30 00 	cmpgu r6,r6,r3
  10b710:	f5 21 48 00 	cmpgu r9,r9,r1
  10b714:	00 42 00 10 	srui r2,r2,16
  10b718:	b8 8e 70 00 	or r14,r4,r14
  10b71c:	b5 c2 10 00 	add r2,r14,r2
  10b720:	b9 26 30 00 	or r6,r9,r6
  10b724:	b4 46 18 00 	add r3,r2,r6
  10b728:	3c a2 00 09 	sli r2,r5,9
  10b72c:	b4 6b 58 00 	add r11,r3,r11
  10b730:	00 24 00 17 	srui r4,r1,23
  10b734:	3d 63 00 09 	sli r3,r11,9
  10b738:	b8 50 10 00 	or r2,r2,r16
  10b73c:	7c 42 00 00 	cmpnei r2,r2,0
  10b740:	00 a5 00 17 	srui r5,r5,23
  10b744:	b8 64 18 00 	or r3,r3,r4
  10b748:	3c 21 00 09 	sli r1,r1,9
  10b74c:	78 04 01 00 	mvhi r4,0x100
  10b750:	b8 45 10 00 	or r2,r2,r5
  10b754:	a0 64 20 00 	and r4,r3,r4
  10b758:	b8 41 10 00 	or r2,r2,r1
  10b75c:	44 80 ff 45 	be r4,r0,10b470 <__muldf3+0x230>
  10b760:	00 44 00 01 	srui r4,r2,1
  10b764:	3c 61 00 1f 	sli r1,r3,31
  10b768:	20 42 00 01 	andi r2,r2,0x1
  10b76c:	b8 44 10 00 	or r2,r2,r4
  10b770:	36 73 00 01 	addi r19,r19,1
  10b774:	b8 41 10 00 	or r2,r2,r1
  10b778:	00 63 00 01 	srui r3,r3,1
  10b77c:	e3 ff ff 3d 	bi 10b470 <__muldf3+0x230>
  10b780:	34 01 00 01 	mvi r1,1
  10b784:	c8 24 20 00 	sub r4,r1,r4
  10b788:	34 01 00 38 	mvi r1,56
  10b78c:	4c 24 00 2a 	bge r1,r4,10b834 <__muldf3+0x5f4>
  10b790:	b8 e0 08 00 	mv r1,r7
  10b794:	34 04 00 00 	mvi r4,0
  10b798:	34 03 00 00 	mvi r3,0
  10b79c:	34 02 00 00 	mvi r2,0
  10b7a0:	e3 ff ff 4b 	bi 10b4cc <__muldf3+0x28c>
  10b7a4:	34 2b ff d8 	addi r11,r1,-40
  10b7a8:	bc 4b 58 00 	sl r11,r2,r11
  10b7ac:	34 0e 00 00 	mvi r14,0
  10b7b0:	e3 ff ff 17 	bi 10b40c <__muldf3+0x1cc>
  10b7b4:	b8 40 08 00 	mv r1,r2
  10b7b8:	5b 82 00 34 	sw (sp+52),r2
  10b7bc:	5b 83 00 30 	sw (sp+48),r3
  10b7c0:	5b 84 00 2c 	sw (sp+44),r4
  10b7c4:	fb ff d9 8c 	calli 101df4 <__clzsi2>
  10b7c8:	34 21 00 20 	addi r1,r1,32
  10b7cc:	2b 84 00 2c 	lw r4,(sp+44)
  10b7d0:	2b 83 00 30 	lw r3,(sp+48)
  10b7d4:	2b 82 00 34 	lw r2,(sp+52)
  10b7d8:	e3 ff ff 03 	bi 10b3e4 <__muldf3+0x1a4>
  10b7dc:	34 2c ff d8 	addi r12,r1,-40
  10b7e0:	bc 8c 60 00 	sl r12,r4,r12
  10b7e4:	34 04 00 00 	mvi r4,0
  10b7e8:	e3 ff fe e6 	bi 10b380 <__muldf3+0x140>
  10b7ec:	b8 80 08 00 	mv r1,r4
  10b7f0:	5b 84 00 2c 	sw (sp+44),r4
  10b7f4:	fb ff d9 80 	calli 101df4 <__clzsi2>
  10b7f8:	34 21 00 20 	addi r1,r1,32
  10b7fc:	2b 84 00 2c 	lw r4,(sp+44)
  10b800:	e3 ff fe d6 	bi 10b358 <__muldf3+0x118>
  10b804:	3c 61 00 1d 	sli r1,r3,29
  10b808:	00 42 00 03 	srui r2,r2,3
  10b80c:	3c 63 00 09 	sli r3,r3,9
  10b810:	b8 22 10 00 	or r2,r1,r2
  10b814:	00 63 00 0c 	srui r3,r3,12
  10b818:	20 84 07 ff 	andi r4,r4,0x7ff
  10b81c:	b8 e0 08 00 	mv r1,r7
  10b820:	e3 ff ff 2b 	bi 10b4cc <__muldf3+0x28c>
  10b824:	b9 60 18 00 	mv r3,r11
  10b828:	b9 c0 10 00 	mv r2,r14
  10b82c:	b9 e0 38 00 	mv r7,r15
  10b830:	e3 ff ff 46 	bi 10b548 <__muldf3+0x308>
  10b834:	34 01 00 1f 	mvi r1,31
  10b838:	48 81 00 19 	bg r4,r1,10b89c <__muldf3+0x65c>
  10b83c:	34 01 00 20 	mvi r1,32
  10b840:	c8 24 08 00 	sub r1,r1,r4
  10b844:	bc 41 28 00 	sl r5,r2,r1
  10b848:	bc 61 08 00 	sl r1,r3,r1
  10b84c:	80 44 10 00 	sru r2,r2,r4
  10b850:	7c a5 00 00 	cmpnei r5,r5,0
  10b854:	b8 22 08 00 	or r1,r1,r2
  10b858:	80 64 18 00 	sru r3,r3,r4
  10b85c:	b8 25 08 00 	or r1,r1,r5
  10b860:	20 24 00 0f 	andi r4,r1,0xf
  10b864:	34 02 00 04 	mvi r2,4
  10b868:	44 82 00 05 	be r4,r2,10b87c <__muldf3+0x63c>
  10b86c:	34 22 00 04 	addi r2,r1,4
  10b870:	f4 22 20 00 	cmpgu r4,r1,r2
  10b874:	b8 40 08 00 	mv r1,r2
  10b878:	b4 64 18 00 	add r3,r3,r4
  10b87c:	78 02 00 80 	mvhi r2,0x80
  10b880:	a0 62 10 00 	and r2,r3,r2
  10b884:	44 40 00 11 	be r2,r0,10b8c8 <__muldf3+0x688>
  10b888:	b8 e0 08 00 	mv r1,r7
  10b88c:	34 04 00 01 	mvi r4,1
  10b890:	34 03 00 00 	mvi r3,0
  10b894:	34 02 00 00 	mvi r2,0
  10b898:	e3 ff ff 0d 	bi 10b4cc <__muldf3+0x28c>
  10b89c:	34 06 00 20 	mvi r6,32
  10b8a0:	80 64 08 00 	sru r1,r3,r4
  10b8a4:	34 05 00 00 	mvi r5,0
  10b8a8:	44 86 00 03 	be r4,r6,10b8b4 <__muldf3+0x674>
  10b8ac:	c8 04 20 00 	sub r4,r0,r4
  10b8b0:	bc 64 28 00 	sl r5,r3,r4
  10b8b4:	b8 a2 10 00 	or r2,r5,r2
  10b8b8:	7c 42 00 00 	cmpnei r2,r2,0
  10b8bc:	34 03 00 00 	mvi r3,0
  10b8c0:	b8 41 08 00 	or r1,r2,r1
  10b8c4:	e3 ff ff e7 	bi 10b860 <__muldf3+0x620>
  10b8c8:	00 21 00 03 	srui r1,r1,3
  10b8cc:	3c 62 00 1d 	sli r2,r3,29
  10b8d0:	3c 63 00 09 	sli r3,r3,9
  10b8d4:	b8 41 10 00 	or r2,r2,r1
  10b8d8:	00 63 00 0c 	srui r3,r3,12
  10b8dc:	b8 e0 08 00 	mv r1,r7
  10b8e0:	34 04 00 00 	mvi r4,0
  10b8e4:	e3 ff fe fa 	bi 10b4cc <__muldf3+0x28c>

0010b8e8 <__subdf3>:
  10b8e8:	37 9c ff ec 	addi sp,sp,-20
  10b8ec:	5b 8b 00 14 	sw (sp+20),r11
  10b8f0:	5b 8c 00 10 	sw (sp+16),r12
  10b8f4:	5b 8d 00 0c 	sw (sp+12),r13
  10b8f8:	5b 8e 00 08 	sw (sp+8),r14
  10b8fc:	5b 9d 00 04 	sw (sp+4),ra
  10b900:	78 05 00 10 	mvhi r5,0x10
  10b904:	38 a5 c7 74 	ori r5,r5,0xc774
  10b908:	28 a8 00 00 	lw r8,(r5+0)
  10b90c:	00 6c 00 14 	srui r12,r3,20
  10b910:	00 27 00 14 	srui r7,r1,20
  10b914:	a0 28 48 00 	and r9,r1,r8
  10b918:	a0 68 40 00 	and r8,r3,r8
  10b91c:	00 4a 00 1d 	srui r10,r2,29
  10b920:	00 86 00 1d 	srui r6,r4,29
  10b924:	3d 29 00 03 	sli r9,r9,3
  10b928:	3d 08 00 03 	sli r8,r8,3
  10b92c:	21 8c 07 ff 	andi r12,r12,0x7ff
  10b930:	34 05 07 ff 	mvi r5,2047
  10b934:	20 e7 07 ff 	andi r7,r7,0x7ff
  10b938:	00 21 00 1f 	srui r1,r1,31
  10b93c:	b9 2a 48 00 	or r9,r9,r10
  10b940:	3c 42 00 03 	sli r2,r2,3
  10b944:	00 63 00 1f 	srui r3,r3,31
  10b948:	b9 06 40 00 	or r8,r8,r6
  10b94c:	3c 84 00 03 	sli r4,r4,3
  10b950:	45 85 00 3e 	be r12,r5,10ba48 <__subdf3+0x160>
  10b954:	18 63 00 01 	xori r3,r3,0x1
  10b958:	44 23 00 7b 	be r1,r3,10bb44 <__subdf3+0x25c>
  10b95c:	c8 ec 28 00 	sub r5,r7,r12
  10b960:	4c 05 00 b3 	bge r0,r5,10bc2c <__subdf3+0x344>
  10b964:	5d 80 00 3d 	bne r12,r0,10ba58 <__subdf3+0x170>
  10b968:	b9 04 18 00 	or r3,r8,r4
  10b96c:	5c 6c 00 8b 	bne r3,r12,10bb98 <__subdf3+0x2b0>
  10b970:	34 e6 00 01 	addi r6,r7,1
  10b974:	b9 20 28 00 	mv r5,r9
  10b978:	b8 40 58 00 	mv r11,r2
  10b97c:	b8 e0 60 00 	mv r12,r7
  10b980:	b8 20 68 00 	mv r13,r1
  10b984:	21 62 00 0f 	andi r2,r11,0xf
  10b988:	34 01 00 04 	mvi r1,4
  10b98c:	44 41 00 90 	be r2,r1,10bbcc <__subdf3+0x2e4>
  10b990:	35 64 00 04 	addi r4,r11,4
  10b994:	f5 64 58 00 	cmpgu r11,r11,r4
  10b998:	35 86 00 01 	addi r6,r12,1
  10b99c:	b4 ab 28 00 	add r5,r5,r11
  10b9a0:	21 ad 00 01 	andi r13,r13,0x1
  10b9a4:	78 01 00 80 	mvhi r1,0x80
  10b9a8:	a0 a1 08 00 	and r1,r5,r1
  10b9ac:	44 20 00 0c 	be r1,r0,10b9dc <__subdf3+0xf4>
  10b9b0:	34 01 07 ff 	mvi r1,2047
  10b9b4:	34 0c 07 ff 	mvi r12,2047
  10b9b8:	34 03 00 00 	mvi r3,0
  10b9bc:	34 02 00 00 	mvi r2,0
  10b9c0:	44 c1 00 13 	be r6,r1,10ba0c <__subdf3+0x124>
  10b9c4:	78 02 00 10 	mvhi r2,0x10
  10b9c8:	38 42 cd b8 	ori r2,r2,0xcdb8
  10b9cc:	28 41 00 00 	lw r1,(r2+0)
  10b9d0:	b8 c0 60 00 	mv r12,r6
  10b9d4:	34 c6 00 01 	addi r6,r6,1
  10b9d8:	a0 a1 28 00 	and r5,r5,r1
  10b9dc:	3c a2 00 1d 	sli r2,r5,29
  10b9e0:	00 84 00 03 	srui r4,r4,3
  10b9e4:	20 c6 07 ff 	andi r6,r6,0x7ff
  10b9e8:	34 01 00 01 	mvi r1,1
  10b9ec:	b8 44 10 00 	or r2,r2,r4
  10b9f0:	00 a5 00 03 	srui r5,r5,3
  10b9f4:	4c 26 00 83 	bge r1,r6,10bc00 <__subdf3+0x318>
  10b9f8:	78 04 00 10 	mvhi r4,0x10
  10b9fc:	38 84 c7 74 	ori r4,r4,0xc774
  10ba00:	28 83 00 00 	lw r3,(r4+0)
  10ba04:	21 8c 07 ff 	andi r12,r12,0x7ff
  10ba08:	a0 a3 18 00 	and r3,r5,r3
  10ba0c:	78 05 00 10 	mvhi r5,0x10
  10ba10:	38 a5 c7 74 	ori r5,r5,0xc774
  10ba14:	28 a1 00 00 	lw r1,(r5+0)
  10ba18:	3d 8c 00 14 	sli r12,r12,20
  10ba1c:	3d ad 00 1f 	sli r13,r13,31
  10ba20:	a0 61 18 00 	and r3,r3,r1
  10ba24:	b8 6c 08 00 	or r1,r3,r12
  10ba28:	b8 2d 08 00 	or r1,r1,r13
  10ba2c:	2b 9d 00 04 	lw ra,(sp+4)
  10ba30:	2b 8b 00 14 	lw r11,(sp+20)
  10ba34:	2b 8c 00 10 	lw r12,(sp+16)
  10ba38:	2b 8d 00 0c 	lw r13,(sp+12)
  10ba3c:	2b 8e 00 08 	lw r14,(sp+8)
  10ba40:	37 9c 00 14 	addi sp,sp,20
  10ba44:	c3 a0 00 00 	ret
  10ba48:	b9 04 28 00 	or r5,r8,r4
  10ba4c:	5c a0 ff c3 	bne r5,r0,10b958 <__subdf3+0x70>
  10ba50:	18 63 00 01 	xori r3,r3,0x1
  10ba54:	e3 ff ff c1 	bi 10b958 <__subdf3+0x70>
  10ba58:	34 03 07 ff 	mvi r3,2047
  10ba5c:	44 e3 00 54 	be r7,r3,10bbac <__subdf3+0x2c4>
  10ba60:	78 03 00 80 	mvhi r3,0x80
  10ba64:	b9 03 40 00 	or r8,r8,r3
  10ba68:	34 03 00 38 	mvi r3,56
  10ba6c:	48 a3 00 9d 	bg r5,r3,10bce0 <__subdf3+0x3f8>
  10ba70:	34 03 00 1f 	mvi r3,31
  10ba74:	48 a3 00 ca 	bg r5,r3,10bd9c <__subdf3+0x4b4>
  10ba78:	34 03 00 20 	mvi r3,32
  10ba7c:	c8 65 18 00 	sub r3,r3,r5
  10ba80:	bc 83 30 00 	sl r6,r4,r3
  10ba84:	bd 03 18 00 	sl r3,r8,r3
  10ba88:	80 85 20 00 	sru r4,r4,r5
  10ba8c:	7c c6 00 00 	cmpnei r6,r6,0
  10ba90:	b8 64 58 00 	or r11,r3,r4
  10ba94:	81 05 40 00 	sru r8,r8,r5
  10ba98:	b9 66 58 00 	or r11,r11,r6
  10ba9c:	c8 4b 58 00 	sub r11,r2,r11
  10baa0:	f5 62 10 00 	cmpgu r2,r11,r2
  10baa4:	c9 28 28 00 	sub r5,r9,r8
  10baa8:	c8 a2 28 00 	sub r5,r5,r2
  10baac:	b8 e0 60 00 	mv r12,r7
  10bab0:	b8 20 68 00 	mv r13,r1
  10bab4:	78 02 00 10 	mvhi r2,0x10
  10bab8:	38 42 c6 e0 	ori r2,r2,0xc6e0
  10babc:	28 4e 00 00 	lw r14,(r2+0)
  10bac0:	78 01 00 80 	mvhi r1,0x80
  10bac4:	a0 a1 08 00 	and r1,r5,r1
  10bac8:	a0 ae 70 00 	and r14,r5,r14
  10bacc:	35 86 00 01 	addi r6,r12,1
  10bad0:	44 20 ff ad 	be r1,r0,10b984 <__subdf3+0x9c>
  10bad4:	45 c0 00 74 	be r14,r0,10bca4 <__subdf3+0x3bc>
  10bad8:	b9 c0 08 00 	mv r1,r14
  10badc:	fb ff d8 c6 	calli 101df4 <__clzsi2>
  10bae0:	34 22 ff f8 	addi r2,r1,-8
  10bae4:	34 03 00 1f 	mvi r3,31
  10bae8:	48 43 00 73 	bg r2,r3,10bcb4 <__subdf3+0x3cc>
  10baec:	c8 02 28 00 	sub r5,r0,r2
  10baf0:	81 65 28 00 	sru r5,r11,r5
  10baf4:	bd c2 70 00 	sl r14,r14,r2
  10baf8:	bd 62 58 00 	sl r11,r11,r2
  10bafc:	b8 ae 28 00 	or r5,r5,r14
  10bb00:	49 82 00 71 	bg r12,r2,10bcc4 <__subdf3+0x3dc>
  10bb04:	c8 4c 10 00 	sub r2,r2,r12
  10bb08:	34 42 00 01 	addi r2,r2,1
  10bb0c:	34 01 00 1f 	mvi r1,31
  10bb10:	48 41 00 96 	bg r2,r1,10bd68 <__subdf3+0x480>
  10bb14:	34 01 00 20 	mvi r1,32
  10bb18:	c8 22 08 00 	sub r1,r1,r2
  10bb1c:	bd 61 18 00 	sl r3,r11,r1
  10bb20:	bc a1 08 00 	sl r1,r5,r1
  10bb24:	81 62 58 00 	sru r11,r11,r2
  10bb28:	7c 63 00 00 	cmpnei r3,r3,0
  10bb2c:	b9 61 58 00 	or r11,r11,r1
  10bb30:	b9 63 58 00 	or r11,r11,r3
  10bb34:	80 a2 28 00 	sru r5,r5,r2
  10bb38:	34 06 00 01 	mvi r6,1
  10bb3c:	34 0c 00 00 	mvi r12,0
  10bb40:	e3 ff ff 91 	bi 10b984 <__subdf3+0x9c>
  10bb44:	c8 ec 18 00 	sub r3,r7,r12
  10bb48:	4c 03 00 6f 	bge r0,r3,10bd04 <__subdf3+0x41c>
  10bb4c:	45 80 00 23 	be r12,r0,10bbd8 <__subdf3+0x2f0>
  10bb50:	34 05 07 ff 	mvi r5,2047
  10bb54:	44 e5 00 16 	be r7,r5,10bbac <__subdf3+0x2c4>
  10bb58:	78 05 00 80 	mvhi r5,0x80
  10bb5c:	b9 05 40 00 	or r8,r8,r5
  10bb60:	34 05 00 38 	mvi r5,56
  10bb64:	48 65 00 bc 	bg r3,r5,10be54 <__subdf3+0x56c>
  10bb68:	34 05 00 1f 	mvi r5,31
  10bb6c:	48 65 00 f1 	bg r3,r5,10bf30 <__subdf3+0x648>
  10bb70:	34 05 00 20 	mvi r5,32
  10bb74:	c8 a3 28 00 	sub r5,r5,r3
  10bb78:	bc 85 30 00 	sl r6,r4,r5
  10bb7c:	80 83 20 00 	sru r4,r4,r3
  10bb80:	bd 05 28 00 	sl r5,r8,r5
  10bb84:	7c c6 00 00 	cmpnei r6,r6,0
  10bb88:	b8 a4 58 00 	or r11,r5,r4
  10bb8c:	b9 66 58 00 	or r11,r11,r6
  10bb90:	81 03 18 00 	sru r3,r8,r3
  10bb94:	e0 00 00 b3 	bi 10be60 <__subdf3+0x578>
  10bb98:	34 a5 ff ff 	addi r5,r5,-1
  10bb9c:	c8 44 58 00 	sub r11,r2,r4
  10bba0:	44 a0 ff c0 	be r5,r0,10baa0 <__subdf3+0x1b8>
  10bba4:	34 03 07 ff 	mvi r3,2047
  10bba8:	5c e3 ff b0 	bne r7,r3,10ba68 <__subdf3+0x180>
  10bbac:	b8 40 58 00 	mv r11,r2
  10bbb0:	b8 20 68 00 	mv r13,r1
  10bbb4:	21 62 00 0f 	andi r2,r11,0xf
  10bbb8:	34 01 00 04 	mvi r1,4
  10bbbc:	b9 20 28 00 	mv r5,r9
  10bbc0:	34 06 08 00 	mvi r6,2048
  10bbc4:	34 0c 07 ff 	mvi r12,2047
  10bbc8:	5c 41 ff 72 	bne r2,r1,10b990 <__subdf3+0xa8>
  10bbcc:	21 ad 00 01 	andi r13,r13,0x1
  10bbd0:	b9 60 20 00 	mv r4,r11
  10bbd4:	e3 ff ff 74 	bi 10b9a4 <__subdf3+0xbc>
  10bbd8:	b9 04 28 00 	or r5,r8,r4
  10bbdc:	44 ac ff 65 	be r5,r12,10b970 <__subdf3+0x88>
  10bbe0:	34 63 ff ff 	addi r3,r3,-1
  10bbe4:	5c 60 00 cb 	bne r3,r0,10bf10 <__subdf3+0x628>
  10bbe8:	b4 82 58 00 	add r11,r4,r2
  10bbec:	f4 4b 10 00 	cmpgu r2,r2,r11
  10bbf0:	b5 09 28 00 	add r5,r8,r9
  10bbf4:	b4 a2 28 00 	add r5,r5,r2
  10bbf8:	b8 e0 60 00 	mv r12,r7
  10bbfc:	e0 00 00 9e 	bi 10be74 <__subdf3+0x58c>
  10bc00:	b8 45 08 00 	or r1,r2,r5
  10bc04:	44 20 01 83 	be r1,r0,10c210 <__subdf3+0x928>
  10bc08:	45 80 00 3a 	be r12,r0,10bcf0 <__subdf3+0x408>
  10bc0c:	78 04 00 10 	mvhi r4,0x10
  10bc10:	38 84 c7 74 	ori r4,r4,0xc774
  10bc14:	28 81 00 00 	lw r1,(r4+0)
  10bc18:	78 03 00 08 	mvhi r3,0x8
  10bc1c:	b8 a3 18 00 	or r3,r5,r3
  10bc20:	a0 61 18 00 	and r3,r3,r1
  10bc24:	21 8c 07 ff 	andi r12,r12,0x7ff
  10bc28:	e3 ff ff 79 	bi 10ba0c <__subdf3+0x124>
  10bc2c:	5c a0 00 67 	bne r5,r0,10bdc8 <__subdf3+0x4e0>
  10bc30:	34 e6 00 01 	addi r6,r7,1
  10bc34:	20 c6 07 ff 	andi r6,r6,0x7ff
  10bc38:	34 05 00 01 	mvi r5,1
  10bc3c:	48 c5 00 0c 	bg r6,r5,10bc6c <__subdf3+0x384>
  10bc40:	5c e0 00 d0 	bne r7,r0,10bf80 <__subdf3+0x698>
  10bc44:	b9 22 28 00 	or r5,r9,r2
  10bc48:	5c a7 01 1d 	bne r5,r7,10c0bc <__subdf3+0x7d4>
  10bc4c:	b9 04 08 00 	or r1,r8,r4
  10bc50:	44 20 00 7b 	be r1,r0,10be3c <__subdf3+0x554>
  10bc54:	b9 00 28 00 	mv r5,r8
  10bc58:	b8 80 58 00 	mv r11,r4
  10bc5c:	b8 60 68 00 	mv r13,r3
  10bc60:	34 06 00 01 	mvi r6,1
  10bc64:	34 0c 00 00 	mvi r12,0
  10bc68:	e3 ff ff 47 	bi 10b984 <__subdf3+0x9c>
  10bc6c:	c8 44 58 00 	sub r11,r2,r4
  10bc70:	f5 62 28 00 	cmpgu r5,r11,r2
  10bc74:	c9 28 70 00 	sub r14,r9,r8
  10bc78:	c9 c5 70 00 	sub r14,r14,r5
  10bc7c:	78 05 00 80 	mvhi r5,0x80
  10bc80:	a1 c5 28 00 	and r5,r14,r5
  10bc84:	44 a0 00 6a 	be r5,r0,10be2c <__subdf3+0x544>
  10bc88:	c8 82 58 00 	sub r11,r4,r2
  10bc8c:	f5 64 20 00 	cmpgu r4,r11,r4
  10bc90:	c9 09 40 00 	sub r8,r8,r9
  10bc94:	c9 04 70 00 	sub r14,r8,r4
  10bc98:	b8 e0 60 00 	mv r12,r7
  10bc9c:	b8 60 68 00 	mv r13,r3
  10bca0:	5d c0 ff 8e 	bne r14,r0,10bad8 <__subdf3+0x1f0>
  10bca4:	b9 60 08 00 	mv r1,r11
  10bca8:	fb ff d8 53 	calli 101df4 <__clzsi2>
  10bcac:	34 21 00 20 	addi r1,r1,32
  10bcb0:	e3 ff ff 8c 	bi 10bae0 <__subdf3+0x1f8>
  10bcb4:	34 25 ff d8 	addi r5,r1,-40
  10bcb8:	bd 65 28 00 	sl r5,r11,r5
  10bcbc:	34 0b 00 00 	mvi r11,0
  10bcc0:	e3 ff ff 90 	bi 10bb00 <__subdf3+0x218>
  10bcc4:	78 04 00 10 	mvhi r4,0x10
  10bcc8:	38 84 cd b8 	ori r4,r4,0xcdb8
  10bccc:	28 81 00 00 	lw r1,(r4+0)
  10bcd0:	c9 82 60 00 	sub r12,r12,r2
  10bcd4:	35 86 00 01 	addi r6,r12,1
  10bcd8:	a0 a1 28 00 	and r5,r5,r1
  10bcdc:	e3 ff ff 2a 	bi 10b984 <__subdf3+0x9c>
  10bce0:	b9 04 58 00 	or r11,r8,r4
  10bce4:	7d 6b 00 00 	cmpnei r11,r11,0
  10bce8:	34 08 00 00 	mvi r8,0
  10bcec:	e3 ff ff 6c 	bi 10ba9c <__subdf3+0x1b4>
  10bcf0:	78 01 00 10 	mvhi r1,0x10
  10bcf4:	38 21 c7 74 	ori r1,r1,0xc774
  10bcf8:	28 23 00 00 	lw r3,(r1+0)
  10bcfc:	a0 a3 18 00 	and r3,r5,r3
  10bd00:	e3 ff ff 43 	bi 10ba0c <__subdf3+0x124>
  10bd04:	5c 60 00 96 	bne r3,r0,10bf5c <__subdf3+0x674>
  10bd08:	34 ec 00 01 	addi r12,r7,1
  10bd0c:	21 85 07 ff 	andi r5,r12,0x7ff
  10bd10:	34 03 00 01 	mvi r3,1
  10bd14:	48 a3 00 6b 	bg r5,r3,10bec0 <__subdf3+0x5d8>
  10bd18:	5c e0 00 fa 	bne r7,r0,10c100 <__subdf3+0x818>
  10bd1c:	b9 22 18 00 	or r3,r9,r2
  10bd20:	44 67 01 36 	be r3,r7,10c1f8 <__subdf3+0x910>
  10bd24:	b9 04 18 00 	or r3,r8,r4
  10bd28:	44 60 01 4c 	be r3,r0,10c258 <__subdf3+0x970>
  10bd2c:	b4 82 58 00 	add r11,r4,r2
  10bd30:	f4 4b 10 00 	cmpgu r2,r2,r11
  10bd34:	b5 09 28 00 	add r5,r8,r9
  10bd38:	b4 a2 28 00 	add r5,r5,r2
  10bd3c:	78 02 00 80 	mvhi r2,0x80
  10bd40:	a0 a2 10 00 	and r2,r5,r2
  10bd44:	44 40 01 13 	be r2,r0,10c190 <__subdf3+0x8a8>
  10bd48:	78 02 00 10 	mvhi r2,0x10
  10bd4c:	38 42 cd b8 	ori r2,r2,0xcdb8
  10bd50:	b8 20 68 00 	mv r13,r1
  10bd54:	28 41 00 00 	lw r1,(r2+0)
  10bd58:	34 06 00 02 	mvi r6,2
  10bd5c:	34 0c 00 01 	mvi r12,1
  10bd60:	a0 a1 28 00 	and r5,r5,r1
  10bd64:	e3 ff ff 08 	bi 10b984 <__subdf3+0x9c>
  10bd68:	34 04 00 20 	mvi r4,32
  10bd6c:	80 a2 18 00 	sru r3,r5,r2
  10bd70:	34 01 00 00 	mvi r1,0
  10bd74:	44 44 00 03 	be r2,r4,10bd80 <__subdf3+0x498>
  10bd78:	c8 02 08 00 	sub r1,r0,r2
  10bd7c:	bc a1 08 00 	sl r1,r5,r1
  10bd80:	b8 2b 58 00 	or r11,r1,r11
  10bd84:	7d 6b 00 00 	cmpnei r11,r11,0
  10bd88:	34 06 00 01 	mvi r6,1
  10bd8c:	b9 63 58 00 	or r11,r11,r3
  10bd90:	34 05 00 00 	mvi r5,0
  10bd94:	34 0c 00 00 	mvi r12,0
  10bd98:	e3 ff fe fb 	bi 10b984 <__subdf3+0x9c>
  10bd9c:	34 0a 00 20 	mvi r10,32
  10bda0:	81 05 30 00 	sru r6,r8,r5
  10bda4:	34 03 00 00 	mvi r3,0
  10bda8:	44 aa 00 03 	be r5,r10,10bdb4 <__subdf3+0x4cc>
  10bdac:	c8 05 18 00 	sub r3,r0,r5
  10bdb0:	bd 03 18 00 	sl r3,r8,r3
  10bdb4:	b8 64 58 00 	or r11,r3,r4
  10bdb8:	7d 6b 00 00 	cmpnei r11,r11,0
  10bdbc:	34 08 00 00 	mvi r8,0
  10bdc0:	b9 66 58 00 	or r11,r11,r6
  10bdc4:	e3 ff ff 36 	bi 10ba9c <__subdf3+0x1b4>
  10bdc8:	c8 05 28 00 	sub r5,r0,r5
  10bdcc:	44 e0 00 4a 	be r7,r0,10bef4 <__subdf3+0x60c>
  10bdd0:	34 01 07 ff 	mvi r1,2047
  10bdd4:	45 81 00 79 	be r12,r1,10bfb8 <__subdf3+0x6d0>
  10bdd8:	78 01 00 80 	mvhi r1,0x80
  10bddc:	b9 21 48 00 	or r9,r9,r1
  10bde0:	34 01 00 38 	mvi r1,56
  10bde4:	48 a1 00 83 	bg r5,r1,10bff0 <__subdf3+0x708>
  10bde8:	34 01 00 1f 	mvi r1,31
  10bdec:	48 a1 00 ed 	bg r5,r1,10c1a0 <__subdf3+0x8b8>
  10bdf0:	34 01 00 20 	mvi r1,32
  10bdf4:	c8 25 08 00 	sub r1,r1,r5
  10bdf8:	bc 41 30 00 	sl r6,r2,r1
  10bdfc:	bd 21 08 00 	sl r1,r9,r1
  10be00:	80 45 10 00 	sru r2,r2,r5
  10be04:	7c c6 00 00 	cmpnei r6,r6,0
  10be08:	b8 22 58 00 	or r11,r1,r2
  10be0c:	81 25 48 00 	sru r9,r9,r5
  10be10:	b9 66 58 00 	or r11,r11,r6
  10be14:	c8 8b 58 00 	sub r11,r4,r11
  10be18:	f5 64 20 00 	cmpgu r4,r11,r4
  10be1c:	c9 09 28 00 	sub r5,r8,r9
  10be20:	c8 a4 28 00 	sub r5,r5,r4
  10be24:	b8 60 68 00 	mv r13,r3
  10be28:	e3 ff ff 23 	bi 10bab4 <__subdf3+0x1cc>
  10be2c:	b9 cb 10 00 	or r2,r14,r11
  10be30:	b8 e0 60 00 	mv r12,r7
  10be34:	b8 20 68 00 	mv r13,r1
  10be38:	5c 45 ff 27 	bne r2,r5,10bad4 <__subdf3+0x1ec>
  10be3c:	34 0d 00 00 	mvi r13,0
  10be40:	34 06 00 01 	mvi r6,1
  10be44:	34 05 00 00 	mvi r5,0
  10be48:	34 04 00 04 	mvi r4,4
  10be4c:	34 0c 00 00 	mvi r12,0
  10be50:	e3 ff fe d5 	bi 10b9a4 <__subdf3+0xbc>
  10be54:	b9 04 58 00 	or r11,r8,r4
  10be58:	7d 6b 00 00 	cmpnei r11,r11,0
  10be5c:	34 03 00 00 	mvi r3,0
  10be60:	b5 62 58 00 	add r11,r11,r2
  10be64:	f4 4b 10 00 	cmpgu r2,r2,r11
  10be68:	b4 69 18 00 	add r3,r3,r9
  10be6c:	b4 62 28 00 	add r5,r3,r2
  10be70:	b8 e0 60 00 	mv r12,r7
  10be74:	78 02 00 80 	mvhi r2,0x80
  10be78:	a0 a2 10 00 	and r2,r5,r2
  10be7c:	44 40 00 0e 	be r2,r0,10beb4 <__subdf3+0x5cc>
  10be80:	35 8c 00 01 	addi r12,r12,1
  10be84:	34 02 07 ff 	mvi r2,2047
  10be88:	45 82 00 25 	be r12,r2,10bf1c <__subdf3+0x634>
  10be8c:	78 04 00 10 	mvhi r4,0x10
  10be90:	38 84 cd b8 	ori r4,r4,0xcdb8
  10be94:	28 82 00 00 	lw r2,(r4+0)
  10be98:	01 63 00 01 	srui r3,r11,1
  10be9c:	21 6b 00 01 	andi r11,r11,0x1
  10bea0:	a0 a2 28 00 	and r5,r5,r2
  10bea4:	3c a2 00 1f 	sli r2,r5,31
  10bea8:	b9 63 58 00 	or r11,r11,r3
  10beac:	00 a5 00 01 	srui r5,r5,1
  10beb0:	b9 62 58 00 	or r11,r11,r2
  10beb4:	35 86 00 01 	addi r6,r12,1
  10beb8:	b8 20 68 00 	mv r13,r1
  10bebc:	e3 ff fe b2 	bi 10b984 <__subdf3+0x9c>
  10bec0:	34 03 07 ff 	mvi r3,2047
  10bec4:	45 83 00 16 	be r12,r3,10bf1c <__subdf3+0x634>
  10bec8:	b4 82 20 00 	add r4,r4,r2
  10becc:	f4 44 10 00 	cmpgu r2,r2,r4
  10bed0:	b5 09 28 00 	add r5,r8,r9
  10bed4:	b4 a2 28 00 	add r5,r5,r2
  10bed8:	3c a2 00 1f 	sli r2,r5,31
  10bedc:	00 84 00 01 	srui r4,r4,1
  10bee0:	00 a5 00 01 	srui r5,r5,1
  10bee4:	b8 82 58 00 	or r11,r4,r2
  10bee8:	34 e6 00 02 	addi r6,r7,2
  10beec:	b8 20 68 00 	mv r13,r1
  10bef0:	e3 ff fe a5 	bi 10b984 <__subdf3+0x9c>
  10bef4:	b9 22 08 00 	or r1,r9,r2
  10bef8:	5c 27 00 36 	bne r1,r7,10bfd0 <__subdf3+0x6e8>
  10befc:	35 86 00 01 	addi r6,r12,1
  10bf00:	b9 00 28 00 	mv r5,r8
  10bf04:	b8 80 58 00 	mv r11,r4
  10bf08:	b8 60 68 00 	mv r13,r3
  10bf0c:	e3 ff fe 9e 	bi 10b984 <__subdf3+0x9c>
  10bf10:	34 05 07 ff 	mvi r5,2047
  10bf14:	5c e5 ff 13 	bne r7,r5,10bb60 <__subdf3+0x278>
  10bf18:	e3 ff ff 25 	bi 10bbac <__subdf3+0x2c4>
  10bf1c:	b8 20 68 00 	mv r13,r1
  10bf20:	34 06 08 00 	mvi r6,2048
  10bf24:	34 05 00 00 	mvi r5,0
  10bf28:	34 04 00 04 	mvi r4,4
  10bf2c:	e3 ff fe 9e 	bi 10b9a4 <__subdf3+0xbc>
  10bf30:	34 0a 00 20 	mvi r10,32
  10bf34:	81 03 30 00 	sru r6,r8,r3
  10bf38:	34 05 00 00 	mvi r5,0
  10bf3c:	44 6a 00 03 	be r3,r10,10bf48 <__subdf3+0x660>
  10bf40:	c8 03 18 00 	sub r3,r0,r3
  10bf44:	bd 03 28 00 	sl r5,r8,r3
  10bf48:	b8 a4 58 00 	or r11,r5,r4
  10bf4c:	7d 6b 00 00 	cmpnei r11,r11,0
  10bf50:	34 03 00 00 	mvi r3,0
  10bf54:	b9 66 58 00 	or r11,r11,r6
  10bf58:	e3 ff ff c2 	bi 10be60 <__subdf3+0x578>
  10bf5c:	c8 03 18 00 	sub r3,r0,r3
  10bf60:	5c e0 00 28 	bne r7,r0,10c000 <__subdf3+0x718>
  10bf64:	b9 22 28 00 	or r5,r9,r2
  10bf68:	5c a7 00 99 	bne r5,r7,10c1cc <__subdf3+0x8e4>
  10bf6c:	35 86 00 01 	addi r6,r12,1
  10bf70:	b9 00 28 00 	mv r5,r8
  10bf74:	b8 80 58 00 	mv r11,r4
  10bf78:	b8 20 68 00 	mv r13,r1
  10bf7c:	e3 ff fe 82 	bi 10b984 <__subdf3+0x9c>
  10bf80:	b9 22 28 00 	or r5,r9,r2
  10bf84:	5c a0 00 35 	bne r5,r0,10c058 <__subdf3+0x770>
  10bf88:	b9 04 08 00 	or r1,r8,r4
  10bf8c:	5c 25 00 0b 	bne r1,r5,10bfb8 <__subdf3+0x6d0>
  10bf90:	78 01 00 10 	mvhi r1,0x10
  10bf94:	38 21 c6 e0 	ori r1,r1,0xc6e0
  10bf98:	34 0d 00 00 	mvi r13,0
  10bf9c:	34 06 08 00 	mvi r6,2048
  10bfa0:	28 25 00 00 	lw r5,(r1+0)
  10bfa4:	34 04 ff fc 	mvi r4,-4
  10bfa8:	34 0c 07 ff 	mvi r12,2047
  10bfac:	e3 ff fe 7e 	bi 10b9a4 <__subdf3+0xbc>
  10bfb0:	34 01 07 ff 	mvi r1,2047
  10bfb4:	5d 81 ff 8b 	bne r12,r1,10bde0 <__subdf3+0x4f8>
  10bfb8:	b9 00 28 00 	mv r5,r8
  10bfbc:	b8 80 58 00 	mv r11,r4
  10bfc0:	b8 60 68 00 	mv r13,r3
  10bfc4:	34 06 08 00 	mvi r6,2048
  10bfc8:	34 0c 07 ff 	mvi r12,2047
  10bfcc:	e3 ff fe 6e 	bi 10b984 <__subdf3+0x9c>
  10bfd0:	34 a5 ff ff 	addi r5,r5,-1
  10bfd4:	5c a0 ff f7 	bne r5,r0,10bfb0 <__subdf3+0x6c8>
  10bfd8:	c8 82 58 00 	sub r11,r4,r2
  10bfdc:	f5 64 20 00 	cmpgu r4,r11,r4
  10bfe0:	c9 09 28 00 	sub r5,r8,r9
  10bfe4:	c8 a4 28 00 	sub r5,r5,r4
  10bfe8:	b8 60 68 00 	mv r13,r3
  10bfec:	e3 ff fe b2 	bi 10bab4 <__subdf3+0x1cc>
  10bff0:	b9 22 10 00 	or r2,r9,r2
  10bff4:	7c 4b 00 00 	cmpnei r11,r2,0
  10bff8:	34 09 00 00 	mvi r9,0
  10bffc:	e3 ff ff 86 	bi 10be14 <__subdf3+0x52c>
  10c000:	34 05 07 ff 	mvi r5,2047
  10c004:	45 85 00 5b 	be r12,r5,10c170 <__subdf3+0x888>
  10c008:	78 05 00 80 	mvhi r5,0x80
  10c00c:	b9 25 48 00 	or r9,r9,r5
  10c010:	34 05 00 38 	mvi r5,56
  10c014:	48 65 00 75 	bg r3,r5,10c1e8 <__subdf3+0x900>
  10c018:	34 05 00 1f 	mvi r5,31
  10c01c:	48 65 00 84 	bg r3,r5,10c22c <__subdf3+0x944>
  10c020:	34 05 00 20 	mvi r5,32
  10c024:	c8 a3 28 00 	sub r5,r5,r3
  10c028:	bc 45 30 00 	sl r6,r2,r5
  10c02c:	80 43 10 00 	sru r2,r2,r3
  10c030:	bd 25 28 00 	sl r5,r9,r5
  10c034:	7c c6 00 00 	cmpnei r6,r6,0
  10c038:	b8 a2 58 00 	or r11,r5,r2
  10c03c:	81 23 18 00 	sru r3,r9,r3
  10c040:	b9 66 58 00 	or r11,r11,r6
  10c044:	b5 64 58 00 	add r11,r11,r4
  10c048:	f4 8b 20 00 	cmpgu r4,r4,r11
  10c04c:	b4 68 18 00 	add r3,r3,r8
  10c050:	b4 64 28 00 	add r5,r3,r4
  10c054:	e3 ff ff 88 	bi 10be74 <__subdf3+0x58c>
  10c058:	b9 04 28 00 	or r5,r8,r4
  10c05c:	44 a0 fe d4 	be r5,r0,10bbac <__subdf3+0x2c4>
  10c060:	01 25 00 03 	srui r5,r9,3
  10c064:	00 42 00 03 	srui r2,r2,3
  10c068:	3d 29 00 1d 	sli r9,r9,29
  10c06c:	78 06 00 08 	mvhi r6,0x8
  10c070:	a0 a6 38 00 	and r7,r5,r6
  10c074:	b9 22 58 00 	or r11,r9,r2
  10c078:	b8 20 68 00 	mv r13,r1
  10c07c:	44 e0 00 09 	be r7,r0,10c0a0 <__subdf3+0x7b8>
  10c080:	01 01 00 03 	srui r1,r8,3
  10c084:	a0 26 30 00 	and r6,r1,r6
  10c088:	5c c0 00 06 	bne r6,r0,10c0a0 <__subdf3+0x7b8>
  10c08c:	00 84 00 03 	srui r4,r4,3
  10c090:	3d 08 00 1d 	sli r8,r8,29
  10c094:	b8 20 28 00 	mv r5,r1
  10c098:	b9 04 58 00 	or r11,r8,r4
  10c09c:	b8 60 68 00 	mv r13,r3
  10c0a0:	01 61 00 1d 	srui r1,r11,29
  10c0a4:	3c a5 00 03 	sli r5,r5,3
  10c0a8:	3d 6b 00 03 	sli r11,r11,3
  10c0ac:	b8 25 28 00 	or r5,r1,r5
  10c0b0:	34 06 08 00 	mvi r6,2048
  10c0b4:	34 0c 07 ff 	mvi r12,2047
  10c0b8:	e3 ff fe 33 	bi 10b984 <__subdf3+0x9c>
  10c0bc:	b9 04 28 00 	or r5,r8,r4
  10c0c0:	44 a0 00 32 	be r5,r0,10c188 <__subdf3+0x8a0>
  10c0c4:	c8 44 58 00 	sub r11,r2,r4
  10c0c8:	f5 62 28 00 	cmpgu r5,r11,r2
  10c0cc:	c9 28 30 00 	sub r6,r9,r8
  10c0d0:	c8 c5 28 00 	sub r5,r6,r5
  10c0d4:	78 06 00 80 	mvhi r6,0x80
  10c0d8:	a0 a6 30 00 	and r6,r5,r6
  10c0dc:	44 c0 00 51 	be r6,r0,10c220 <__subdf3+0x938>
  10c0e0:	c8 82 58 00 	sub r11,r4,r2
  10c0e4:	f5 64 20 00 	cmpgu r4,r11,r4
  10c0e8:	c9 09 28 00 	sub r5,r8,r9
  10c0ec:	c8 a4 28 00 	sub r5,r5,r4
  10c0f0:	b8 60 68 00 	mv r13,r3
  10c0f4:	34 06 00 01 	mvi r6,1
  10c0f8:	34 0c 00 00 	mvi r12,0
  10c0fc:	e3 ff fe 22 	bi 10b984 <__subdf3+0x9c>
  10c100:	b9 22 18 00 	or r3,r9,r2
  10c104:	44 60 00 1b 	be r3,r0,10c170 <__subdf3+0x888>
  10c108:	b9 04 18 00 	or r3,r8,r4
  10c10c:	44 60 fe a8 	be r3,r0,10bbac <__subdf3+0x2c4>
  10c110:	01 23 00 03 	srui r3,r9,3
  10c114:	00 42 00 03 	srui r2,r2,3
  10c118:	3d 29 00 1d 	sli r9,r9,29
  10c11c:	78 05 00 08 	mvhi r5,0x8
  10c120:	a0 65 30 00 	and r6,r3,r5
  10c124:	b9 22 58 00 	or r11,r9,r2
  10c128:	b8 20 68 00 	mv r13,r1
  10c12c:	44 c0 00 08 	be r6,r0,10c14c <__subdf3+0x864>
  10c130:	01 01 00 03 	srui r1,r8,3
  10c134:	a0 25 28 00 	and r5,r1,r5
  10c138:	5c a0 00 05 	bne r5,r0,10c14c <__subdf3+0x864>
  10c13c:	00 84 00 03 	srui r4,r4,3
  10c140:	3d 08 00 1d 	sli r8,r8,29
  10c144:	b8 20 18 00 	mv r3,r1
  10c148:	b9 04 58 00 	or r11,r8,r4
  10c14c:	01 65 00 1d 	srui r5,r11,29
  10c150:	3c 63 00 03 	sli r3,r3,3
  10c154:	3d 6b 00 03 	sli r11,r11,3
  10c158:	b8 a3 28 00 	or r5,r5,r3
  10c15c:	34 06 08 00 	mvi r6,2048
  10c160:	34 0c 07 ff 	mvi r12,2047
  10c164:	e3 ff fe 08 	bi 10b984 <__subdf3+0x9c>
  10c168:	34 05 07 ff 	mvi r5,2047
  10c16c:	5d 85 ff a9 	bne r12,r5,10c010 <__subdf3+0x728>
  10c170:	b9 00 28 00 	mv r5,r8
  10c174:	b8 80 58 00 	mv r11,r4
  10c178:	b8 20 68 00 	mv r13,r1
  10c17c:	34 06 08 00 	mvi r6,2048
  10c180:	34 0c 07 ff 	mvi r12,2047
  10c184:	e3 ff fe 00 	bi 10b984 <__subdf3+0x9c>
  10c188:	b9 20 28 00 	mv r5,r9
  10c18c:	b8 40 58 00 	mv r11,r2
  10c190:	b8 20 68 00 	mv r13,r1
  10c194:	34 06 00 01 	mvi r6,1
  10c198:	34 0c 00 00 	mvi r12,0
  10c19c:	e3 ff fd fa 	bi 10b984 <__subdf3+0x9c>
  10c1a0:	34 07 00 20 	mvi r7,32
  10c1a4:	81 25 30 00 	sru r6,r9,r5
  10c1a8:	34 01 00 00 	mvi r1,0
  10c1ac:	44 a7 00 03 	be r5,r7,10c1b8 <__subdf3+0x8d0>
  10c1b0:	c8 05 08 00 	sub r1,r0,r5
  10c1b4:	bd 21 08 00 	sl r1,r9,r1
  10c1b8:	b8 22 08 00 	or r1,r1,r2
  10c1bc:	7c 2b 00 00 	cmpnei r11,r1,0
  10c1c0:	34 09 00 00 	mvi r9,0
  10c1c4:	b9 66 58 00 	or r11,r11,r6
  10c1c8:	e3 ff ff 13 	bi 10be14 <__subdf3+0x52c>
  10c1cc:	34 63 ff ff 	addi r3,r3,-1
  10c1d0:	5c 60 ff e6 	bne r3,r0,10c168 <__subdf3+0x880>
  10c1d4:	b4 82 58 00 	add r11,r4,r2
  10c1d8:	f4 8b 20 00 	cmpgu r4,r4,r11
  10c1dc:	b5 09 28 00 	add r5,r8,r9
  10c1e0:	b4 a4 28 00 	add r5,r5,r4
  10c1e4:	e3 ff ff 24 	bi 10be74 <__subdf3+0x58c>
  10c1e8:	b9 22 10 00 	or r2,r9,r2
  10c1ec:	7c 4b 00 00 	cmpnei r11,r2,0
  10c1f0:	34 03 00 00 	mvi r3,0
  10c1f4:	e3 ff ff 94 	bi 10c044 <__subdf3+0x75c>
  10c1f8:	b9 00 28 00 	mv r5,r8
  10c1fc:	b8 80 58 00 	mv r11,r4
  10c200:	b8 20 68 00 	mv r13,r1
  10c204:	34 06 00 01 	mvi r6,1
  10c208:	34 0c 00 00 	mvi r12,0
  10c20c:	e3 ff fd de 	bi 10b984 <__subdf3+0x9c>
  10c210:	21 8c 07 ff 	andi r12,r12,0x7ff
  10c214:	34 03 00 00 	mvi r3,0
  10c218:	34 02 00 00 	mvi r2,0
  10c21c:	e3 ff fd fc 	bi 10ba0c <__subdf3+0x124>
  10c220:	b8 ab 10 00 	or r2,r5,r11
  10c224:	44 40 ff 06 	be r2,r0,10be3c <__subdf3+0x554>
  10c228:	e3 ff ff da 	bi 10c190 <__subdf3+0x8a8>
  10c22c:	34 07 00 20 	mvi r7,32
  10c230:	81 23 30 00 	sru r6,r9,r3
  10c234:	34 05 00 00 	mvi r5,0
  10c238:	44 67 00 03 	be r3,r7,10c244 <__subdf3+0x95c>
  10c23c:	c8 03 18 00 	sub r3,r0,r3
  10c240:	bd 23 28 00 	sl r5,r9,r3
  10c244:	b8 a2 10 00 	or r2,r5,r2
  10c248:	7c 4b 00 00 	cmpnei r11,r2,0
  10c24c:	34 03 00 00 	mvi r3,0
  10c250:	b9 66 58 00 	or r11,r11,r6
  10c254:	e3 ff ff 7c 	bi 10c044 <__subdf3+0x75c>
  10c258:	b9 20 28 00 	mv r5,r9
  10c25c:	b8 40 58 00 	mv r11,r2
  10c260:	b8 20 68 00 	mv r13,r1
  10c264:	34 06 00 01 	mvi r6,1
  10c268:	34 0c 00 00 	mvi r12,0
  10c26c:	e3 ff fd c6 	bi 10b984 <__subdf3+0x9c>

0010c270 <__fixdfsi>:
  10c270:	78 06 00 10 	mvhi r6,0x10
  10c274:	38 c6 c7 74 	ori r6,r6,0xc774
  10c278:	28 c4 00 00 	lw r4,(r6+0)
  10c27c:	00 23 00 14 	srui r3,r1,20
  10c280:	00 25 00 1f 	srui r5,r1,31
  10c284:	a0 24 30 00 	and r6,r1,r4
  10c288:	20 63 07 ff 	andi r3,r3,0x7ff
  10c28c:	34 04 03 fe 	mvi r4,1022
  10c290:	34 01 00 00 	mvi r1,0
  10c294:	4c 83 00 18 	bge r4,r3,10c2f4 <__fixdfsi+0x84>
  10c298:	34 01 04 1d 	mvi r1,1053
  10c29c:	4c 23 00 06 	bge r1,r3,10c2b4 <__fixdfsi+0x44>
  10c2a0:	78 02 00 10 	mvhi r2,0x10
  10c2a4:	38 42 ca a0 	ori r2,r2,0xcaa0
  10c2a8:	28 41 00 00 	lw r1,(r2+0)
  10c2ac:	b4 a1 08 00 	add r1,r5,r1
  10c2b0:	c3 a0 00 00 	ret
  10c2b4:	78 01 00 10 	mvhi r1,0x10
  10c2b8:	b8 c1 08 00 	or r1,r6,r1
  10c2bc:	34 04 04 33 	mvi r4,1075
  10c2c0:	34 06 04 13 	mvi r6,1043
  10c2c4:	c8 c3 30 00 	sub r6,r6,r3
  10c2c8:	c8 83 20 00 	sub r4,r4,r3
  10c2cc:	34 07 00 1f 	mvi r7,31
  10c2d0:	80 26 30 00 	sru r6,r1,r6
  10c2d4:	48 87 00 05 	bg r4,r7,10c2e8 <__fixdfsi+0x78>
  10c2d8:	34 63 fb ed 	addi r3,r3,-1043
  10c2dc:	80 44 10 00 	sru r2,r2,r4
  10c2e0:	bc 23 08 00 	sl r1,r1,r3
  10c2e4:	b8 41 30 00 	or r6,r2,r1
  10c2e8:	c8 06 08 00 	sub r1,r0,r6
  10c2ec:	5c a0 00 02 	bne r5,r0,10c2f4 <__fixdfsi+0x84>
  10c2f0:	b8 c0 08 00 	mv r1,r6
  10c2f4:	c3 a0 00 00 	ret

0010c2f8 <__floatsidf>:
  10c2f8:	37 9c ff f4 	addi sp,sp,-12
  10c2fc:	5b 8b 00 0c 	sw (sp+12),r11
  10c300:	5b 8c 00 08 	sw (sp+8),r12
  10c304:	5b 9d 00 04 	sw (sp+4),ra
  10c308:	b8 20 58 00 	mv r11,r1
  10c30c:	44 20 00 2d 	be r1,r0,10c3c0 <__floatsidf+0xc8>
  10c310:	00 2c 00 1f 	srui r12,r1,31
  10c314:	45 80 00 02 	be r12,r0,10c31c <__floatsidf+0x24>
  10c318:	c8 01 58 00 	sub r11,r0,r1
  10c31c:	b9 60 08 00 	mv r1,r11
  10c320:	fb ff d6 b5 	calli 101df4 <__clzsi2>
  10c324:	34 02 04 1e 	mvi r2,1054
  10c328:	c8 41 08 00 	sub r1,r2,r1
  10c32c:	34 02 04 33 	mvi r2,1075
  10c330:	c8 41 10 00 	sub r2,r2,r1
  10c334:	34 03 00 1f 	mvi r3,31
  10c338:	48 43 00 0b 	bg r2,r3,10c364 <__floatsidf+0x6c>
  10c33c:	78 05 00 10 	mvhi r5,0x10
  10c340:	38 a5 c7 74 	ori r5,r5,0xc774
  10c344:	34 23 fb ed 	addi r3,r1,-1043
  10c348:	28 a4 00 00 	lw r4,(r5+0)
  10c34c:	81 63 18 00 	sru r3,r11,r3
  10c350:	bd 62 10 00 	sl r2,r11,r2
  10c354:	a0 64 18 00 	and r3,r3,r4
  10c358:	20 21 07 ff 	andi r1,r1,0x7ff
  10c35c:	b9 80 20 00 	mv r4,r12
  10c360:	e0 00 00 0b 	bi 10c38c <__floatsidf+0x94>
  10c364:	78 06 00 10 	mvhi r6,0x10
  10c368:	34 03 04 13 	mvi r3,1043
  10c36c:	38 c6 c7 74 	ori r6,r6,0xc774
  10c370:	c8 61 18 00 	sub r3,r3,r1
  10c374:	28 c2 00 00 	lw r2,(r6+0)
  10c378:	bd 63 18 00 	sl r3,r11,r3
  10c37c:	20 21 07 ff 	andi r1,r1,0x7ff
  10c380:	a0 62 18 00 	and r3,r3,r2
  10c384:	b9 80 20 00 	mv r4,r12
  10c388:	34 02 00 00 	mvi r2,0
  10c38c:	78 06 00 10 	mvhi r6,0x10
  10c390:	38 c6 c7 74 	ori r6,r6,0xc774
  10c394:	28 c5 00 00 	lw r5,(r6+0)
  10c398:	3c 21 00 14 	sli r1,r1,20
  10c39c:	3c 84 00 1f 	sli r4,r4,31
  10c3a0:	a0 65 18 00 	and r3,r3,r5
  10c3a4:	b8 61 08 00 	or r1,r3,r1
  10c3a8:	b8 24 08 00 	or r1,r1,r4
  10c3ac:	2b 9d 00 04 	lw ra,(sp+4)
  10c3b0:	2b 8b 00 0c 	lw r11,(sp+12)
  10c3b4:	2b 8c 00 08 	lw r12,(sp+8)
  10c3b8:	37 9c 00 0c 	addi sp,sp,12
  10c3bc:	c3 a0 00 00 	ret
  10c3c0:	34 04 00 00 	mvi r4,0
  10c3c4:	34 01 00 00 	mvi r1,0
  10c3c8:	34 03 00 00 	mvi r3,0
  10c3cc:	34 02 00 00 	mvi r2,0
  10c3d0:	e3 ff ff ef 	bi 10c38c <__floatsidf+0x94>

0010c3d4 <__divsi3>:
  10c3d4:	37 9c ff f8 	addi sp,sp,-8
  10c3d8:	5b 8b 00 08 	sw (sp+8),r11
  10c3dc:	5b 9d 00 04 	sw (sp+4),ra
  10c3e0:	44 40 00 22 	be r2,r0,10c468 <__divsi3+0x94>
  10c3e4:	b8 41 20 00 	or r4,r2,r1
  10c3e8:	34 03 00 0f 	mvi r3,15
  10c3ec:	54 83 00 0b 	bgu r4,r3,10c418 <__divsi3+0x44>
  10c3f0:	78 03 00 10 	mvhi r3,0x10
  10c3f4:	38 63 cd fc 	ori r3,r3,0xcdfc
  10c3f8:	3c 21 00 04 	sli r1,r1,4
  10c3fc:	b4 62 10 00 	add r2,r3,r2
  10c400:	b4 41 08 00 	add r1,r2,r1
  10c404:	40 21 00 00 	lbu r1,(r1+0)
  10c408:	2b 9d 00 04 	lw ra,(sp+4)
  10c40c:	2b 8b 00 08 	lw r11,(sp+8)
  10c410:	37 9c 00 08 	addi sp,sp,8
  10c414:	c3 a0 00 00 	ret
  10c418:	34 0b 00 00 	mvi r11,0
  10c41c:	4c 20 00 03 	bge r1,r0,10c428 <__divsi3+0x54>
  10c420:	c8 01 08 00 	sub r1,r0,r1
  10c424:	34 0b 00 01 	mvi r11,1
  10c428:	4c 40 00 03 	bge r2,r0,10c434 <__divsi3+0x60>
  10c42c:	c8 02 10 00 	sub r2,r0,r2
  10c430:	19 6b 00 01 	xori r11,r11,0x1
  10c434:	90 c0 18 00 	rcsr r3,CFG
  10c438:	20 63 00 02 	andi r3,r3,0x2
  10c43c:	44 60 00 08 	be r3,r0,10c45c <__divsi3+0x88>
  10c440:	8c 22 08 00 	divu r1,r1,r2
  10c444:	45 60 00 02 	be r11,r0,10c44c <__divsi3+0x78>
  10c448:	c8 01 08 00 	sub r1,r0,r1
  10c44c:	2b 9d 00 04 	lw ra,(sp+4)
  10c450:	2b 8b 00 08 	lw r11,(sp+8)
  10c454:	37 9c 00 08 	addi sp,sp,8
  10c458:	c3 a0 00 00 	ret
  10c45c:	34 03 00 00 	mvi r3,0
  10c460:	fb ff d6 83 	calli 101e6c <__udivmodsi4>
  10c464:	e3 ff ff f8 	bi 10c444 <__divsi3+0x70>
  10c468:	90 00 08 00 	rcsr r1,IE
  10c46c:	20 21 00 01 	andi r1,r1,0x1
  10c470:	3c 21 00 01 	sli r1,r1,1
  10c474:	d0 01 00 00 	wcsr IE,r1
  10c478:	90 e0 08 00 	rcsr r1,EBA
  10c47c:	bb a0 f0 00 	mv ea,ra
  10c480:	34 21 00 a0 	addi r1,r1,160
  10c484:	c0 20 00 00 	b r1

0010c488 <__modsi3>:
  10c488:	37 9c ff f8 	addi sp,sp,-8
  10c48c:	5b 8b 00 08 	sw (sp+8),r11
  10c490:	5b 9d 00 04 	sw (sp+4),ra
  10c494:	44 40 00 15 	be r2,r0,10c4e8 <__modsi3+0x60>
  10c498:	34 0b 00 00 	mvi r11,0
  10c49c:	4c 20 00 03 	bge r1,r0,10c4a8 <__modsi3+0x20>
  10c4a0:	c8 01 08 00 	sub r1,r0,r1
  10c4a4:	34 0b 00 01 	mvi r11,1
  10c4a8:	14 43 00 1f 	sri r3,r2,31
  10c4ac:	90 c0 20 00 	rcsr r4,CFG
  10c4b0:	98 62 10 00 	xor r2,r3,r2
  10c4b4:	20 84 00 02 	andi r4,r4,0x2
  10c4b8:	c8 43 10 00 	sub r2,r2,r3
  10c4bc:	44 80 00 08 	be r4,r0,10c4dc <__modsi3+0x54>
  10c4c0:	c4 22 08 00 	modu r1,r1,r2
  10c4c4:	45 60 00 02 	be r11,r0,10c4cc <__modsi3+0x44>
  10c4c8:	c8 01 08 00 	sub r1,r0,r1
  10c4cc:	2b 9d 00 04 	lw ra,(sp+4)
  10c4d0:	2b 8b 00 08 	lw r11,(sp+8)
  10c4d4:	37 9c 00 08 	addi sp,sp,8
  10c4d8:	c3 a0 00 00 	ret
  10c4dc:	34 03 00 01 	mvi r3,1
  10c4e0:	fb ff d6 63 	calli 101e6c <__udivmodsi4>
  10c4e4:	e3 ff ff f8 	bi 10c4c4 <__modsi3+0x3c>
  10c4e8:	90 00 08 00 	rcsr r1,IE
  10c4ec:	20 21 00 01 	andi r1,r1,0x1
  10c4f0:	3c 21 00 01 	sli r1,r1,1
  10c4f4:	d0 01 00 00 	wcsr IE,r1
  10c4f8:	90 e0 08 00 	rcsr r1,EBA
  10c4fc:	bb a0 f0 00 	mv ea,ra
  10c500:	34 21 00 a0 	addi r1,r1,160
  10c504:	c0 20 00 00 	b r1

0010c508 <_isatty>:
  10c508:	34 02 00 02 	mvi r2,2
  10c50c:	f0 41 08 00 	cmpgeu r1,r2,r1
  10c510:	c3 a0 00 00 	ret

0010c514 <_write>:
  10c514:	34 08 00 05 	mvi r8,5
  10c518:	ac 00 00 07 	scall
  10c51c:	78 04 00 10 	mvhi r4,0x10
  10c520:	38 84 d7 dc 	ori r4,r4,0xd7dc
  10c524:	58 83 00 00 	sw (r4+0),r3
  10c528:	c3 a0 00 00 	ret

0010c52c <_read>:
  10c52c:	34 08 00 04 	mvi r8,4
  10c530:	ac 00 00 07 	scall
  10c534:	78 04 00 10 	mvhi r4,0x10
  10c538:	38 84 d7 dc 	ori r4,r4,0xd7dc
  10c53c:	58 83 00 00 	sw (r4+0),r3
  10c540:	c3 a0 00 00 	ret

0010c544 <_open>:
  10c544:	34 08 00 02 	mvi r8,2
  10c548:	ac 00 00 07 	scall
  10c54c:	78 04 00 10 	mvhi r4,0x10
  10c550:	38 84 d7 dc 	ori r4,r4,0xd7dc
  10c554:	58 83 00 00 	sw (r4+0),r3
  10c558:	c3 a0 00 00 	ret

0010c55c <_close>:
  10c55c:	34 08 00 03 	mvi r8,3
  10c560:	ac 00 00 07 	scall
  10c564:	78 04 00 10 	mvhi r4,0x10
  10c568:	38 84 d7 dc 	ori r4,r4,0xd7dc
  10c56c:	58 83 00 00 	sw (r4+0),r3
  10c570:	c3 a0 00 00 	ret

0010c574 <_lseek>:
  10c574:	34 08 00 06 	mvi r8,6
  10c578:	ac 00 00 07 	scall
  10c57c:	78 04 00 10 	mvhi r4,0x10
  10c580:	38 84 d7 dc 	ori r4,r4,0xd7dc
  10c584:	58 83 00 00 	sw (r4+0),r3
  10c588:	c3 a0 00 00 	ret

0010c58c <_fstat>:
  10c58c:	34 08 00 0a 	mvi r8,10
  10c590:	ac 00 00 07 	scall
  10c594:	78 04 00 10 	mvhi r4,0x10
  10c598:	38 84 d7 dc 	ori r4,r4,0xd7dc
  10c59c:	58 83 00 00 	sw (r4+0),r3
  10c5a0:	c3 a0 00 00 	ret

0010c5a4 <_stat>:
  10c5a4:	34 08 00 0f 	mvi r8,15
  10c5a8:	ac 00 00 07 	scall
  10c5ac:	78 04 00 10 	mvhi r4,0x10
  10c5b0:	38 84 d7 dc 	ori r4,r4,0xd7dc
  10c5b4:	58 83 00 00 	sw (r4+0),r3
  10c5b8:	c3 a0 00 00 	ret

0010c5bc <_link>:
  10c5bc:	34 08 00 15 	mvi r8,21
  10c5c0:	ac 00 00 07 	scall
  10c5c4:	78 04 00 10 	mvhi r4,0x10
  10c5c8:	38 84 d7 dc 	ori r4,r4,0xd7dc
  10c5cc:	58 83 00 00 	sw (r4+0),r3
  10c5d0:	c3 a0 00 00 	ret

0010c5d4 <_unlink>:
  10c5d4:	34 08 00 07 	mvi r8,7
  10c5d8:	ac 00 00 07 	scall
  10c5dc:	78 04 00 10 	mvhi r4,0x10
  10c5e0:	38 84 d7 dc 	ori r4,r4,0xd7dc
  10c5e4:	58 83 00 00 	sw (r4+0),r3
  10c5e8:	c3 a0 00 00 	ret

0010c5ec <_exit>:
  10c5ec:	34 08 00 01 	mvi r8,1
  10c5f0:	ac 00 00 07 	scall

0010c5f4 <_getpid>:
  10c5f4:	78 01 00 10 	mvhi r1,0x10
  10c5f8:	38 21 d7 dc 	ori r1,r1,0xd7dc
  10c5fc:	34 02 00 58 	mvi r2,88
  10c600:	58 22 00 00 	sw (r1+0),r2
  10c604:	34 01 ff ff 	mvi r1,-1
  10c608:	c3 a0 00 00 	ret

0010c60c <_kill>:
  10c60c:	78 01 00 10 	mvhi r1,0x10
  10c610:	38 21 d7 dc 	ori r1,r1,0xd7dc
  10c614:	34 02 00 58 	mvi r2,88
  10c618:	58 22 00 00 	sw (r1+0),r2
  10c61c:	34 01 ff ff 	mvi r1,-1
  10c620:	c3 a0 00 00 	ret

0010c624 <_sbrk>:
  10c624:	78 03 00 10 	mvhi r3,0x10
  10c628:	38 63 d7 d8 	ori r3,r3,0xd7d8
  10c62c:	28 62 00 00 	lw r2,(r3+0)
  10c630:	44 40 00 05 	be r2,r0,10c644 <_sbrk+0x20>
  10c634:	b4 41 08 00 	add r1,r2,r1
  10c638:	58 61 00 00 	sw (r3+0),r1
  10c63c:	b8 40 08 00 	mv r1,r2
  10c640:	c3 a0 00 00 	ret
  10c644:	78 02 00 10 	mvhi r2,0x10
  10c648:	38 42 d7 e0 	ori r2,r2,0xd7e0
  10c64c:	b4 41 08 00 	add r1,r2,r1
  10c650:	58 61 00 00 	sw (r3+0),r1
  10c654:	b8 40 08 00 	mv r1,r2
  10c658:	c3 a0 00 00 	ret

0010c65c <_init>:
  10c65c:	37 9c ff fc 	addi sp,sp,-4
  10c660:	5b 9d 00 04 	sw (sp+4),ra
  10c664:	fb ff d6 49 	calli 101f88 <frame_dummy>
  10c668:	fb ff d6 5c 	calli 101fd8 <__do_global_ctors_aux>
  10c66c:	2b 9d 00 04 	lw ra,(sp+4)
  10c670:	37 9c 00 04 	addi sp,sp,4
  10c674:	c3 a0 00 00 	ret

0010c678 <_fini>:
  10c678:	37 9c ff fc 	addi sp,sp,-4
  10c67c:	5b 9d 00 04 	sw (sp+4),ra
  10c680:	fb ff d6 17 	calli 101edc <__do_global_dtors_aux>
  10c684:	2b 9d 00 04 	lw ra,(sp+4)
  10c688:	37 9c 00 04 	addi sp,sp,4
  10c68c:	c3 a0 00 00 	ret

0010c690 <__CTOR_LIST__>:
  10c690:	ff ff ff ff                                         ....

0010c694 <__CTOR_END__>:
  10c694:	00 00 00 00                                         ....

0010c698 <__DTOR_LIST__>:
  10c698:	ff ff ff ff                                         ....

0010c69c <__DTOR_END__>:
  10c69c:	00 00 00 00                                         ....

0010c6a0 <__JCR_END__>:
  10c6a0:	00 00 00 00                                         ....
